----------------
IN: 
0xfffffff0:  ea 5b e0 00 f0           ljmpw    $0xf000:$0xe05b

----------------
IN: 
0x000fe05b:  2e 66 83 3e 08 61 00     cmpl     $0, %cs:0x6108
0x000fe062:  0f 85 7a f0              jne      0xd0e0

----------------
IN: 
0x000fe066:  31 d2                    xorw     %dx, %dx
0x000fe068:  8e d2                    movw     %dx, %ss

----------------
IN: 
0x000fe06a:  66 bc 00 70 00 00        movl     $0x7000, %esp

----------------
IN: 
0x000fe070:  66 ba 9d 1a 0f 00        movl     $0xf1a9d, %edx
0x000fe076:  e9 e1 ee                 jmp      0xcf5a

----------------
IN: 
0x000fcf5a:  fa                       cli      
0x000fcf5b:  fc                       cld      
0x000fcf5c:  66 89 c1                 movl     %eax, %ecx
0x000fcf5f:  66 b8 8f 00 00 00        movl     $0x8f, %eax
0x000fcf65:  e6 70                    outb     %al, $0x70
0x000fcf67:  e4 71                    inb      $0x71, %al
0x000fcf69:  e4 92                    inb      $-0x6e, %al
0x000fcf6b:  0c 02                    orb      $2, %al
0x000fcf6d:  e6 92                    outb     %al, $0x92
0x000fcf6f:  66 89 c8                 movl     %ecx, %eax
0x000fcf72:  2e 0f 01 1e f8 60        lidtw    %cs:0x60f8
0x000fcf78:  2e 0f 01 16 b8 60        lgdtw    %cs:0x60b8
0x000fcf7e:  0f 20 c1                 movl     %cr0, %ecx
0x000fcf81:  66 81 e1 ff ff ff 1f     andl     $0x1fffffff, %ecx
0x000fcf88:  66 83 c9 01              orl      $1, %ecx
0x000fcf8c:  0f 22 c1                 movl     %ecx, %cr0

----------------
IN: 
0x000fcf8f:  66 ea 97 cf 0f 00 08 00  ljmpl    $0x8:$0xfcf97

----------------
IN: 
0x000fcf97:  b9 10 00 00 00           movl     $0x10, %ecx
0x000fcf9c:  8e d9                    movl     %ecx, %ds

----------------
IN: 
0x000fcf9e:  8e c1                    movl     %ecx, %es

----------------
IN: 
0x000fcfa0:  8e d1                    movl     %ecx, %ss

----------------
IN: 
0x000fcfa2:  8e e1                    movl     %ecx, %fs

----------------
IN: 
0x000fcfa4:  8e e9                    movl     %ecx, %gs
0x000fcfa6:  ff e2                    jmpl     *%edx

----------------
IN: 
0x000f1a9d:  53                       pushl    %ebx
0x000f1a9e:  83 ec 2c                 subl     $0x2c, %esp
0x000f1aa1:  e8 32 c8 ff ff           calll    0xee2d8

----------------
IN: 
0x000ee2d8:  83 ec 08                 subl     $8, %esp
0x000ee2db:  c7 44 24 04 58 51 0f 00  movl     $0xf5158, 4(%esp)
0x000ee2e3:  c7 04 24 d4 22 0f 00     movl     $0xf22d4, (%esp)
0x000ee2ea:  e8 d6 ff ff ff           calll    0xee2c5

----------------
IN: 
0x000ee2c5:  8d 4c 24 08              leal     8(%esp), %ecx
0x000ee2c9:  8b 54 24 04              movl     4(%esp), %edx
0x000ee2cd:  b8 04 51 0f 00           movl     $0xf5104, %eax
0x000ee2d2:  e8 43 f8 ff ff           calll    0xedb1a

----------------
IN: 
0x000edb1a:  55                       pushl    %ebp
0x000edb1b:  57                       pushl    %edi
0x000edb1c:  56                       pushl    %esi
0x000edb1d:  53                       pushl    %ebx
0x000edb1e:  83 ec 0c                 subl     $0xc, %esp
0x000edb21:  89 c3                    movl     %eax, %ebx
0x000edb23:  89 54 24 04              movl     %edx, 4(%esp)
0x000edb27:  89 cd                    movl     %ecx, %ebp
0x000edb29:  8b 74 24 04              movl     4(%esp), %esi
0x000edb2d:  0f be 16                 movsbl   (%esi), %edx
0x000edb30:  84 d2                    testb    %dl, %dl
0x000edb32:  0f 84 3e 02 00 00        je       0xedd76

----------------
IN: 
0x000edb38:  80 fa 25                 cmpb     $0x25, %dl
0x000edb3b:  0f 85 9a 00 00 00        jne      0xedbdb

----------------
IN: 
0x000edbdb:  89 d8                    movl     %ebx, %eax
0x000edbdd:  e8 cb e4 ff ff           calll    0xec0ad

----------------
IN: 
0x000ec0ad:  89 c1                    movl     %eax, %ecx
0x000ec0af:  0f be d2                 movsbl   %dl, %edx
0x000ec0b2:  ff 11                    calll    *(%ecx)

----------------
IN: 
0x000ec0a2:  89 d0                    movl     %edx, %eax
0x000ec0a4:  66 8b 15 7c 5f 0f 00     movw     0xf5f7c, %dx
0x000ec0ab:  ee                       outb     %al, %dx
0x000ec0ac:  c3                       retl     

----------------
IN: 
0x000ec0b4:  c3                       retl     

----------------
IN: 
0x000edbe2:  e9 83 01 00 00           jmp      0xedd6a

----------------
IN: 
0x000edd6a:  8d 46 01                 leal     1(%esi), %eax
0x000edd6d:  89 44 24 04              movl     %eax, 4(%esp)
0x000edd71:  e9 b3 fd ff ff           jmp      0xedb29

----------------
IN: 
0x000edb29:  8b 74 24 04              movl     4(%esp), %esi
0x000edb2d:  0f be 16                 movsbl   (%esi), %edx
0x000edb30:  84 d2                    testb    %dl, %dl
0x000edb32:  0f 84 3e 02 00 00        je       0xedd76

----------------
IN: 
0x000edb41:  8b 44 24 04              movl     4(%esp), %eax
0x000edb45:  8d 70 01                 leal     1(%eax), %esi
0x000edb48:  c6 44 24 0b 20           movb     $0x20, 0xb(%esp)
0x000edb4d:  31 c9                    xorl     %ecx, %ecx
0x000edb4f:  0f be 06                 movsbl   (%esi), %eax
0x000edb52:  8d 50 d0                 leal     -0x30(%eax), %edx
0x000edb55:  80 fa 09                 cmpb     $9, %dl
0x000edb58:  77 1b                    ja       0xedb75

----------------
IN: 
0x000edb75:  89 f2                    movl     %esi, %edx
0x000edb77:  31 ff                    xorl     %edi, %edi
0x000edb79:  3c 6c                    cmpb     $0x6c, %al
0x000edb7b:  75 15                    jne      0xedb92

----------------
IN: 
0x000edb92:  3c 64                    cmpb     $0x64, %al
0x000edb94:  74 51                    je       0xedbe7

----------------
IN: 
0x000edb96:  7f 1f                    jg       0xedbb7

----------------
IN: 
0x000edbb7:  3c 73                    cmpb     $0x73, %al
0x000edbb9:  0f 84 7f 01 00 00        je       0xedd3e

----------------
IN: 
0x000edd3e:  8d 7d 04                 leal     4(%ebp), %edi
0x000edd41:  8b 6d 00                 movl     (%ebp), %ebp
0x000edd44:  0f be 55 00              movsbl   (%ebp), %edx
0x000edd48:  84 d2                    testb    %dl, %dl
0x000edd4a:  74 1c                    je       0xedd68

----------------
IN: 
0x000edd4c:  89 d8                    movl     %ebx, %eax
0x000edd4e:  e8 5a e3 ff ff           calll    0xec0ad

----------------
IN: 
0x000edd53:  45                       incl     %ebp
0x000edd54:  eb ee                    jmp      0xedd44

----------------
IN: 
0x000edd44:  0f be 55 00              movsbl   (%ebp), %edx
0x000edd48:  84 d2                    testb    %dl, %dl
0x000edd4a:  74 1c                    je       0xedd68

----------------
IN: 
0x000edd68:  89 fd                    movl     %edi, %ebp
0x000edd6a:  8d 46 01                 leal     1(%esi), %eax
0x000edd6d:  89 44 24 04              movl     %eax, 4(%esp)
0x000edd71:  e9 b3 fd ff ff           jmp      0xedb29

----------------
IN: 
0x000edd76:  83 c4 0c                 addl     $0xc, %esp
0x000edd79:  5b                       popl     %ebx
0x000edd7a:  5e                       popl     %esi
0x000edd7b:  5f                       popl     %edi
0x000edd7c:  5d                       popl     %ebp
0x000edd7d:  c3                       retl     

----------------
IN: 
0x000ee2d7:  c3                       retl     

----------------
IN: 
0x000ee2ef:  c7 44 24 04 08 51 0f 00  movl     $0xf5108, 4(%esp)
0x000ee2f7:  c7 04 24 ea 22 0f 00     movl     $0xf22ea, (%esp)
0x000ee2fe:  e8 c2 ff ff ff           calll    0xee2c5

----------------
IN: 
0x000ee303:  83 c4 08                 addl     $8, %esp
0x000ee306:  c3                       retl     

----------------
IN: 
0x000f1aa6:  bb 00 00 00 40           movl     $0x40000000, %ebx
0x000f1aab:  8d 44 24 18              leal     0x18(%esp), %eax
0x000f1aaf:  89 44 24 04              movl     %eax, 4(%esp)
0x000f1ab3:  8d 44 24 14              leal     0x14(%esp), %eax
0x000f1ab7:  89 04 24                 movl     %eax, (%esp)
0x000f1aba:  8d 4c 24 10              leal     0x10(%esp), %ecx
0x000f1abe:  8d 54 24 0c              leal     0xc(%esp), %edx
0x000f1ac2:  89 d8                    movl     %ebx, %eax
0x000f1ac4:  e8 9e a8 ff ff           calll    0xec367

----------------
IN: 
0x000ec367:  55                       pushl    %ebp
0x000ec368:  57                       pushl    %edi
0x000ec369:  56                       pushl    %esi
0x000ec36a:  53                       pushl    %ebx
0x000ec36b:  89 d6                    movl     %edx, %esi
0x000ec36d:  89 cf                    movl     %ecx, %edi
0x000ec36f:  8b 6c 24 14              movl     0x14(%esp), %ebp
0x000ec373:  9c                       pushfl   
0x000ec374:  59                       popl     %ecx
0x000ec375:  89 ca                    movl     %ecx, %edx
0x000ec377:  81 f2 00 00 20 00        xorl     $0x200000, %edx
0x000ec37d:  52                       pushl    %edx
0x000ec37e:  9d                       popfl    

----------------
IN: 
0x000ec37f:  9c                       pushfl   
0x000ec380:  5a                       popl     %edx
0x000ec381:  51                       pushl    %ecx
0x000ec382:  9d                       popfl    

----------------
IN: 
0x000ec383:  31 ca                    xorl     %ecx, %edx
0x000ec385:  81 e2 00 00 20 00        andl     $0x200000, %edx
0x000ec38b:  75 1f                    jne      0xec3ac

----------------
IN: 
0x000ec3ac:  0f a2                    cpuid    
0x000ec3ae:  89 06                    movl     %eax, (%esi)
0x000ec3b0:  89 1f                    movl     %ebx, (%edi)
0x000ec3b2:  89 4d 00                 movl     %ecx, (%ebp)
0x000ec3b5:  8b 44 24 18              movl     0x18(%esp), %eax
0x000ec3b9:  89 10                    movl     %edx, (%eax)
0x000ec3bb:  5b                       popl     %ebx
0x000ec3bc:  5e                       popl     %esi
0x000ec3bd:  5f                       popl     %edi
0x000ec3be:  5d                       popl     %ebp
0x000ec3bf:  c3                       retl     

----------------
IN: 
0x000f1ac9:  8b 44 24 10              movl     0x10(%esp), %eax
0x000f1acd:  89 44 24 1f              movl     %eax, 0x1f(%esp)
0x000f1ad1:  8b 44 24 14              movl     0x14(%esp), %eax
0x000f1ad5:  89 44 24 23              movl     %eax, 0x23(%esp)
0x000f1ad9:  8b 44 24 18              movl     0x18(%esp), %eax
0x000f1add:  89 44 24 27              movl     %eax, 0x27(%esp)
0x000f1ae1:  c6 44 24 2b 00           movb     $0, 0x2b(%esp)
0x000f1ae6:  ba 3d 4d 0f 00           movl     $0xf4d3d, %edx
0x000f1aeb:  8d 44 24 1f              leal     0x1f(%esp), %eax
0x000f1aef:  e8 ad a6 ff ff           calll    0xec1a1

----------------
IN: 
0x000ec1a1:  53                       pushl    %ebx
0x000ec1a2:  31 c9                    xorl     %ecx, %ecx
0x000ec1a4:  8a 1c 08                 movb     (%eax, %ecx), %bl
0x000ec1a7:  3a 1c 0a                 cmpb     (%edx, %ecx), %bl
0x000ec1aa:  74 0c                    je       0xec1b8

----------------
IN: 
0x000ec1ac:  0f 9d c0                 setge    %al
0x000ec1af:  0f b6 c0                 movzbl   %al, %eax
0x000ec1b2:  8d 44 00 ff              leal     -1(%eax, %eax), %eax
0x000ec1b6:  eb 07                    jmp      0xec1bf

----------------
IN: 
0x000ec1bf:  5b                       popl     %ebx
0x000ec1c0:  c3                       retl     

----------------
IN: 
0x000f1af4:  85 c0                    testl    %eax, %eax
0x000f1af6:  75 4c                    jne      0xf1b44

----------------
IN: 
0x000f1b44:  81 c3 00 01 00 00        addl     $0x100, %ebx
0x000f1b4a:  81 fb 00 00 01 40        cmpl     $0x40010000, %ebx
0x000f1b50:  0f 85 55 ff ff ff        jne      0xf1aab

----------------
IN: 
0x000f1aab:  8d 44 24 18              leal     0x18(%esp), %eax
0x000f1aaf:  89 44 24 04              movl     %eax, 4(%esp)
0x000f1ab3:  8d 44 24 14              leal     0x14(%esp), %eax
0x000f1ab7:  89 04 24                 movl     %eax, (%esp)
0x000f1aba:  8d 4c 24 10              leal     0x10(%esp), %ecx
0x000f1abe:  8d 54 24 0c              leal     0xc(%esp), %edx
0x000f1ac2:  89 d8                    movl     %ebx, %eax
0x000f1ac4:  e8 9e a8 ff ff           calll    0xec367

----------------
IN: 
0x000f1b56:  83 3d b8 51 0f 00 00     cmpl     $0, 0xf51b8
0x000f1b5d:  75 0e                    jne      0xf1b6d

----------------
IN: 
0x000f1b5f:  c7 04 24 a3 4d 0f 00     movl     $0xf4da3, (%esp)
0x000f1b66:  e8 5a c7 ff ff           calll    0xee2c5

----------------
IN: 
0x000f1b6b:  eb 0a                    jmp      0xf1b77

----------------
IN: 
0x000f1b77:  e8 51 e0 ff ff           calll    0xefbcd

----------------
IN: 
0x000efbcd:  56                       pushl    %esi
0x000efbce:  53                       pushl    %ebx
0x000efbcf:  52                       pushl    %edx
0x000efbd0:  e8 8d c4 ff ff           calll    0xec062

----------------
IN: 
0x000ec062:  a1 60 5c 0f 00           movl     0xf5c60, %eax
0x000ec067:  d1 e8                    shrl     $1, %eax
0x000ec069:  83 e0 01                 andl     $1, %eax
0x000ec06c:  c3                       retl     

----------------
IN: 
0x000efbd5:  85 c0                    testl    %eax, %eax
0x000efbd7:  75 70                    jne      0xefc49

----------------
IN: 
0x000efbd9:  31 d2                    xorl     %edx, %edx
0x000efbdb:  83 c8 ff                 orl      $0xffffffff, %eax
0x000efbde:  e8 f3 c6 ff ff           calll    0xec2d6

----------------
IN: 
0x000ec2d6:  57                       pushl    %edi
0x000ec2d7:  56                       pushl    %esi
0x000ec2d8:  53                       pushl    %ebx
0x000ec2d9:  89 c3                    movl     %eax, %ebx
0x000ec2db:  89 d7                    movl     %edx, %edi
0x000ec2dd:  0f b7 c0                 movzwl   %ax, %eax
0x000ec2e0:  a8 07                    testb    $7, %al
0x000ec2e2:  75 32                    jne      0xec316

----------------
IN: 
0x000ec316:  43                       incl     %ebx
0x000ec317:  eb dc                    jmp      0xec2f5

----------------
IN: 
0x000ec2f5:  0f b7 f3                 movzwl   %bx, %esi
0x000ec2f8:  89 f0                    movl     %esi, %eax
0x000ec2fa:  c1 e8 08                 shrl     $8, %eax
0x000ec2fd:  39 f8                    cmpl     %edi, %eax
0x000ec2ff:  75 18                    jne      0xec319

----------------
IN: 
0x000ec301:  31 d2                    xorl     %edx, %edx
0x000ec303:  89 f0                    movl     %esi, %eax
0x000ec305:  e8 71 ff ff ff           calll    0xec27b

----------------
IN: 
0x000ec27b:  53                       pushl    %ebx
0x000ec27c:  89 d3                    movl     %edx, %ebx
0x000ec27e:  89 d1                    movl     %edx, %ecx
0x000ec280:  81 e1 fc 00 00 00        andl     $0xfc, %ecx
0x000ec286:  81 c9 00 00 00 80        orl      $0x80000000, %ecx
0x000ec28c:  0f b7 c0                 movzwl   %ax, %eax
0x000ec28f:  c1 e0 08                 shll     $8, %eax
0x000ec292:  09 c1                    orl      %eax, %ecx
0x000ec294:  ba f8 0c 00 00           movl     $0xcf8, %edx
0x000ec299:  89 c8                    movl     %ecx, %eax
0x000ec29b:  ef                       outl     %eax, %dx
0x000ec29c:  83 e3 02                 andl     $2, %ebx
0x000ec29f:  8d 93 fc 0c 00 00        leal     0xcfc(%ebx), %edx
0x000ec2a5:  66 ed                    inw      %dx, %ax
0x000ec2a7:  5b                       popl     %ebx
0x000ec2a8:  c3                       retl     

----------------
IN: 
0x000ec30a:  48                       decl     %eax
0x000ec30b:  66 83 f8 fd              cmpw     $-3, %ax
0x000ec30f:  76 0d                    jbe      0xec31e

----------------
IN: 
0x000ec31e:  89 d8                    movl     %ebx, %eax
0x000ec320:  5b                       popl     %ebx
0x000ec321:  5e                       popl     %esi
0x000ec322:  5f                       popl     %edi
0x000ec323:  c3                       retl     

----------------
IN: 
0x000efbe3:  89 c3                    movl     %eax, %ebx
0x000efbe5:  85 c0                    testl    %eax, %eax
0x000efbe7:  78 54                    js       0xefc3d

----------------
IN: 
0x000efbe9:  0f b7 f3                 movzwl   %bx, %esi
0x000efbec:  31 d2                    xorl     %edx, %edx
0x000efbee:  89 f0                    movl     %esi, %eax
0x000efbf0:  e8 64 c6 ff ff           calll    0xec259

----------------
IN: 
0x000ec259:  89 d1                    movl     %edx, %ecx
0x000ec25b:  81 e1 fc 00 00 00        andl     $0xfc, %ecx
0x000ec261:  81 c9 00 00 00 80        orl      $0x80000000, %ecx
0x000ec267:  0f b7 c0                 movzwl   %ax, %eax
0x000ec26a:  c1 e0 08                 shll     $8, %eax
0x000ec26d:  09 c1                    orl      %eax, %ecx
0x000ec26f:  ba f8 0c 00 00           movl     $0xcf8, %edx
0x000ec274:  89 c8                    movl     %ecx, %eax
0x000ec276:  ef                       outl     %eax, %dx
0x000ec277:  b2 fc                    movb     $0xfc, %dl
0x000ec279:  ed                       inl      %dx, %eax
0x000ec27a:  c3                       retl     

----------------
IN: 
0x000efbf5:  89 c2                    movl     %eax, %edx
0x000efbf7:  c1 ea 10                 shrl     $0x10, %edx
0x000efbfa:  66 3d 86 80              cmpw     $0x8086, %ax
0x000efbfe:  0f 94 c0                 sete     %al
0x000efc01:  81 fa 37 12 00 00        cmpl     $0x1237, %edx
0x000efc07:  75 0a                    jne      0xefc13

----------------
IN: 
0x000efc09:  84 c0                    testb    %al, %al
0x000efc0b:  74 06                    je       0xefc13

----------------
IN: 
0x000efc0d:  66 ba 59 00              movw     $0x59, %dx
0x000efc11:  eb 10                    jmp      0xefc23

----------------
IN: 
0x000efc23:  89 f0                    movl     %esi, %eax
0x000efc25:  e8 6c d5 ff ff           calll    0xed196

----------------
IN: 
0x000ed196:  56                       pushl    %esi
0x000ed197:  53                       pushl    %ebx
0x000ed198:  89 d6                    movl     %edx, %esi
0x000ed19a:  0f b7 d8                 movzwl   %ax, %ebx
0x000ed19d:  89 d8                    movl     %ebx, %eax
0x000ed19f:  e8 05 f1 ff ff           calll    0xec2a9

----------------
IN: 
0x000ec2a9:  53                       pushl    %ebx
0x000ec2aa:  89 d3                    movl     %edx, %ebx
0x000ec2ac:  89 d1                    movl     %edx, %ecx
0x000ec2ae:  81 e1 fc 00 00 00        andl     $0xfc, %ecx
0x000ec2b4:  81 c9 00 00 00 80        orl      $0x80000000, %ecx
0x000ec2ba:  0f b7 c0                 movzwl   %ax, %eax
0x000ec2bd:  c1 e0 08                 shll     $8, %eax
0x000ec2c0:  09 c1                    orl      %eax, %ecx
0x000ec2c2:  ba f8 0c 00 00           movl     $0xcf8, %edx
0x000ec2c7:  89 c8                    movl     %ecx, %eax
0x000ec2c9:  ef                       outl     %eax, %dx
0x000ec2ca:  83 e3 03                 andl     $3, %ebx
0x000ec2cd:  8d 93 fc 0c 00 00        leal     0xcfc(%ebx), %edx
0x000ec2d3:  ec                       inb      %dx, %al
0x000ec2d4:  5b                       popl     %ebx
0x000ec2d5:  c3                       retl     

----------------
IN: 
0x000ed1a4:  89 f2                    movl     %esi, %edx
0x000ed1a6:  a8 10                    testb    $0x10, %al
0x000ed1a8:  89 d8                    movl     %ebx, %eax
0x000ed1aa:  75 0a                    jne      0xed1b6

----------------
IN: 
0x000ed1ac:  b9 0d d1 fe ff           movl     $0xfffed10d, %ecx
0x000ed1b1:  ff d1                    calll    *%ecx

----------------
IN: 
0xfffed10d:  55                       pushl    %ebp
0xfffed10e:  57                       pushl    %edi
0xfffed10f:  56                       pushl    %esi
0xfffed110:  53                       pushl    %ebx
0xfffed111:  83 ec 08                 subl     $8, %esp
0xfffed114:  89 d5                    movl     %edx, %ebp
0xfffed116:  89 d6                    movl     %edx, %esi
0xfffed118:  83 e6 fc                 andl     $0xfffffffc, %esi
0xfffed11b:  0f b7 d8                 movzwl   %ax, %ebx
0xfffed11e:  89 f2                    movl     %esi, %edx
0xfffed120:  89 d8                    movl     %ebx, %eax
0xfffed122:  e8 32 f1 ff ff           calll    0xfffec259

----------------
IN: 
0xfffec259:  89 d1                    movl     %edx, %ecx
0xfffec25b:  81 e1 fc 00 00 00        andl     $0xfc, %ecx
0xfffec261:  81 c9 00 00 00 80        orl      $0x80000000, %ecx
0xfffec267:  0f b7 c0                 movzwl   %ax, %eax
0xfffec26a:  c1 e0 08                 shll     $8, %eax
0xfffec26d:  09 c1                    orl      %eax, %ecx
0xfffec26f:  ba f8 0c 00 00           movl     $0xcf8, %edx
0xfffec274:  89 c8                    movl     %ecx, %eax
0xfffec276:  ef                       outl     %eax, %dx
0xfffec277:  b2 fc                    movb     $0xfc, %dl
0xfffec279:  ed                       inl      %dx, %eax
0xfffec27a:  c3                       retl     

----------------
IN: 
0xfffed127:  89 04 24                 movl     %eax, (%esp)
0xfffed12a:  8d 7e 04                 leal     4(%esi), %edi
0xfffed12d:  89 fa                    movl     %edi, %edx
0xfffed12f:  89 d8                    movl     %ebx, %eax
0xfffed131:  e8 23 f1 ff ff           calll    0xfffec259

----------------
IN: 
0xfffed136:  89 44 24 04              movl     %eax, 4(%esp)
0xfffed13a:  89 ea                    movl     %ebp, %edx
0xfffed13c:  83 e2 03                 andl     $3, %edx
0xfffed13f:  8d 0c 14                 leal     (%esp, %edx), %ecx
0xfffed142:  31 c0                    xorl     %eax, %eax
0xfffed144:  c6 44 01 01 33           movb     $0x33, 1(%ecx, %eax)
0xfffed149:  40                       incl     %eax
0xfffed14a:  83 f8 06                 cmpl     $6, %eax
0xfffed14d:  75 f5                    jne      0xfffed144

----------------
IN: 
0xfffed144:  c6 44 01 01 33           movb     $0x33, 1(%ecx, %eax)
0xfffed149:  40                       incl     %eax
0xfffed14a:  83 f8 06                 cmpl     $6, %eax
0xfffed14d:  75 f5                    jne      0xfffed144

----------------
IN: 
0xfffed14f:  0f b6 2c 14              movzbl   (%esp, %edx), %ebp
0xfffed153:  83 e5 10                 andl     $0x10, %ebp
0xfffed156:  c6 04 14 30              movb     $0x30, (%esp, %edx)
0xfffed15a:  8b 0c 24                 movl     (%esp), %ecx
0xfffed15d:  89 f2                    movl     %esi, %edx
0xfffed15f:  89 d8                    movl     %ebx, %eax
0xfffed161:  e8 66 f0 ff ff           calll    0xfffec1cc

----------------
IN: 
0xfffec1cc:  53                       pushl    %ebx
0xfffec1cd:  89 d3                    movl     %edx, %ebx
0xfffec1cf:  81 e3 fc 00 00 00        andl     $0xfc, %ebx
0xfffec1d5:  81 cb 00 00 00 80        orl      $0x80000000, %ebx
0xfffec1db:  0f b7 d0                 movzwl   %ax, %edx
0xfffec1de:  c1 e2 08                 shll     $8, %edx
0xfffec1e1:  09 d3                    orl      %edx, %ebx
0xfffec1e3:  ba f8 0c 00 00           movl     $0xcf8, %edx
0xfffec1e8:  89 d8                    movl     %ebx, %eax
0xfffec1ea:  ef                       outl     %eax, %dx
0xfffec1eb:  b2 fc                    movb     $0xfc, %dl
0xfffec1ed:  89 c8                    movl     %ecx, %eax
0xfffec1ef:  ef                       outl     %eax, %dx
0xfffec1f0:  5b                       popl     %ebx
0xfffec1f1:  c3                       retl     

----------------
IN: 
0xfffed166:  8b 4c 24 04              movl     4(%esp), %ecx
0xfffed16a:  89 fa                    movl     %edi, %edx
0xfffed16c:  89 d8                    movl     %ebx, %eax
0xfffed16e:  e8 59 f0 ff ff           calll    0xfffec1cc

----------------
IN: 
0xfffed173:  89 e8                    movl     %ebp, %eax
0xfffed175:  84 c0                    testb    %al, %al
0xfffed177:  75 15                    jne      0xfffed18e

----------------
IN: 
0xfffed179:  b8 f0 57 0d 00           movl     $0xd57f0, %eax
0xfffed17e:  b9 00 00 10 00           movl     $0x100000, %ecx
0xfffed183:  29 c1                    subl     %eax, %ecx
0xfffed185:  be f0 57 fd ff           movl     $0xfffd57f0, %esi
0xfffed18a:  89 c7                    movl     %eax, %edi
0xfffed18c:  f3 a4                    rep movsb (%esi), %es:(%edi)

----------------
IN: 
0xfffed18c:  f3 a4                    rep movsb (%esi), %es:(%edi)

----------------
IN: 
0xfffed18e:  83 c4 08                 addl     $8, %esp
0xfffed191:  5b                       popl     %ebx
0xfffed192:  5e                       popl     %esi
0xfffed193:  5f                       popl     %edi
0xfffed194:  5d                       popl     %ebp
0xfffed195:  c3                       retl     

----------------
IN: 
0x000ed1b3:  5b                       popl     %ebx
0x000ed1b4:  5e                       popl     %esi
0x000ed1b5:  c3                       retl     

----------------
IN: 
0x000efc2a:  e8 72 d4 ff ff           calll    0xed0a1

----------------
IN: 
0x000ed0a1:  83 3d 08 61 0f 00 00     cmpl     $0, 0xf6108
0x000ed0a8:  75 12                    jne      0xed0bc

----------------
IN: 
0x000ed0aa:  b0 8f                    movb     $0x8f, %al
0x000ed0ac:  e6 70                    outb     %al, $0x70
0x000ed0ae:  31 c0                    xorl     %eax, %eax
0x000ed0b0:  e6 71                    outb     %al, $0x71
0x000ed0b2:  c7 05 08 61 0f 00 01 00  movl     $1, 0xf6108
0x000ed0ba:  00 00
0x000ed0bc:  c3                       retl     

----------------
IN: 
0x000efc2f:  89 1d f4 50 0f 00        movl     %ebx, 0xf50f4
0x000efc35:  eb 12                    jmp      0xefc49

----------------
IN: 
0x000efc49:  58                       popl     %eax
0x000efc4a:  5b                       popl     %ebx
0x000efc4b:  5e                       popl     %esi
0x000efc4c:  c3                       retl     

----------------
IN: 
0x000f1b7c:  e8 d1 7d ff ff           calll    0xe9952

----------------
IN: 
0x000e9952:  55                       pushl    %ebp
0x000e9953:  57                       pushl    %edi
0x000e9954:  56                       pushl    %esi
0x000e9955:  53                       pushl    %ebx
0x000e9956:  83 ec 34                 subl     $0x34, %esp
0x000e9959:  e8 43 37 00 00           calll    0xed0a1

----------------
IN: 
0x000ed0bc:  c3                       retl     

----------------
IN: 
0x000e995e:  ba f8 0c 00 00           movl     $0xcf8, %edx
0x000e9963:  b8 00 00 00 80           movl     $0x80000000, %eax
0x000e9968:  ef                       outl     %eax, %dx
0x000e9969:  bd fc 0c 00 00           movl     $0xcfc, %ebp
0x000e996e:  89 ea                    movl     %ebp, %edx
0x000e9970:  66 ed                    inw      %dx, %ax
0x000e9972:  89 c3                    movl     %eax, %ebx
0x000e9974:  8d 43 ff                 leal     -1(%ebx), %eax
0x000e9977:  66 83 f8 fd              cmpw     $-3, %ax
0x000e997b:  0f 87 e8 00 00 00        ja       0xe9a69

----------------
IN: 
0x000e9981:  b8 00 00 00 80           movl     $0x80000000, %eax
0x000e9986:  b2 f8                    movb     $0xf8, %dl
0x000e9988:  ef                       outl     %eax, %dx
0x000e9989:  be fe 0c 00 00           movl     $0xcfe, %esi
0x000e998e:  89 f2                    movl     %esi, %edx
0x000e9990:  66 ed                    inw      %dx, %ax
0x000e9992:  0f b7 c8                 movzwl   %ax, %ecx
0x000e9995:  bf 2c 00 00 80           movl     $0x8000002c, %edi
0x000e999a:  89 f8                    movl     %edi, %eax
0x000e999c:  b2 f8                    movb     $0xf8, %dl
0x000e999e:  ef                       outl     %eax, %dx
0x000e999f:  89 ea                    movl     %ebp, %edx
0x000e99a1:  66 ed                    inw      %dx, %ax
0x000e99a3:  89 c5                    movl     %eax, %ebp
0x000e99a5:  89 f8                    movl     %edi, %eax
0x000e99a7:  b2 f8                    movb     $0xf8, %dl
0x000e99a9:  ef                       outl     %eax, %dx
0x000e99aa:  89 f2                    movl     %esi, %edx
0x000e99ac:  66 ed                    inw      %dx, %ax
0x000e99ae:  66 3d 00 11              cmpw     $0x1100, %ax
0x000e99b2:  0f 85 b1 00 00 00        jne      0xe9a69

----------------
IN: 
0x000e99b8:  66 81 fd f4 1a           cmpw     $0x1af4, %bp
0x000e99bd:  0f 85 a6 00 00 00        jne      0xe9a69

----------------
IN: 
0x000e99c3:  83 0d 60 5c 0f 00 01     orl      $1, 0xf5c60
0x000e99ca:  66 81 f9 37 12           cmpw     $0x1237, %cx
0x000e99cf:  74 10                    je       0xe99e1

----------------
IN: 
0x000e99e1:  c7 04 24 04 4c 0f 00     movl     $0xf4c04, (%esp)
0x000e99e8:  e8 d8 48 00 00           calll    0xee2c5

----------------
IN: 
0x000ee2c5:  8d 4c 24 08              leal     8(%esp), %ecx
0x000ee2c9:  8b 54 24 04              movl     4(%esp), %edx
0x000ee2cd:  b8 04 51 0f 00           movl     $0xf5104, %eax
0x000ee2d2:  e8 43 f8 ff ff           calll    0xedb1a

----------------
IN: 
0x000edb1a:  55                       pushl    %ebp
0x000edb1b:  57                       pushl    %edi
0x000edb1c:  56                       pushl    %esi
0x000edb1d:  53                       pushl    %ebx
0x000edb1e:  83 ec 0c                 subl     $0xc, %esp
0x000edb21:  89 c3                    movl     %eax, %ebx
0x000edb23:  89 54 24 04              movl     %edx, 4(%esp)
0x000edb27:  89 cd                    movl     %ecx, %ebp
0x000edb29:  8b 74 24 04              movl     4(%esp), %esi
0x000edb2d:  0f be 16                 movsbl   (%esi), %edx
0x000edb30:  84 d2                    testb    %dl, %dl
0x000edb32:  0f 84 3e 02 00 00        je       0xedd76

----------------
IN: 
0x000edb38:  80 fa 25                 cmpb     $0x25, %dl
0x000edb3b:  0f 85 9a 00 00 00        jne      0xedbdb

----------------
IN: 
0x000edbdb:  89 d8                    movl     %ebx, %eax
0x000edbdd:  e8 cb e4 ff ff           calll    0xec0ad

----------------
IN: 
0x000ec0ad:  89 c1                    movl     %eax, %ecx
0x000ec0af:  0f be d2                 movsbl   %dl, %edx
0x000ec0b2:  ff 11                    calll    *(%ecx)

----------------
IN: 
0x000ec0a2:  89 d0                    movl     %edx, %eax
0x000ec0a4:  66 8b 15 7c 5f 0f 00     movw     0xf5f7c, %dx
0x000ec0ab:  ee                       outb     %al, %dx
0x000ec0ac:  c3                       retl     

----------------
IN: 
0x000ec0b4:  c3                       retl     

----------------
IN: 
0x000edbe2:  e9 83 01 00 00           jmp      0xedd6a

----------------
IN: 
0x000edd6a:  8d 46 01                 leal     1(%esi), %eax
0x000edd6d:  89 44 24 04              movl     %eax, 4(%esp)
0x000edd71:  e9 b3 fd ff ff           jmp      0xedb29

----------------
IN: 
0x000edb29:  8b 74 24 04              movl     4(%esp), %esi
0x000edb2d:  0f be 16                 movsbl   (%esi), %edx
0x000edb30:  84 d2                    testb    %dl, %dl
0x000edb32:  0f 84 3e 02 00 00        je       0xedd76

----------------
IN: 
0x000edd76:  83 c4 0c                 addl     $0xc, %esp
0x000edd79:  5b                       popl     %ebx
0x000edd7a:  5e                       popl     %esi
0x000edd7b:  5f                       popl     %edi
0x000edd7c:  5d                       popl     %ebp
0x000edd7d:  c3                       retl     

----------------
IN: 
0x000ee2d7:  c3                       retl     

----------------
IN: 
0x000e99ed:  eb 17                    jmp      0xe9a06

----------------
IN: 
0x000e9a06:  8d 44 24 20              leal     0x20(%esp), %eax
0x000e9a0a:  89 44 24 04              movl     %eax, 4(%esp)
0x000e9a0e:  8d 44 24 1c              leal     0x1c(%esp), %eax
0x000e9a12:  89 04 24                 movl     %eax, (%esp)
0x000e9a15:  8d 4c 24 18              leal     0x18(%esp), %ecx
0x000e9a19:  8d 54 24 14              leal     0x14(%esp), %edx
0x000e9a1d:  b8 00 00 00 40           movl     $0x40000000, %eax
0x000e9a22:  e8 40 29 00 00           calll    0xec367

----------------
IN: 
0x000ec367:  55                       pushl    %ebp
0x000ec368:  57                       pushl    %edi
0x000ec369:  56                       pushl    %esi
0x000ec36a:  53                       pushl    %ebx
0x000ec36b:  89 d6                    movl     %edx, %esi
0x000ec36d:  89 cf                    movl     %ecx, %edi
0x000ec36f:  8b 6c 24 14              movl     0x14(%esp), %ebp
0x000ec373:  9c                       pushfl   
0x000ec374:  59                       popl     %ecx
0x000ec375:  89 ca                    movl     %ecx, %edx
0x000ec377:  81 f2 00 00 20 00        xorl     $0x200000, %edx
0x000ec37d:  52                       pushl    %edx
0x000ec37e:  9d                       popfl    

----------------
IN: 
0x000ec37f:  9c                       pushfl   
0x000ec380:  5a                       popl     %edx
0x000ec381:  51                       pushl    %ecx
0x000ec382:  9d                       popfl    

----------------
IN: 
0x000ec383:  31 ca                    xorl     %ecx, %edx
0x000ec385:  81 e2 00 00 20 00        andl     $0x200000, %edx
0x000ec38b:  75 1f                    jne      0xec3ac

----------------
IN: 
0x000ec3ac:  0f a2                    cpuid    
0x000ec3ae:  89 06                    movl     %eax, (%esi)
0x000ec3b0:  89 1f                    movl     %ebx, (%edi)
0x000ec3b2:  89 4d 00                 movl     %ecx, (%ebp)
0x000ec3b5:  8b 44 24 18              movl     0x18(%esp), %eax
0x000ec3b9:  89 10                    movl     %edx, (%eax)
0x000ec3bb:  5b                       popl     %ebx
0x000ec3bc:  5e                       popl     %esi
0x000ec3bd:  5f                       popl     %edi
0x000ec3be:  5d                       popl     %ebp
0x000ec3bf:  c3                       retl     

----------------
IN: 
0x000e9a27:  8b 44 24 18              movl     0x18(%esp), %eax
0x000e9a2b:  89 44 24 27              movl     %eax, 0x27(%esp)
0x000e9a2f:  8b 44 24 1c              movl     0x1c(%esp), %eax
0x000e9a33:  89 44 24 2b              movl     %eax, 0x2b(%esp)
0x000e9a37:  8b 44 24 20              movl     0x20(%esp), %eax
0x000e9a3b:  89 44 24 2f              movl     %eax, 0x2f(%esp)
0x000e9a3f:  c6 44 24 33 00           movb     $0, 0x33(%esp)
0x000e9a44:  ba 5e 4c 0f 00           movl     $0xf4c5e, %edx
0x000e9a49:  8d 44 24 27              leal     0x27(%esp), %eax
0x000e9a4d:  e8 4f 27 00 00           calll    0xec1a1

----------------
IN: 
0x000ec1a1:  53                       pushl    %ebx
0x000ec1a2:  31 c9                    xorl     %ecx, %ecx
0x000ec1a4:  8a 1c 08                 movb     (%eax, %ecx), %bl
0x000ec1a7:  3a 1c 0a                 cmpb     (%edx, %ecx), %bl
0x000ec1aa:  74 0c                    je       0xec1b8

----------------
IN: 
0x000ec1ac:  0f 9d c0                 setge    %al
0x000ec1af:  0f b6 c0                 movzbl   %al, %eax
0x000ec1b2:  8d 44 00 ff              leal     -1(%eax, %eax), %eax
0x000ec1b6:  eb 07                    jmp      0xec1bf

----------------
IN: 
0x000ec1bf:  5b                       popl     %ebx
0x000ec1c0:  c3                       retl     

----------------
IN: 
0x000e9a52:  85 c0                    testl    %eax, %eax
0x000e9a54:  75 13                    jne      0xe9a69

----------------
IN: 
0x000e9a69:  e8 f4 25 00 00           calll    0xec062

----------------
IN: 
0x000ec062:  a1 60 5c 0f 00           movl     0xf5c60, %eax
0x000ec067:  d1 e8                    shrl     $1, %eax
0x000ec069:  83 e0 01                 andl     $1, %eax
0x000ec06c:  c3                       retl     

----------------
IN: 
0x000e9a6e:  85 c0                    testl    %eax, %eax
0x000e9a70:  0f 84 94 00 00 00        je       0xe9b0a

----------------
IN: 
0x000e9b0a:  b0 b4                    movb     $0xb4, %al
0x000e9b0c:  e6 70                    outb     %al, $0x70
0x000e9b0e:  e4 71                    inb      $0x71, %al
0x000e9b10:  88 c1                    movb     %al, %cl
0x000e9b12:  b0 b5                    movb     $0xb5, %al
0x000e9b14:  e6 70                    outb     %al, $0x70
0x000e9b16:  e4 71                    inb      $0x71, %al
0x000e9b18:  89 c2                    movl     %eax, %edx
0x000e9b1a:  c1 e2 18                 shll     $0x18, %edx
0x000e9b1d:  0f b6 c1                 movzbl   %cl, %eax
0x000e9b20:  c1 e0 10                 shll     $0x10, %eax
0x000e9b23:  09 c2                    orl      %eax, %edx
0x000e9b25:  74 08                    je       0xe9b2f

----------------
IN: 
0x000e9b27:  81 c2 00 00 00 01        addl     $0x1000000, %edx
0x000e9b2d:  eb 22                    jmp      0xe9b51

----------------
IN: 
0x000e9b51:  89 15 10 c0 0e 00        movl     %edx, 0xec010
0x000e9b57:  c7 44 24 08 01 00 00 00  movl     $1, 8(%esp)
0x000e9b5f:  89 14 24                 movl     %edx, (%esp)
0x000e9b62:  c7 44 24 04 00 00 00 00  movl     $0, 4(%esp)
0x000e9b6a:  31 c0                    xorl     %eax, %eax
0x000e9b6c:  31 d2                    xorl     %edx, %edx
0x000e9b6e:  e8 52 fc fe ff           calll    0xd97c5

----------------
IN: 
0x000d97c5:  57                       pushl    %edi
0x000d97c6:  56                       pushl    %esi
0x000d97c7:  53                       pushl    %ebx
0x000d97c8:  8b 5c 24 10              movl     0x10(%esp), %ebx
0x000d97cc:  8b 4c 24 14              movl     0x14(%esp), %ecx
0x000d97d0:  89 cf                    movl     %ecx, %edi
0x000d97d2:  09 df                    orl      %ebx, %edi
0x000d97d4:  74 08                    je       0xd97de

----------------
IN: 
0x000d97d6:  5b                       popl     %ebx
0x000d97d7:  5e                       popl     %esi
0x000d97d8:  5f                       popl     %edi
0x000d97d9:  e9 1c fe ff ff           jmp      0xd95fa

----------------
IN: 
0x000d95fa:  55                       pushl    %ebp
0x000d95fb:  57                       pushl    %edi
0x000d95fc:  56                       pushl    %esi
0x000d95fd:  53                       pushl    %ebx
0x000d95fe:  83 ec 34                 subl     $0x34, %esp
0x000d9601:  89 44 24 14              movl     %eax, 0x14(%esp)
0x000d9605:  89 54 24 18              movl     %edx, 0x18(%esp)
0x000d9609:  8b 5c 24 48              movl     0x48(%esp), %ebx
0x000d960d:  8b 74 24 4c              movl     0x4c(%esp), %esi
0x000d9611:  89 f7                    movl     %esi, %edi
0x000d9613:  89 de                    movl     %ebx, %esi
0x000d9615:  89 5c 24 24              movl     %ebx, 0x24(%esp)
0x000d9619:  89 7c 24 28              movl     %edi, 0x28(%esp)
0x000d961d:  8b 5c 24 50              movl     0x50(%esp), %ebx
0x000d9621:  89 5c 24 2c              movl     %ebx, 0x2c(%esp)
0x000d9625:  01 f0                    addl     %esi, %eax
0x000d9627:  11 fa                    adcl     %edi, %edx
0x000d9629:  89 44 24 0c              movl     %eax, 0xc(%esp)
0x000d962d:  89 54 24 10              movl     %edx, 0x10(%esp)
0x000d9631:  8b 15 84 5c 0f 00        movl     0xf5c84, %edx
0x000d9637:  b8 88 5c 0f 00           movl     $0xf5c88, %eax
0x000d963c:  31 f6                    xorl     %esi, %esi
0x000d963e:  39 d6                    cmpl     %edx, %esi
0x000d9640:  0f 8d cd 00 00 00        jge      0xd9713

----------------
IN: 
0x000d9713:  6b de 14                 imull    $0x14, %esi, %ebx
0x000d9716:  3b 35 84 5c 0f 00        cmpl     0xf5c84, %esi
0x000d971c:  7d 6c                    jge      0xd978a

----------------
IN: 
0x000d978a:  8b 44 24 2c              movl     0x2c(%esp), %eax
0x000d978e:  83 f8 ff                 cmpl     $0xff, %eax
0x000d9791:  74 2a                    je       0xd97bd

----------------
IN: 
0x000d9793:  89 44 24 50              movl     %eax, 0x50(%esp)
0x000d9797:  8b 44 24 24              movl     0x24(%esp), %eax
0x000d979b:  8b 54 24 28              movl     0x28(%esp), %edx
0x000d979f:  89 44 24 48              movl     %eax, 0x48(%esp)
0x000d97a3:  89 54 24 4c              movl     %edx, 0x4c(%esp)
0x000d97a7:  8b 54 24 14              movl     0x14(%esp), %edx
0x000d97ab:  8b 4c 24 18              movl     0x18(%esp), %ecx
0x000d97af:  89 f0                    movl     %esi, %eax
0x000d97b1:  83 c4 34                 addl     $0x34, %esp
0x000d97b4:  5b                       popl     %ebx
0x000d97b5:  5e                       popl     %esi
0x000d97b6:  5f                       popl     %edi
0x000d97b7:  5d                       popl     %ebp
0x000d97b8:  e9 a9 fd ff ff           jmp      0xd9566

----------------
IN: 
0x000d9566:  55                       pushl    %ebp
0x000d9567:  57                       pushl    %edi
0x000d9568:  56                       pushl    %esi
0x000d9569:  53                       pushl    %ebx
0x000d956a:  83 ec 0c                 subl     $0xc, %esp
0x000d956d:  89 14 24                 movl     %edx, (%esp)
0x000d9570:  89 4c 24 04              movl     %ecx, 4(%esp)
0x000d9574:  8b 7c 24 20              movl     0x20(%esp), %edi
0x000d9578:  8b 6c 24 24              movl     0x24(%esp), %ebp
0x000d957c:  8b 74 24 28              movl     0x28(%esp), %esi
0x000d9580:  89 74 24 08              movl     %esi, 8(%esp)
0x000d9584:  8b 0d 84 5c 0f 00        movl     0xf5c84, %ecx
0x000d958a:  83 f9 1f                 cmpl     $0x1f, %ecx
0x000d958d:  7e 16                    jle      0xd95a5

----------------
IN: 
0x000d95a5:  6b f0 14                 imull    $0x14, %eax, %esi
0x000d95a8:  8d 9e 88 5c 0f 00        leal     0xf5c88(%esi), %ebx
0x000d95ae:  29 c1                    subl     %eax, %ecx
0x000d95b0:  6b c9 14                 imull    $0x14, %ecx, %ecx
0x000d95b3:  40                       incl     %eax
0x000d95b4:  6b c0 14                 imull    $0x14, %eax, %eax
0x000d95b7:  05 88 5c 0f 00           addl     $0xf5c88, %eax
0x000d95bc:  89 da                    movl     %ebx, %edx
0x000d95be:  e8 1f ed ff ff           calll    0xd82e2

----------------
IN: 
0x000d82e2:  55                       pushl    %ebp
0x000d82e3:  57                       pushl    %edi
0x000d82e4:  56                       pushl    %esi
0x000d82e5:  53                       pushl    %ebx
0x000d82e6:  39 c2                    cmpl     %eax, %edx
0x000d82e8:  72 08                    jb       0xd82f2

----------------
IN: 
0x000d82f2:  8d 59 ff                 leal     -1(%ecx), %ebx
0x000d82f5:  8d 2c 18                 leal     (%eax, %ebx), %ebp
0x000d82f8:  01 da                    addl     %ebx, %edx
0x000d82fa:  89 cb                    movl     %ecx, %ebx
0x000d82fc:  89 ce                    movl     %ecx, %esi
0x000d82fe:  f7 de                    negl     %esi
0x000d8300:  01 f2                    addl     %esi, %edx
0x000d8302:  4b                       decl     %ebx
0x000d8303:  83 fb ff                 cmpl     $0xff, %ebx
0x000d8306:  74 0e                    je       0xd8316

----------------
IN: 
0x000d8316:  89 e8                    movl     %ebp, %eax
0x000d8318:  29 c8                    subl     %ecx, %eax
0x000d831a:  5b                       popl     %ebx
0x000d831b:  5e                       popl     %esi
0x000d831c:  5f                       popl     %edi
0x000d831d:  5d                       popl     %ebp
0x000d831e:  c3                       retl     

----------------
IN: 
0x000d95c3:  ff 05 84 5c 0f 00        incl     0xf5c84
0x000d95c9:  8b 04 24                 movl     (%esp), %eax
0x000d95cc:  8b 54 24 04              movl     4(%esp), %edx
0x000d95d0:  89 86 88 5c 0f 00        movl     %eax, 0xf5c88(%esi)
0x000d95d6:  89 96 8c 5c 0f 00        movl     %edx, 0xf5c8c(%esi)
0x000d95dc:  89 be 90 5c 0f 00        movl     %edi, 0xf5c90(%esi)
0x000d95e2:  89 ae 94 5c 0f 00        movl     %ebp, 0xf5c94(%esi)
0x000d95e8:  8b 44 24 08              movl     8(%esp), %eax
0x000d95ec:  89 86 98 5c 0f 00        movl     %eax, 0xf5c98(%esi)
0x000d95f2:  83 c4 0c                 addl     $0xc, %esp
0x000d95f5:  5b                       popl     %ebx
0x000d95f6:  5e                       popl     %esi
0x000d95f7:  5f                       popl     %edi
0x000d95f8:  5d                       popl     %ebp
0x000d95f9:  c3                       retl     

----------------
IN: 
0x000e9b73:  c7 44 24 08 02 00 00 00  movl     $2, 8(%esp)
0x000e9b7b:  c7 04 24 00 00 04 00     movl     $0x40000, (%esp)
0x000e9b82:  c7 44 24 04 00 00 00 00  movl     $0, 4(%esp)
0x000e9b8a:  b8 00 00 fc ff           movl     $0xfffc0000, %eax
0x000e9b8f:  31 d2                    xorl     %edx, %edx
0x000e9b91:  e8 64 fa fe ff           calll    0xd95fa

----------------
IN: 
0x000d9646:  89 44 24 30              movl     %eax, 0x30(%esp)
0x000d964a:  8b 08                    movl     (%eax), %ecx
0x000d964c:  8b 58 04                 movl     4(%eax), %ebx
0x000d964f:  89 cf                    movl     %ecx, %edi
0x000d9651:  89 dd                    movl     %ebx, %ebp
0x000d9653:  03 78 08                 addl     8(%eax), %edi
0x000d9656:  13 68 0c                 adcl     0xc(%eax), %ebp
0x000d9659:  89 7c 24 1c              movl     %edi, 0x1c(%esp)
0x000d965d:  89 6c 24 20              movl     %ebp, 0x20(%esp)
0x000d9661:  83 c0 14                 addl     $0x14, %eax
0x000d9664:  39 6c 24 18              cmpl     %ebp, 0x18(%esp)
0x000d9668:  72 0f                    jb       0xd9679

----------------
IN: 
0x000d966a:  77 0a                    ja       0xd9676

----------------
IN: 
0x000d966c:  8b 7c 24 1c              movl     0x1c(%esp), %edi
0x000d9670:  39 7c 24 14              cmpl     %edi, 0x14(%esp)
0x000d9674:  76 03                    jbe      0xd9679

----------------
IN: 
0x000d9676:  46                       incl     %esi
0x000d9677:  eb c5                    jmp      0xd963e

----------------
IN: 
0x000d963e:  39 d6                    cmpl     %edx, %esi
0x000d9640:  0f 8d cd 00 00 00        jge      0xd9713

----------------
IN: 
0x000e9b96:  a1 10 c0 0e 00           movl     0xec010, %eax
0x000e9b9b:  89 44 24 04              movl     %eax, 4(%esp)
0x000e9b9f:  c7 04 24 dd 4c 0f 00     movl     $0xf4cdd, (%esp)
0x000e9ba6:  e8 1a 47 00 00           calll    0xee2c5

----------------
IN: 
0x000edb41:  8b 44 24 04              movl     4(%esp), %eax
0x000edb45:  8d 70 01                 leal     1(%eax), %esi
0x000edb48:  c6 44 24 0b 20           movb     $0x20, 0xb(%esp)
0x000edb4d:  31 c9                    xorl     %ecx, %ecx
0x000edb4f:  0f be 06                 movsbl   (%esi), %eax
0x000edb52:  8d 50 d0                 leal     -0x30(%eax), %edx
0x000edb55:  80 fa 09                 cmpb     $9, %dl
0x000edb58:  77 1b                    ja       0xedb75

----------------
IN: 
0x000edb5a:  3c 30                    cmpb     $0x30, %al
0x000edb5c:  75 04                    jne      0xedb62

----------------
IN: 
0x000edb5e:  85 c9                    testl    %ecx, %ecx
0x000edb60:  74 09                    je       0xedb6b

----------------
IN: 
0x000edb6b:  c6 44 24 0b 30           movb     $0x30, 0xb(%esp)
0x000edb70:  31 c9                    xorl     %ecx, %ecx
0x000edb72:  46                       incl     %esi
0x000edb73:  eb da                    jmp      0xedb4f

----------------
IN: 
0x000edb4f:  0f be 06                 movsbl   (%esi), %eax
0x000edb52:  8d 50 d0                 leal     -0x30(%eax), %edx
0x000edb55:  80 fa 09                 cmpb     $9, %dl
0x000edb58:  77 1b                    ja       0xedb75

----------------
IN: 
0x000edb62:  6b d1 0a                 imull    $0xa, %ecx, %edx
0x000edb65:  8d 4c 02 d0              leal     -0x30(%edx, %eax), %ecx
0x000edb69:  eb 07                    jmp      0xedb72

----------------
IN: 
0x000edb72:  46                       incl     %esi
0x000edb73:  eb da                    jmp      0xedb4f

----------------
IN: 
0x000edb75:  89 f2                    movl     %esi, %edx
0x000edb77:  31 ff                    xorl     %edi, %edi
0x000edb79:  3c 6c                    cmpb     $0x6c, %al
0x000edb7b:  75 15                    jne      0xedb92

----------------
IN: 
0x000edb92:  3c 64                    cmpb     $0x64, %al
0x000edb94:  74 51                    je       0xedbe7

----------------
IN: 
0x000edb96:  7f 1f                    jg       0xedbb7

----------------
IN: 
0x000edbb7:  3c 73                    cmpb     $0x73, %al
0x000edbb9:  0f 84 7f 01 00 00        je       0xedd3e

----------------
IN: 
0x000edbbf:  7f 09                    jg       0xedbca

----------------
IN: 
0x000edbca:  3c 75                    cmpb     $0x75, %al
0x000edbcc:  74 48                    je       0xedc16

----------------
IN: 
0x000edbce:  3c 78                    cmpb     $0x78, %al
0x000edbd0:  0f 84 e2 00 00 00        je       0xedcb8

----------------
IN: 
0x000edcb8:  8b 45 00                 movl     (%ebp), %eax
0x000edcbb:  89 44 24 04              movl     %eax, 4(%esp)
0x000edcbf:  89 f8                    movl     %edi, %eax
0x000edcc1:  84 c0                    testb    %al, %al
0x000edcc3:  0f be 44 24 0b           movsbl   0xb(%esp), %eax
0x000edcc8:  74 29                    je       0xedcf3

----------------
IN: 
0x000edcf3:  8d 7d 04                 leal     4(%ebp), %edi
0x000edcf6:  89 04 24                 movl     %eax, (%esp)
0x000edcf9:  8b 54 24 04              movl     4(%esp), %edx
0x000edcfd:  89 d8                    movl     %ebx, %eax
0x000edcff:  e8 47 e4 ff ff           calll    0xec14b

----------------
IN: 
0x000ec14b:  55                       pushl    %ebp
0x000ec14c:  57                       pushl    %edi
0x000ec14d:  56                       pushl    %esi
0x000ec14e:  53                       pushl    %ebx
0x000ec14f:  56                       pushl    %esi
0x000ec150:  89 c6                    movl     %eax, %esi
0x000ec152:  89 d7                    movl     %edx, %edi
0x000ec154:  8a 54 24 18              movb     0x18(%esp), %dl
0x000ec158:  89 f8                    movl     %edi, %eax
0x000ec15a:  bb 01 00 00 00           movl     $1, %ebx
0x000ec15f:  c1 e8 04                 shrl     $4, %eax
0x000ec162:  74 03                    je       0xec167

----------------
IN: 
0x000ec164:  43                       incl     %ebx
0x000ec165:  eb f8                    jmp      0xec15f

----------------
IN: 
0x000ec15f:  c1 e8 04                 shrl     $4, %eax
0x000ec162:  74 03                    je       0xec167

----------------
IN: 
0x000ec167:  29 d9                    subl     %ebx, %ecx
0x000ec169:  89 cd                    movl     %ecx, %ebp
0x000ec16b:  0f be c2                 movsbl   %dl, %eax
0x000ec16e:  89 04 24                 movl     %eax, (%esp)
0x000ec171:  85 ed                    testl    %ebp, %ebp
0x000ec173:  7e 0d                    jle      0xec182

----------------
IN: 
0x000ec175:  8b 14 24                 movl     (%esp), %edx
0x000ec178:  89 f0                    movl     %esi, %eax
0x000ec17a:  e8 2e ff ff ff           calll    0xec0ad

----------------
IN: 
0x000ec17f:  4d                       decl     %ebp
0x000ec180:  eb ef                    jmp      0xec171

----------------
IN: 
0x000ec171:  85 ed                    testl    %ebp, %ebp
0x000ec173:  7e 0d                    jle      0xec182

----------------
IN: 
0x000ec182:  89 d9                    movl     %ebx, %ecx
0x000ec184:  89 fa                    movl     %edi, %edx
0x000ec186:  89 f0                    movl     %esi, %eax
0x000ec188:  5b                       popl     %ebx
0x000ec189:  5b                       popl     %ebx
0x000ec18a:  5e                       popl     %esi
0x000ec18b:  5f                       popl     %edi
0x000ec18c:  5d                       popl     %ebp
0x000ec18d:  e9 36 ff ff ff           jmp      0xec0c8

----------------
IN: 
0x000ec0c8:  56                       pushl    %esi
0x000ec0c9:  53                       pushl    %ebx
0x000ec0ca:  89 c3                    movl     %eax, %ebx
0x000ec0cc:  89 d6                    movl     %edx, %esi
0x000ec0ce:  49                       decl     %ecx
0x000ec0cf:  83 f9 06                 cmpl     $6, %ecx
0x000ec0d2:  77 07                    ja       0xec0db

----------------
IN: 
0x000ec0d4:  ff 24 8d 40 4e 0f 00     jmpl     *0xf4e40(, %ecx, 4)

----------------
IN: 
0x000ec0e3:  89 f2                    movl     %esi, %edx
0x000ec0e5:  c1 ea 18                 shrl     $0x18, %edx
0x000ec0e8:  83 e2 0f                 andl     $0xf, %edx
0x000ec0eb:  89 d8                    movl     %ebx, %eax
0x000ec0ed:  e8 c3 ff ff ff           calll    0xec0b5

----------------
IN: 
0x000ec0b5:  8d 4a 57                 leal     0x57(%edx), %ecx
0x000ec0b8:  83 fa 09                 cmpl     $9, %edx
0x000ec0bb:  77 03                    ja       0xec0c0

----------------
IN: 
0x000ec0bd:  8d 4a 30                 leal     0x30(%edx), %ecx
0x000ec0c0:  0f be d1                 movsbl   %cl, %edx
0x000ec0c3:  e9 e5 ff ff ff           jmp      0xec0ad

----------------
IN: 
0x000ec0f2:  89 f2                    movl     %esi, %edx
0x000ec0f4:  c1 ea 14                 shrl     $0x14, %edx
0x000ec0f7:  83 e2 0f                 andl     $0xf, %edx
0x000ec0fa:  89 d8                    movl     %ebx, %eax
0x000ec0fc:  e8 b4 ff ff ff           calll    0xec0b5

----------------
IN: 
0x000ec101:  89 f2                    movl     %esi, %edx
0x000ec103:  c1 ea 10                 shrl     $0x10, %edx
0x000ec106:  83 e2 0f                 andl     $0xf, %edx
0x000ec109:  89 d8                    movl     %ebx, %eax
0x000ec10b:  e8 a5 ff ff ff           calll    0xec0b5

----------------
IN: 
0x000ec110:  89 f2                    movl     %esi, %edx
0x000ec112:  c1 ea 0c                 shrl     $0xc, %edx
0x000ec115:  83 e2 0f                 andl     $0xf, %edx
0x000ec118:  89 d8                    movl     %ebx, %eax
0x000ec11a:  e8 96 ff ff ff           calll    0xec0b5

----------------
IN: 
0x000ec11f:  89 f2                    movl     %esi, %edx
0x000ec121:  c1 ea 08                 shrl     $8, %edx
0x000ec124:  83 e2 0f                 andl     $0xf, %edx
0x000ec127:  89 d8                    movl     %ebx, %eax
0x000ec129:  e8 87 ff ff ff           calll    0xec0b5

----------------
IN: 
0x000ec12e:  89 f2                    movl     %esi, %edx
0x000ec130:  c1 ea 04                 shrl     $4, %edx
0x000ec133:  83 e2 0f                 andl     $0xf, %edx
0x000ec136:  89 d8                    movl     %ebx, %eax
0x000ec138:  e8 78 ff ff ff           calll    0xec0b5

----------------
IN: 
0x000ec13d:  83 e6 0f                 andl     $0xf, %esi
0x000ec140:  89 f2                    movl     %esi, %edx
0x000ec142:  89 d8                    movl     %ebx, %eax
0x000ec144:  5b                       popl     %ebx
0x000ec145:  5e                       popl     %esi
0x000ec146:  e9 6a ff ff ff           jmp      0xec0b5

----------------
IN: 
0x000edd04:  eb 62                    jmp      0xedd68

----------------
IN: 
0x000edd68:  89 fd                    movl     %edi, %ebp
0x000edd6a:  8d 46 01                 leal     1(%esi), %eax
0x000edd6d:  89 44 24 04              movl     %eax, 4(%esp)
0x000edd71:  e9 b3 fd ff ff           jmp      0xedb29

----------------
IN: 
0x000e9bab:  c7 44 24 08 ff ff ff ff  movl     $0xffffffff, 8(%esp)
0x000e9bb3:  c7 04 24 00 00 05 00     movl     $0x50000, (%esp)
0x000e9bba:  c7 44 24 04 00 00 00 00  movl     $0, 4(%esp)
0x000e9bc2:  b8 00 00 0a 00           movl     $0xa0000, %eax
0x000e9bc7:  31 d2                    xorl     %edx, %edx
0x000e9bc9:  e8 2c fa fe ff           calll    0xd95fa

----------------
IN: 
0x000d9679:  39 5c 24 18              cmpl     %ebx, 0x18(%esp)
0x000d967d:  0f 82 90 00 00 00        jb       0xd9713

----------------
IN: 
0x000d9683:  77 0a                    ja       0xd968f

----------------
IN: 
0x000d9685:  39 4c 24 14              cmpl     %ecx, 0x14(%esp)
0x000d9689:  0f 86 84 00 00 00        jbe      0xd9713

----------------
IN: 
0x000d968f:  8b 44 24 30              movl     0x30(%esp), %eax
0x000d9693:  8b 40 10                 movl     0x10(%eax), %eax
0x000d9696:  89 c7                    movl     %eax, %edi
0x000d9698:  39 44 24 2c              cmpl     %eax, 0x2c(%esp)
0x000d969c:  75 1e                    jne      0xd96bc

----------------
IN: 
0x000d96bc:  8b 44 24 14              movl     0x14(%esp), %eax
0x000d96c0:  8b 54 24 18              movl     0x18(%esp), %edx
0x000d96c4:  29 c8                    subl     %ecx, %eax
0x000d96c6:  19 da                    sbbl     %ebx, %edx
0x000d96c8:  8b 5c 24 30              movl     0x30(%esp), %ebx
0x000d96cc:  89 43 08                 movl     %eax, 8(%ebx)
0x000d96cf:  89 53 0c                 movl     %edx, 0xc(%ebx)
0x000d96d2:  46                       incl     %esi
0x000d96d3:  8b 44 24 10              movl     0x10(%esp), %eax
0x000d96d7:  39 44 24 20              cmpl     %eax, 0x20(%esp)
0x000d96db:  72 36                    jb       0xd9713

----------------
IN: 
0x000d96dd:  77 0a                    ja       0xd96e9

----------------
IN: 
0x000d96df:  8b 44 24 0c              movl     0xc(%esp), %eax
0x000d96e3:  39 44 24 1c              cmpl     %eax, 0x1c(%esp)
0x000d96e7:  76 2a                    jbe      0xd9713

----------------
IN: 
0x000d96e9:  89 7c 24 08              movl     %edi, 8(%esp)
0x000d96ed:  8b 44 24 1c              movl     0x1c(%esp), %eax
0x000d96f1:  8b 54 24 20              movl     0x20(%esp), %edx
0x000d96f5:  8b 4c 24 0c              movl     0xc(%esp), %ecx
0x000d96f9:  8b 5c 24 10              movl     0x10(%esp), %ebx
0x000d96fd:  29 c8                    subl     %ecx, %eax
0x000d96ff:  19 da                    sbbl     %ebx, %edx
0x000d9701:  89 04 24                 movl     %eax, (%esp)
0x000d9704:  89 54 24 04              movl     %edx, 4(%esp)
0x000d9708:  89 ca                    movl     %ecx, %edx
0x000d970a:  89 d9                    movl     %ebx, %ecx
0x000d970c:  89 f0                    movl     %esi, %eax
0x000d970e:  e8 53 fe ff ff           calll    0xd9566

----------------
IN: 
0x000d8308:  8d 7c 35 00              leal     (%ebp, %esi), %edi
0x000d830c:  8a 44 1a 01              movb     1(%edx, %ebx), %al
0x000d8310:  88 44 1f 01              movb     %al, 1(%edi, %ebx)
0x000d8314:  eb ec                    jmp      0xd8302

----------------
IN: 
0x000d8302:  4b                       decl     %ebx
0x000d8303:  83 fb ff                 cmpl     $0xff, %ebx
0x000d8306:  74 0e                    je       0xd8316

----------------
IN: 
0x000d971e:  8d 8b 88 5c 0f 00        leal     0xf5c88(%ebx), %ecx
0x000d9724:  8b 83 88 5c 0f 00        movl     0xf5c88(%ebx), %eax
0x000d972a:  8b 93 8c 5c 0f 00        movl     0xf5c8c(%ebx), %edx
0x000d9730:  39 54 24 10              cmpl     %edx, 0x10(%esp)
0x000d9734:  72 54                    jb       0xd978a

----------------
IN: 
0x000d9736:  77 06                    ja       0xd973e

----------------
IN: 
0x000d9738:  39 44 24 0c              cmpl     %eax, 0xc(%esp)
0x000d973c:  72 4c                    jb       0xd978a

----------------
IN: 
0x000d973e:  03 41 08                 addl     8(%ecx), %eax
0x000d9741:  13 51 0c                 adcl     0xc(%ecx), %edx
0x000d9744:  39 54 24 10              cmpl     %edx, 0x10(%esp)
0x000d9748:  72 11                    jb       0xd975b

----------------
IN: 
0x000d974a:  77 06                    ja       0xd9752

----------------
IN: 
0x000d974c:  39 44 24 0c              cmpl     %eax, 0xc(%esp)
0x000d9750:  72 09                    jb       0xd975b

----------------
IN: 
0x000d975b:  8b 7c 24 0c              movl     0xc(%esp), %edi
0x000d975f:  8b 6c 24 10              movl     0x10(%esp), %ebp
0x000d9763:  89 39                    movl     %edi, (%ecx)
0x000d9765:  89 69 04                 movl     %ebp, 4(%ecx)
0x000d9768:  29 f8                    subl     %edi, %eax
0x000d976a:  19 ea                    sbbl     %ebp, %edx
0x000d976c:  89 41 08                 movl     %eax, 8(%ecx)
0x000d976f:  89 51 0c                 movl     %edx, 0xc(%ecx)
0x000d9772:  8b 5c 24 2c              movl     0x2c(%esp), %ebx
0x000d9776:  3b 59 10                 cmpl     0x10(%ecx), %ebx
0x000d9779:  75 0f                    jne      0xd978a

----------------
IN: 
0x000d97bd:  83 c4 34                 addl     $0x34, %esp
0x000d97c0:  5b                       popl     %ebx
0x000d97c1:  5e                       popl     %esi
0x000d97c2:  5f                       popl     %edi
0x000d97c3:  5d                       popl     %ebp
0x000d97c4:  c3                       retl     

----------------
IN: 
0x000e9bce:  c7 44 24 08 02 00 00 00  movl     $2, 8(%esp)
0x000e9bd6:  c7 04 24 00 00 01 00     movl     $0x10000, (%esp)
0x000e9bdd:  c7 44 24 04 00 00 00 00  movl     $0, 4(%esp)
0x000e9be5:  b8 00 00 0f 00           movl     $0xf0000, %eax
0x000e9bea:  31 d2                    xorl     %edx, %edx
0x000e9bec:  e8 09 fa fe ff           calll    0xd95fa

----------------
IN: 
0x000e9bf1:  8b 35 84 5c 0f 00        movl     0xf5c84, %esi
0x000e9bf7:  8d 46 ff                 leal     -1(%esi), %eax
0x000e9bfa:  89 44 24 10              movl     %eax, 0x10(%esp)
0x000e9bfe:  6b f6 14                 imull    $0x14, %esi, %esi
0x000e9c01:  81 c6 88 5c 0f 00        addl     $0xf5c88, %esi
0x000e9c07:  31 db                    xorl     %ebx, %ebx
0x000e9c09:  83 7c 24 10 00           cmpl     $0, 0x10(%esp)
0x000e9c0e:  78 1d                    js       0xe9c2d

----------------
IN: 
0x000e9c10:  8b 46 ec                 movl     -0x14(%esi), %eax
0x000e9c13:  8b 56 f0                 movl     -0x10(%esi), %edx
0x000e9c16:  89 c7                    movl     %eax, %edi
0x000e9c18:  89 d5                    movl     %edx, %ebp
0x000e9c1a:  03 7e f4                 addl     -0xc(%esi), %edi
0x000e9c1d:  13 6e f8                 adcl     -8(%esi), %ebp
0x000e9c20:  83 fd 00                 cmpl     $0, %ebp
0x000e9c23:  77 54                    ja       0xe9c79

----------------
IN: 
0x000e9c79:  83 7e fc 01              cmpl     $1, -4(%esi)
0x000e9c7d:  75 2c                    jne      0xe9cab

----------------
IN: 
0x000e9cab:  ff 4c 24 10              decl     0x10(%esp)
0x000e9caf:  83 ee 14                 subl     $0x14, %esi
0x000e9cb2:  e9 52 ff ff ff           jmp      0xe9c09

----------------
IN: 
0x000e9c09:  83 7c 24 10 00           cmpl     $0, 0x10(%esp)
0x000e9c0e:  78 1d                    js       0xe9c2d

----------------
IN: 
0x000e9c25:  81 ff ff ff 0f 00        cmpl     $0xfffff, %edi
0x000e9c2b:  77 4c                    ja       0xe9c79

----------------
IN: 
0x000e9c7f:  83 fd 00                 cmpl     $0, %ebp
0x000e9c82:  77 27                    ja       0xe9cab

----------------
IN: 
0x000e9c84:  89 c2                    movl     %eax, %edx
0x000e9c86:  89 f9                    movl     %edi, %ecx
0x000e9c88:  85 db                    testl    %ebx, %ebx
0x000e9c8a:  75 15                    jne      0xe9ca1

----------------
IN: 
0x000e9c8c:  8d af 00 00 fc ff        leal     -0x40000(%edi), %ebp
0x000e9c92:  83 e5 f0                 andl     $0xfffffff0, %ebp
0x000e9c95:  39 c5                    cmpl     %eax, %ebp
0x000e9c97:  72 08                    jb       0xe9ca1

----------------
IN: 
0x000e9c99:  39 fd                    cmpl     %edi, %ebp
0x000e9c9b:  77 04                    ja       0xe9ca1

----------------
IN: 
0x000e9c9d:  89 eb                    movl     %ebp, %ebx
0x000e9c9f:  89 e9                    movl     %ebp, %ecx
0x000e9ca1:  b8 80 bf 0e 00           movl     $0xebf80, %eax
0x000e9ca6:  e8 c6 fd fe ff           calll    0xd9a71

----------------
IN: 
0x000d9a71:  53                       pushl    %ebx
0x000d9a72:  83 ec 2c                 subl     $0x2c, %esp
0x000d9a75:  8b 18                    movl     (%eax), %ebx
0x000d9a77:  85 db                    testl    %ebx, %ebx
0x000d9a79:  75 39                    jne      0xd9ab4

----------------
IN: 
0x000d9a7b:  c7 44 24 28 ff ff ff ff  movl     $0xffffffff, 0x28(%esp)
0x000d9a83:  89 54 24 1c              movl     %edx, 0x1c(%esp)
0x000d9a87:  89 4c 24 20              movl     %ecx, 0x20(%esp)
0x000d9a8b:  c7 44 24 24 00 00 00 00  movl     $0, 0x24(%esp)
0x000d9a93:  89 c2                    movl     %eax, %edx
0x000d9a95:  8d 44 24 14              leal     0x14(%esp), %eax
0x000d9a99:  e8 a1 db ff ff           calll    0xd763f

----------------
IN: 
0x000d763f:  8b 0a                    movl     (%edx), %ecx
0x000d7641:  89 50 04                 movl     %edx, 4(%eax)
0x000d7644:  89 08                    movl     %ecx, (%eax)
0x000d7646:  85 c9                    testl    %ecx, %ecx
0x000d7648:  74 03                    je       0xd764d

----------------
IN: 
0x000d764d:  89 02                    movl     %eax, (%edx)
0x000d764f:  c3                       retl     

----------------
IN: 
0x000d9a9e:  89 e0                    movl     %esp, %eax
0x000d9aa0:  e8 ba fd ff ff           calll    0xd985f

----------------
IN: 
0x000d985f:  57                       pushl    %edi
0x000d9860:  56                       pushl    %esi
0x000d9861:  53                       pushl    %ebx
0x000d9862:  51                       pushl    %ecx
0x000d9863:  89 c3                    movl     %eax, %ebx
0x000d9865:  89 04 24                 movl     %eax, (%esp)
0x000d9868:  b9 10 00 00 00           movl     $0x10, %ecx
0x000d986d:  ba 2c 00 00 00           movl     $0x2c, %edx
0x000d9872:  b8 80 bf 0e 00           movl     $0xebf80, %eax
0x000d9877:  e8 b7 e0 ff ff           calll    0xd7933

----------------
IN: 
0x000d7933:  55                       pushl    %ebp
0x000d7934:  57                       pushl    %edi
0x000d7935:  56                       pushl    %esi
0x000d7936:  53                       pushl    %ebx
0x000d7937:  8b 7c 24 14              movl     0x14(%esp), %edi
0x000d793b:  8b 18                    movl     (%eax), %ebx
0x000d793d:  f7 d9                    negl     %ecx
0x000d793f:  85 db                    testl    %ebx, %ebx
0x000d7941:  74 35                    je       0xd7978

----------------
IN: 
0x000d7943:  8b 43 0c                 movl     0xc(%ebx), %eax
0x000d7946:  89 c6                    movl     %eax, %esi
0x000d7948:  29 d6                    subl     %edx, %esi
0x000d794a:  21 ce                    andl     %ecx, %esi
0x000d794c:  39 c6                    cmpl     %eax, %esi
0x000d794e:  77 24                    ja       0xd7974

----------------
IN: 
0x000d7950:  8b 6b 10                 movl     0x10(%ebx), %ebp
0x000d7953:  03 6b 08                 addl     8(%ebx), %ebp
0x000d7956:  39 ee                    cmpl     %ebp, %esi
0x000d7958:  72 1a                    jb       0xd7974

----------------
IN: 
0x000d795a:  89 77 08                 movl     %esi, 8(%edi)
0x000d795d:  89 47 0c                 movl     %eax, 0xc(%edi)
0x000d7960:  89 57 10                 movl     %edx, 0x10(%edi)
0x000d7963:  89 73 0c                 movl     %esi, 0xc(%ebx)
0x000d7966:  8b 53 04                 movl     4(%ebx), %edx
0x000d7969:  89 f8                    movl     %edi, %eax
0x000d796b:  e8 cf fc ff ff           calll    0xd763f

----------------
IN: 
0x000d764a:  89 41 04                 movl     %eax, 4(%ecx)
0x000d764d:  89 02                    movl     %eax, (%edx)
0x000d764f:  c3                       retl     

----------------
IN: 
0x000d7970:  89 f0                    movl     %esi, %eax
0x000d7972:  eb 06                    jmp      0xd797a

----------------
IN: 
0x000d797a:  5b                       popl     %ebx
0x000d797b:  5e                       popl     %esi
0x000d797c:  5f                       popl     %edi
0x000d797d:  5d                       popl     %ebp
0x000d797e:  c3                       retl     

----------------
IN: 
0x000d987c:  85 c0                    testl    %eax, %eax
0x000d987e:  75 2b                    jne      0xd98ab

----------------
IN: 
0x000d98ab:  b9 0b 00 00 00           movl     $0xb, %ecx
0x000d98b0:  89 c7                    movl     %eax, %edi
0x000d98b2:  89 de                    movl     %ebx, %esi
0x000d98b4:  f3 a5                    rep movsl (%esi), %es:(%edi)

----------------
IN: 
0x000d98b4:  f3 a5                    rep movsl (%esi), %es:(%edi)

----------------
IN: 
0x000d98b6:  8b 13                    movl     (%ebx), %edx
0x000d98b8:  89 10                    movl     %edx, (%eax)
0x000d98ba:  85 d2                    testl    %edx, %edx
0x000d98bc:  74 03                    je       0xd98c1

----------------
IN: 
0x000d98be:  89 42 04                 movl     %eax, 4(%edx)
0x000d98c1:  8b 53 04                 movl     4(%ebx), %edx
0x000d98c4:  89 50 04                 movl     %edx, 4(%eax)
0x000d98c7:  89 02                    movl     %eax, (%edx)
0x000d98c9:  8d 48 14                 leal     0x14(%eax), %ecx
0x000d98cc:  8b 53 14                 movl     0x14(%ebx), %edx
0x000d98cf:  89 50 14                 movl     %edx, 0x14(%eax)
0x000d98d2:  85 d2                    testl    %edx, %edx
0x000d98d4:  74 03                    je       0xd98d9

----------------
IN: 
0x000d98d9:  8b 53 18                 movl     0x18(%ebx), %edx
0x000d98dc:  89 50 18                 movl     %edx, 0x18(%eax)
0x000d98df:  89 0a                    movl     %ecx, (%edx)
0x000d98e1:  5a                       popl     %edx
0x000d98e2:  5b                       popl     %ebx
0x000d98e3:  5e                       popl     %esi
0x000d98e4:  5f                       popl     %edi
0x000d98e5:  c3                       retl     

----------------
IN: 
0x000d9aa5:  85 c0                    testl    %eax, %eax
0x000d9aa7:  75 14                    jne      0xd9abd

----------------
IN: 
0x000d9abd:  83 c4 2c                 addl     $0x2c, %esp
0x000d9ac0:  5b                       popl     %ebx
0x000d9ac1:  c3                       retl     

----------------
IN: 
0x000e9c2d:  b9 00 00 09 00           movl     $0x90000, %ecx
0x000e9c32:  ba 00 70 00 00           movl     $0x7000, %edx
0x000e9c37:  b8 84 bf 0e 00           movl     $0xebf84, %eax
0x000e9c3c:  e8 30 fe fe ff           calll    0xd9a71

----------------
IN: 
0x000d7974:  8b 1b                    movl     (%ebx), %ebx
0x000d7976:  eb c7                    jmp      0xd793f

----------------
IN: 
0x000d793f:  85 db                    testl    %ebx, %ebx
0x000d7941:  74 35                    je       0xd7978

----------------
IN: 
0x000e9c41:  85 db                    testl    %ebx, %ebx
0x000e9c43:  74 72                    je       0xe9cb7

----------------
IN: 
0x000e9c45:  8d 8b 00 00 04 00        leal     0x40000(%ebx), %ecx
0x000e9c4b:  89 da                    movl     %ebx, %edx
0x000e9c4d:  b8 8c bf 0e 00           movl     $0xebf8c, %eax
0x000e9c52:  e8 1a fe fe ff           calll    0xd9a71

----------------
IN: 
0x000e9c57:  89 d8                    movl     %ebx, %eax
0x000e9c59:  31 d2                    xorl     %edx, %edx
0x000e9c5b:  c7 44 24 08 02 00 00 00  movl     $2, 8(%esp)
0x000e9c63:  c7 04 24 00 00 04 00     movl     $0x40000, (%esp)
0x000e9c6a:  c7 44 24 04 00 00 00 00  movl     $0, 4(%esp)
0x000e9c72:  e8 83 f9 fe ff           calll    0xd95fa

----------------
IN: 
0x000e9c77:  eb 3e                    jmp      0xe9cb7

----------------
IN: 
0x000e9cb7:  bb 40 c0 0e 00           movl     $0xec040, %ebx
0x000e9cbc:  81 eb 30 76 0d 00        subl     $0xd7630, %ebx
0x000e9cc2:  89 da                    movl     %ebx, %edx
0x000e9cc4:  b8 10 00 00 00           movl     $0x10, %eax
0x000e9cc9:  e8 f5 fc fe ff           calll    0xd99c3

----------------
IN: 
0x000d99c3:  56                       pushl    %esi
0x000d99c4:  53                       pushl    %ebx
0x000d99c5:  89 c6                    movl     %eax, %esi
0x000d99c7:  89 d3                    movl     %edx, %ebx
0x000d99c9:  89 c1                    movl     %eax, %ecx
0x000d99cb:  b8 80 bf 0e 00           movl     $0xebf80, %eax
0x000d99d0:  e8 50 ff ff ff           calll    0xd9925

----------------
IN: 
0x000d9925:  85 d2                    testl    %edx, %edx
0x000d9927:  74 05                    je       0xd992e

----------------
IN: 
0x000d9929:  e9 b8 ff ff ff           jmp      0xd98e6

----------------
IN: 
0x000d98e6:  56                       pushl    %esi
0x000d98e7:  53                       pushl    %ebx
0x000d98e8:  83 ec 30                 subl     $0x30, %esp
0x000d98eb:  c7 44 24 2c ff ff ff ff  movl     $0xffffffff, 0x2c(%esp)
0x000d98f3:  8d 5c 24 18              leal     0x18(%esp), %ebx
0x000d98f7:  89 1c 24                 movl     %ebx, (%esp)
0x000d98fa:  e8 34 e0 ff ff           calll    0xd7933

----------------
IN: 
0x000d98ff:  89 c6                    movl     %eax, %esi
0x000d9901:  85 c0                    testl    %eax, %eax
0x000d9903:  74 16                    je       0xd991b

----------------
IN: 
0x000d9905:  8d 44 24 04              leal     4(%esp), %eax
0x000d9909:  e8 51 ff ff ff           calll    0xd985f

----------------
IN: 
0x000d98d6:  89 4a 04                 movl     %ecx, 4(%edx)
0x000d98d9:  8b 53 18                 movl     0x18(%ebx), %edx
0x000d98dc:  89 50 18                 movl     %edx, 0x18(%eax)
0x000d98df:  89 0a                    movl     %ecx, (%edx)
0x000d98e1:  5a                       popl     %edx
0x000d98e2:  5b                       popl     %ebx
0x000d98e3:  5e                       popl     %esi
0x000d98e4:  5f                       popl     %edi
0x000d98e5:  c3                       retl     

----------------
IN: 
0x000d990e:  89 f2                    movl     %esi, %edx
0x000d9910:  85 c0                    testl    %eax, %eax
0x000d9912:  75 09                    jne      0xd991d

----------------
IN: 
0x000d991d:  89 d0                    movl     %edx, %eax
0x000d991f:  83 c4 30                 addl     $0x30, %esp
0x000d9922:  5b                       popl     %ebx
0x000d9923:  5e                       popl     %esi
0x000d9924:  c3                       retl     

----------------
IN: 
0x000d99d5:  85 c0                    testl    %eax, %eax
0x000d99d7:  75 10                    jne      0xd99e9

----------------
IN: 
0x000d99e9:  5b                       popl     %ebx
0x000d99ea:  5e                       popl     %esi
0x000d99eb:  c3                       retl     

----------------
IN: 
0x000e9cce:  89 c5                    movl     %eax, %ebp
0x000e9cd0:  85 c0                    testl    %eax, %eax
0x000e9cd2:  75 0c                    jne      0xe9ce0

----------------
IN: 
0x000e9ce0:  89 5c 24 0c              movl     %ebx, 0xc(%esp)
0x000e9ce4:  89 44 24 08              movl     %eax, 8(%esp)
0x000e9ce8:  c7 44 24 04 30 76 0d 00  movl     $0xd7630, 4(%esp)
0x000e9cf0:  c7 04 24 14 4d 0f 00     movl     $0xf4d14, (%esp)
0x000e9cf7:  e8 c9 45 00 00           calll    0xee2c5

----------------
IN: 
0x000edbc1:  3c 70                    cmpb     $0x70, %al
0x000edbc3:  74 6e                    je       0xedc33

----------------
IN: 
0x000edc33:  8d 7d 04                 leal     4(%ebp), %edi
0x000edc36:  8b 6d 00                 movl     (%ebp), %ebp
0x000edc39:  80 7e 01 50              cmpb     $0x50, 1(%esi)
0x000edc3d:  75 58                    jne      0xedc97

----------------
IN: 
0x000edc97:  ba 30 00 00 00           movl     $0x30, %edx
0x000edc9c:  89 d8                    movl     %ebx, %eax
0x000edc9e:  e8 0a e4 ff ff           calll    0xec0ad

----------------
IN: 
0x000edca3:  ba 78 00 00 00           movl     $0x78, %edx
0x000edca8:  89 d8                    movl     %ebx, %eax
0x000edcaa:  e8 fe e3 ff ff           calll    0xec0ad

----------------
IN: 
0x000edcaf:  b9 08 00 00 00           movl     $8, %ecx
0x000edcb4:  89 ea                    movl     %ebp, %edx
0x000edcb6:  eb 32                    jmp      0xedcea

----------------
IN: 
0x000edcea:  89 d8                    movl     %ebx, %eax
0x000edcec:  e8 d7 e3 ff ff           calll    0xec0c8

----------------
IN: 
0x000ec0db:  c1 ea 1c                 shrl     $0x1c, %edx
0x000ec0de:  e8 d2 ff ff ff           calll    0xec0b5

----------------
IN: 
0x000ec0c0:  0f be d1                 movsbl   %cl, %edx
0x000ec0c3:  e9 e5 ff ff ff           jmp      0xec0ad

----------------
IN: 
0x000edcf1:  eb 75                    jmp      0xedd68

----------------
IN: 
0x000edbe7:  8b 4d 00                 movl     (%ebp), %ecx
0x000edbea:  89 f8                    movl     %edi, %eax
0x000edbec:  84 c0                    testb    %al, %al
0x000edbee:  75 05                    jne      0xedbf5

----------------
IN: 
0x000edbf0:  83 c5 04                 addl     $4, %ebp
0x000edbf3:  eb 03                    jmp      0xedbf8

----------------
IN: 
0x000edbf8:  85 c9                    testl    %ecx, %ecx
0x000edbfa:  79 16                    jns      0xedc12

----------------
IN: 
0x000edc12:  89 ca                    movl     %ecx, %edx
0x000edc14:  eb 11                    jmp      0xedc27

----------------
IN: 
0x000edc27:  89 d8                    movl     %ebx, %eax
0x000edc29:  e8 a3 fe ff ff           calll    0xedad1

----------------
IN: 
0x000edad1:  56                       pushl    %esi
0x000edad2:  53                       pushl    %ebx
0x000edad3:  83 ec 0c                 subl     $0xc, %esp
0x000edad6:  89 c6                    movl     %eax, %esi
0x000edad8:  c6 44 24 0b 00           movb     $0, 0xb(%esp)
0x000edadd:  8d 5c 24 0a              leal     0xa(%esp), %ebx
0x000edae1:  b9 0a 00 00 00           movl     $0xa, %ecx
0x000edae6:  89 d0                    movl     %edx, %eax
0x000edae8:  31 d2                    xorl     %edx, %edx
0x000edaea:  f7 f1                    divl     %ecx
0x000edaec:  83 c2 30                 addl     $0x30, %edx
0x000edaef:  88 13                    movb     %dl, (%ebx)
0x000edaf1:  89 c2                    movl     %eax, %edx
0x000edaf3:  85 c0                    testl    %eax, %eax
0x000edaf5:  74 03                    je       0xedafa

----------------
IN: 
0x000edaf7:  4b                       decl     %ebx
0x000edaf8:  eb ec                    jmp      0xedae6

----------------
IN: 
0x000edae6:  89 d0                    movl     %edx, %eax
0x000edae8:  31 d2                    xorl     %edx, %edx
0x000edaea:  f7 f1                    divl     %ecx
0x000edaec:  83 c2 30                 addl     $0x30, %edx
0x000edaef:  88 13                    movb     %dl, (%ebx)
0x000edaf1:  89 c2                    movl     %eax, %edx
0x000edaf3:  85 c0                    testl    %eax, %eax
0x000edaf5:  74 03                    je       0xedafa

----------------
IN: 
0x000edafa:  85 db                    testl    %ebx, %ebx
0x000edafc:  75 05                    jne      0xedb03

----------------
IN: 
0x000edb03:  0f be 13                 movsbl   (%ebx), %edx
0x000edb06:  84 d2                    testb    %dl, %dl
0x000edb08:  74 0a                    je       0xedb14

----------------
IN: 
0x000edb0a:  89 f0                    movl     %esi, %eax
0x000edb0c:  e8 9c e5 ff ff           calll    0xec0ad

----------------
IN: 
0x000edb11:  43                       incl     %ebx
0x000edb12:  eb ef                    jmp      0xedb03

----------------
IN: 
0x000edb14:  83 c4 0c                 addl     $0xc, %esp
0x000edb17:  5b                       popl     %ebx
0x000edb18:  5e                       popl     %esi
0x000edb19:  c3                       retl     

----------------
IN: 
0x000edc2e:  e9 37 01 00 00           jmp      0xedd6a

----------------
IN: 
0x000e9cfc:  89 e8                    movl     %ebp, %eax
0x000e9cfe:  2d 30 76 0d 00           subl     $0xd7630, %eax
0x000e9d03:  be 30 76 0d 00           movl     $0xd7630, %esi
0x000e9d08:  89 ef                    movl     %ebp, %edi
0x000e9d0a:  89 d9                    movl     %ebx, %ecx
0x000e9d0c:  f3 a4                    rep movsb (%esi), %es:(%edi)

----------------
IN: 
0x000e9d0c:  f3 a4                    rep movsb (%esi), %es:(%edi)

----------------
IN: 
0x000e9d0e:  ba f0 57 0d 00           movl     $0xd57f0, %edx
0x000e9d13:  81 fa 94 5f 0d 00        cmpl     $0xd5f94, %edx
0x000e9d19:  73 0b                    jae      0xe9d26

----------------
IN: 
0x000e9d1b:  8b 0a                    movl     (%edx), %ecx
0x000e9d1d:  01 e9                    addl     %ebp, %ecx
0x000e9d1f:  01 01                    addl     %eax, (%ecx)
0x000e9d21:  83 c2 04                 addl     $4, %edx
0x000e9d24:  eb ed                    jmp      0xe9d13

----------------
IN: 
0x000e9d13:  81 fa 94 5f 0d 00        cmpl     $0xd5f94, %edx
0x000e9d19:  73 0b                    jae      0xe9d26

----------------
IN: 
0x000e9d26:  89 c3                    movl     %eax, %ebx
0x000e9d28:  f7 db                    negl     %ebx
0x000e9d2a:  ba 94 5f 0d 00           movl     $0xd5f94, %edx
0x000e9d2f:  81 fa 60 6d 0d 00        cmpl     $0xd6d60, %edx
0x000e9d35:  73 0b                    jae      0xe9d42

----------------
IN: 
0x000e9d37:  8b 0a                    movl     (%edx), %ecx
0x000e9d39:  01 e9                    addl     %ebp, %ecx
0x000e9d3b:  01 19                    addl     %ebx, (%ecx)
0x000e9d3d:  83 c2 04                 addl     $4, %edx
0x000e9d40:  eb ed                    jmp      0xe9d2f

----------------
IN: 
0x000e9d2f:  81 fa 60 6d 0d 00        cmpl     $0xd6d60, %edx
0x000e9d35:  73 0b                    jae      0xe9d42

----------------
IN: 
0x000e9d42:  ba 60 6d 0d 00           movl     $0xd6d60, %edx
0x000e9d47:  81 fa 6c 6d 0d 00        cmpl     $0xd6d6c, %edx
0x000e9d4d:  73 0d                    jae      0xe9d5c

----------------
IN: 
0x000e9d4f:  8b 0a                    movl     (%edx), %ecx
0x000e9d51:  01 81 f0 57 0d 00        addl     %eax, 0xd57f0(%ecx)
0x000e9d57:  83 c2 04                 addl     $4, %edx
0x000e9d5a:  eb eb                    jmp      0xe9d47

----------------
IN: 
0x000e9d47:  81 fa 6c 6d 0d 00        cmpl     $0xd6d6c, %edx
0x000e9d4d:  73 0d                    jae      0xe9d5c

----------------
IN: 
0x000e9d5c:  ba 06 74 0e 00           movl     $0xe7406, %edx
0x000e9d61:  81 fa 30 76 0d 00        cmpl     $0xd7630, %edx
0x000e9d67:  72 0a                    jb       0xe9d73

----------------
IN: 
0x000e9d69:  81 fa 40 c0 0e 00        cmpl     $0xec040, %edx
0x000e9d6f:  73 02                    jae      0xe9d73

----------------
IN: 
0x000e9d71:  01 c2                    addl     %eax, %edx
0x000e9d73:  31 c0                    xorl     %eax, %eax
0x000e9d75:  ff d2                    calll    *%edx

----------------
IN: 
0x07fbb336:  31 c0                    xorl     %eax, %eax
0x07fbb338:  8b 0c 85 9c fe fb 07     movl     0x7fbfe9c(, %eax, 4), %ecx
0x07fbb33f:  8b 11                    movl     (%ecx), %edx
0x07fbb341:  85 d2                    testl    %edx, %edx
0x07fbb343:  74 03                    je       0x7fbb348

----------------
IN: 
0x07fbb345:  89 4a 04                 movl     %ecx, 4(%edx)
0x07fbb348:  40                       incl     %eax
0x07fbb349:  83 f8 05                 cmpl     $5, %eax
0x07fbb34c:  75 ea                    jne      0x7fbb338

----------------
IN: 
0x07fbb338:  8b 0c 85 9c fe fb 07     movl     0x7fbfe9c(, %eax, 4), %ecx
0x07fbb33f:  8b 11                    movl     (%ecx), %edx
0x07fbb341:  85 d2                    testl    %edx, %edx
0x07fbb343:  74 03                    je       0x7fbb348

----------------
IN: 
0x07fbb348:  40                       incl     %eax
0x07fbb349:  83 f8 05                 cmpl     $5, %eax
0x07fbb34c:  75 ea                    jne      0x7fbb338

----------------
IN: 
0x07fbb34e:  55                       pushl    %ebp
0x07fbb34f:  57                       pushl    %edi
0x07fbb350:  56                       pushl    %esi
0x07fbb351:  53                       pushl    %ebx
0x07fbb352:  81 ec fc 00 00 00        subl     $0xfc, %esp
0x07fbb358:  b9 30 76 0d 00           movl     $0xd7630, %ecx
0x07fbb35d:  81 e9 70 6d 0d 00        subl     $0xd6d70, %ecx
0x07fbb363:  ba 70 6d 0d 00           movl     $0xd6d70, %edx
0x07fbb368:  b8 80 b7 0e 00           movl     $0xeb780, %eax
0x07fbb36d:  e8 a0 0e ff ff           calll    0x7fac212

----------------
IN: 
0x07fac212:  55                       pushl    %ebp
0x07fac213:  57                       pushl    %edi
0x07fac214:  56                       pushl    %esi
0x07fac215:  53                       pushl    %ebx
0x07fac216:  39 c2                    cmpl     %eax, %edx
0x07fac218:  72 08                    jb       0x7fac222

----------------
IN: 
0x07fac222:  8d 59 ff                 leal     -1(%ecx), %ebx
0x07fac225:  8d 2c 18                 leal     (%eax, %ebx), %ebp
0x07fac228:  01 da                    addl     %ebx, %edx
0x07fac22a:  89 cb                    movl     %ecx, %ebx
0x07fac22c:  89 ce                    movl     %ecx, %esi
0x07fac22e:  f7 de                    negl     %esi
0x07fac230:  01 f2                    addl     %esi, %edx
0x07fac232:  4b                       decl     %ebx
0x07fac233:  83 fb ff                 cmpl     $0xff, %ebx
0x07fac236:  74 0e                    je       0x7fac246

----------------
IN: 
0x07fac238:  8d 7c 35 00              leal     (%ebp, %esi), %edi
0x07fac23c:  8a 44 1a 01              movb     1(%edx, %ebx), %al
0x07fac240:  88 44 1f 01              movb     %al, 1(%edi, %ebx)
0x07fac244:  eb ec                    jmp      0x7fac232

----------------
IN: 
0x07fac232:  4b                       decl     %ebx
0x07fac233:  83 fb ff                 cmpl     $0xff, %ebx
0x07fac236:  74 0e                    je       0x7fac246

----------------
IN: 
0x07fac246:  89 e8                    movl     %ebp, %eax
0x07fac248:  29 c8                    subl     %ecx, %eax
0x07fac24a:  5b                       popl     %ebx
0x07fac24b:  5e                       popl     %esi
0x07fac24c:  5f                       popl     %edi
0x07fac24d:  5d                       popl     %ebp
0x07fac24e:  c3                       retl     

----------------
IN: 
0x07fbb372:  b9 80 b7 0e 00           movl     $0xeb780, %ecx
0x07fbb377:  ba 10 c8 0d 00           movl     $0xdc810, %edx
0x07fbb37c:  b8 c0 fe fb 07           movl     $0x7fbfec0, %eax
0x07fbb381:  e8 1b 26 ff ff           calll    0x7fad9a1

----------------
IN: 
0x07fad9a1:  53                       pushl    %ebx
0x07fad9a2:  83 ec 2c                 subl     $0x2c, %esp
0x07fad9a5:  8b 18                    movl     (%eax), %ebx
0x07fad9a7:  85 db                    testl    %ebx, %ebx
0x07fad9a9:  75 39                    jne      0x7fad9e4

----------------
IN: 
0x07fad9ab:  c7 44 24 28 ff ff ff ff  movl     $0xffffffff, 0x28(%esp)
0x07fad9b3:  89 54 24 1c              movl     %edx, 0x1c(%esp)
0x07fad9b7:  89 4c 24 20              movl     %ecx, 0x20(%esp)
0x07fad9bb:  c7 44 24 24 00 00 00 00  movl     $0, 0x24(%esp)
0x07fad9c3:  89 c2                    movl     %eax, %edx
0x07fad9c5:  8d 44 24 14              leal     0x14(%esp), %eax
0x07fad9c9:  e8 a1 db ff ff           calll    0x7fab56f

----------------
IN: 
0x07fab56f:  8b 0a                    movl     (%edx), %ecx
0x07fab571:  89 50 04                 movl     %edx, 4(%eax)
0x07fab574:  89 08                    movl     %ecx, (%eax)
0x07fab576:  85 c9                    testl    %ecx, %ecx
0x07fab578:  74 03                    je       0x7fab57d

----------------
IN: 
0x07fab57d:  89 02                    movl     %eax, (%edx)
0x07fab57f:  c3                       retl     

----------------
IN: 
0x07fad9ce:  89 e0                    movl     %esp, %eax
0x07fad9d0:  e8 ba fd ff ff           calll    0x7fad78f

----------------
IN: 
0x07fad78f:  57                       pushl    %edi
0x07fad790:  56                       pushl    %esi
0x07fad791:  53                       pushl    %ebx
0x07fad792:  51                       pushl    %ecx
0x07fad793:  89 c3                    movl     %eax, %ebx
0x07fad795:  89 04 24                 movl     %eax, (%esp)
0x07fad798:  b9 10 00 00 00           movl     $0x10, %ecx
0x07fad79d:  ba 2c 00 00 00           movl     $0x2c, %edx
0x07fad7a2:  b8 b0 fe fb 07           movl     $0x7fbfeb0, %eax
0x07fad7a7:  e8 b7 e0 ff ff           calll    0x7fab863

----------------
IN: 
0x07fab863:  55                       pushl    %ebp
0x07fab864:  57                       pushl    %edi
0x07fab865:  56                       pushl    %esi
0x07fab866:  53                       pushl    %ebx
0x07fab867:  8b 7c 24 14              movl     0x14(%esp), %edi
0x07fab86b:  8b 18                    movl     (%eax), %ebx
0x07fab86d:  f7 d9                    negl     %ecx
0x07fab86f:  85 db                    testl    %ebx, %ebx
0x07fab871:  74 35                    je       0x7fab8a8

----------------
IN: 
0x07fab873:  8b 43 0c                 movl     0xc(%ebx), %eax
0x07fab876:  89 c6                    movl     %eax, %esi
0x07fab878:  29 d6                    subl     %edx, %esi
0x07fab87a:  21 ce                    andl     %ecx, %esi
0x07fab87c:  39 c6                    cmpl     %eax, %esi
0x07fab87e:  77 24                    ja       0x7fab8a4

----------------
IN: 
0x07fab880:  8b 6b 10                 movl     0x10(%ebx), %ebp
0x07fab883:  03 6b 08                 addl     8(%ebx), %ebp
0x07fab886:  39 ee                    cmpl     %ebp, %esi
0x07fab888:  72 1a                    jb       0x7fab8a4

----------------
IN: 
0x07fab8a4:  8b 1b                    movl     (%ebx), %ebx
0x07fab8a6:  eb c7                    jmp      0x7fab86f

----------------
IN: 
0x07fab86f:  85 db                    testl    %ebx, %ebx
0x07fab871:  74 35                    je       0x7fab8a8

----------------
IN: 
0x07fab88a:  89 77 08                 movl     %esi, 8(%edi)
0x07fab88d:  89 47 0c                 movl     %eax, 0xc(%edi)
0x07fab890:  89 57 10                 movl     %edx, 0x10(%edi)
0x07fab893:  89 73 0c                 movl     %esi, 0xc(%ebx)
0x07fab896:  8b 53 04                 movl     4(%ebx), %edx
0x07fab899:  89 f8                    movl     %edi, %eax
0x07fab89b:  e8 cf fc ff ff           calll    0x7fab56f

----------------
IN: 
0x07fab57a:  89 41 04                 movl     %eax, 4(%ecx)
0x07fab57d:  89 02                    movl     %eax, (%edx)
0x07fab57f:  c3                       retl     

----------------
IN: 
0x07fab8a0:  89 f0                    movl     %esi, %eax
0x07fab8a2:  eb 06                    jmp      0x7fab8aa

----------------
IN: 
0x07fab8aa:  5b                       popl     %ebx
0x07fab8ab:  5e                       popl     %esi
0x07fab8ac:  5f                       popl     %edi
0x07fab8ad:  5d                       popl     %ebp
0x07fab8ae:  c3                       retl     

----------------
IN: 
0x07fad7ac:  85 c0                    testl    %eax, %eax
0x07fad7ae:  75 2b                    jne      0x7fad7db

----------------
IN: 
0x07fad7db:  b9 0b 00 00 00           movl     $0xb, %ecx
0x07fad7e0:  89 c7                    movl     %eax, %edi
0x07fad7e2:  89 de                    movl     %ebx, %esi
0x07fad7e4:  f3 a5                    rep movsl (%esi), %es:(%edi)

----------------
IN: 
0x07fad7e4:  f3 a5                    rep movsl (%esi), %es:(%edi)

----------------
IN: 
0x07fad7e6:  8b 13                    movl     (%ebx), %edx
0x07fad7e8:  89 10                    movl     %edx, (%eax)
0x07fad7ea:  85 d2                    testl    %edx, %edx
0x07fad7ec:  74 03                    je       0x7fad7f1

----------------
IN: 
0x07fad7ee:  89 42 04                 movl     %eax, 4(%edx)
0x07fad7f1:  8b 53 04                 movl     4(%ebx), %edx
0x07fad7f4:  89 50 04                 movl     %edx, 4(%eax)
0x07fad7f7:  89 02                    movl     %eax, (%edx)
0x07fad7f9:  8d 48 14                 leal     0x14(%eax), %ecx
0x07fad7fc:  8b 53 14                 movl     0x14(%ebx), %edx
0x07fad7ff:  89 50 14                 movl     %edx, 0x14(%eax)
0x07fad802:  85 d2                    testl    %edx, %edx
0x07fad804:  74 03                    je       0x7fad809

----------------
IN: 
0x07fad809:  8b 53 18                 movl     0x18(%ebx), %edx
0x07fad80c:  89 50 18                 movl     %edx, 0x18(%eax)
0x07fad80f:  89 0a                    movl     %ecx, (%edx)
0x07fad811:  5a                       popl     %edx
0x07fad812:  5b                       popl     %ebx
0x07fad813:  5e                       popl     %esi
0x07fad814:  5f                       popl     %edi
0x07fad815:  c3                       retl     

----------------
IN: 
0x07fad9d5:  85 c0                    testl    %eax, %eax
0x07fad9d7:  75 14                    jne      0x7fad9ed

----------------
IN: 
0x07fad9ed:  83 c4 2c                 addl     $0x2c, %esp
0x07fad9f0:  5b                       popl     %ebx
0x07fad9f1:  c3                       retl     

----------------
IN: 
0x07fbb386:  a1 c0 fe fb 07           movl     0x7fbfec0, %eax
0x07fbb38b:  31 d2                    xorl     %edx, %edx
0x07fbb38d:  85 c0                    testl    %eax, %eax
0x07fbb38f:  74 06                    je       0x7fbb397

----------------
IN: 
0x07fbb391:  89 c2                    movl     %eax, %edx
0x07fbb393:  8b 00                    movl     (%eax), %eax
0x07fbb395:  eb f6                    jmp      0x7fbb38d

----------------
IN: 
0x07fbb38d:  85 c0                    testl    %eax, %eax
0x07fbb38f:  74 06                    je       0x7fbb397

----------------
IN: 
0x07fbb397:  89 15 50 54 0f 00        movl     %edx, 0xf5450
0x07fbb39d:  b9 60 5c 0f 00           movl     $0xf5c60, %ecx
0x07fbb3a2:  81 e9 60 54 0f 00        subl     $0xf5460, %ecx
0x07fbb3a8:  31 d2                    xorl     %edx, %edx
0x07fbb3aa:  b8 60 54 0f 00           movl     $0xf5460, %eax
0x07fbb3af:  e8 0d 0e 13 f8           calll    0xec1c1

----------------
IN: 
0x000ec1c1:  85 c9                    testl    %ecx, %ecx
0x000ec1c3:  74 06                    je       0xec1cb

----------------
IN: 
0x000ec1c5:  49                       decl     %ecx
0x000ec1c6:  88 14 08                 movb     %dl, (%eax, %ecx)
0x000ec1c9:  eb f6                    jmp      0xec1c1

----------------
IN: 
0x000ec1cb:  c3                       retl     

----------------
IN: 
0x07fbb3b4:  b9 60 5c 0f 00           movl     $0xf5c60, %ecx
0x07fbb3b9:  ba 60 54 0f 00           movl     $0xf5460, %edx
0x07fbb3be:  b8 b8 fe fb 07           movl     $0x7fbfeb8, %eax
0x07fbb3c3:  e8 d9 25 ff ff           calll    0x7fad9a1

----------------
IN: 
0x07fbb3c8:  e8 c4 05 ff ff           calll    0x7fab991

----------------
IN: 
0x07fab991:  56                       pushl    %esi
0x07fab992:  53                       pushl    %ebx
0x07fab993:  8b 0d 84 5c 0f 00        movl     0xf5c84, %ecx
0x07fab999:  8d 59 ff                 leal     -1(%ecx), %ebx
0x07fab99c:  6b c9 14                 imull    $0x14, %ecx, %ecx
0x07fab99f:  81 c1 88 5c 0f 00        addl     $0xf5c88, %ecx
0x07fab9a5:  85 db                    testl    %ebx, %ebx
0x07fab9a7:  78 20                    js       0x7fab9c9

----------------
IN: 
0x07fab9a9:  8b 41 f4                 movl     -0xc(%ecx), %eax
0x07fab9ac:  8b 51 f8                 movl     -8(%ecx), %edx
0x07fab9af:  03 41 ec                 addl     -0x14(%ecx), %eax
0x07fab9b2:  13 51 f0                 adcl     -0x10(%ecx), %edx
0x07fab9b5:  8b 71 fc                 movl     -4(%ecx), %esi
0x07fab9b8:  83 fa 00                 cmpl     $0, %edx
0x07fab9bb:  77 06                    ja       0x7fab9c3

----------------
IN: 
0x07fab9c3:  4b                       decl     %ebx
0x07fab9c4:  83 e9 14                 subl     $0x14, %ecx
0x07fab9c7:  eb dc                    jmp      0x7fab9a5

----------------
IN: 
0x07fab9a5:  85 db                    testl    %ebx, %ebx
0x07fab9a7:  78 20                    js       0x7fab9c9

----------------
IN: 
0x07fab9bd:  83 e6 fd                 andl     $0xfffffffd, %esi
0x07fab9c0:  4e                       decl     %esi
0x07fab9c1:  74 08                    je       0x7fab9cb

----------------
IN: 
0x07fab9cb:  3d 00 00 10 00           cmpl     $0x100000, %eax
0x07fab9d0:  73 05                    jae      0x7fab9d7

----------------
IN: 
0x07fab9d7:  a3 80 5c 0f 00           movl     %eax, 0xf5c80
0x07fab9dc:  5b                       popl     %ebx
0x07fab9dd:  5e                       popl     %esi
0x07fab9de:  c3                       retl     

----------------
IN: 
0x07fbb3cd:  ba 10 05 00 00           movl     $0x510, %edx
0x07fbb3d2:  31 c0                    xorl     %eax, %eax
0x07fbb3d4:  66 ef                    outw     %ax, %dx
0x07fbb3d6:  b9 4d 40 0f 00           movl     $0xf404d, %ecx
0x07fbb3db:  b2 11                    movb     $0x11, %dl
0x07fbb3dd:  ec                       inb      %dx, %al
0x07fbb3de:  0f b6 c0                 movzbl   %al, %eax
0x07fbb3e1:  0f be 19                 movsbl   (%ecx), %ebx
0x07fbb3e4:  39 d8                    cmpl     %ebx, %eax
0x07fbb3e6:  0f 85 b1 05 00 00        jne      0x7fbb99d

----------------
IN: 
0x07fbb3ec:  41                       incl     %ecx
0x07fbb3ed:  81 f9 51 40 0f 00        cmpl     $0xf4051, %ecx
0x07fbb3f3:  75 e8                    jne      0x7fbb3dd

----------------
IN: 
0x07fbb3dd:  ec                       inb      %dx, %al
0x07fbb3de:  0f b6 c0                 movzbl   %al, %eax
0x07fbb3e1:  0f be 19                 movsbl   (%ecx), %ebx
0x07fbb3e4:  39 d8                    cmpl     %ebx, %eax
0x07fbb3e6:  0f 85 b1 05 00 00        jne      0x7fbb99d

----------------
IN: 
0x07fbb3f5:  c7 04 24 fd 43 0f 00     movl     $0xf43fd, (%esp)
0x07fbb3fc:  e8 c4 2e 13 f8           calll    0xee2c5

----------------
IN: 
0x07fbb401:  c7 05 74 53 0f 00 01 00  movl     $1, 0xf5374
0x07fbb409:  00 00
0x07fbb40b:  b9 04 00 00 00           movl     $4, %ecx
0x07fbb410:  ba 01 00 00 00           movl     $1, %edx
0x07fbb415:  8d 44 24 4c              leal     0x4c(%esp), %eax
0x07fbb419:  e8 09 2b 13 f8           calll    0xedf27

----------------
IN: 
0x000edf27:  56                       pushl    %esi
0x000edf28:  53                       pushl    %ebx
0x000edf29:  89 c6                    movl     %eax, %esi
0x000edf2b:  89 cb                    movl     %ecx, %ebx
0x000edf2d:  83 3d 70 53 0f 00 00     cmpl     $0, 0xf5370
0x000edf34:  74 11                    je       0xedf47

----------------
IN: 
0x000edf47:  0f b7 c2                 movzwl   %dx, %eax
0x000edf4a:  ba 10 05 00 00           movl     $0x510, %edx
0x000edf4f:  66 ef                    outw     %ax, %dx
0x000edf51:  85 c9                    testl    %ecx, %ecx
0x000edf53:  74 0b                    je       0xedf60

----------------
IN: 
0x000edf55:  89 ca                    movl     %ecx, %edx
0x000edf57:  89 f0                    movl     %esi, %eax
0x000edf59:  5b                       popl     %ebx
0x000edf5a:  5e                       popl     %esi
0x000edf5b:  e9 a6 ff ff ff           jmp      0xedf06

----------------
IN: 
0x000edf06:  83 3d 70 53 0f 00 00     cmpl     $0, 0xf5370
0x000edf0d:  74 0a                    je       0xedf19

----------------
IN: 
0x000edf19:  57                       pushl    %edi
0x000edf1a:  89 d1                    movl     %edx, %ecx
0x000edf1c:  89 c7                    movl     %eax, %edi
0x000edf1e:  ba 11 05 00 00           movl     $0x511, %edx
0x000edf23:  f3 6c                    rep insb %dx, %es:(%edi)

----------------
IN: 
0x000edf23:  f3 6c                    rep insb %dx, %es:(%edi)

----------------
IN: 
0x000edf25:  5f                       popl     %edi
0x000edf26:  c3                       retl     

----------------
IN: 
0x07fbb41e:  f6 44 24 4c 02           testb    $2, 0x4c(%esp)
0x07fbb423:  74 16                    je       0x7fbb43b

----------------
IN: 
0x07fbb425:  c7 04 24 10 44 0f 00     movl     $0xf4410, (%esp)
0x07fbb42c:  e8 94 2e 13 f8           calll    0xee2c5

----------------
IN: 
0x07fbb431:  c7 05 70 53 0f 00 01 00  movl     $1, 0xf5370
0x07fbb439:  00 00
0x07fbb43b:  c7 04 24 02 00 00 00     movl     $2, (%esp)
0x07fbb442:  31 c9                    xorl     %ecx, %ecx
0x07fbb444:  ba 0e 00 00 00           movl     $0xe, %edx
0x07fbb449:  b8 35 44 0f 00           movl     $0xf4435, %eax
0x07fbb44e:  e8 16 28 ff ff           calll    0x7fadc69

----------------
IN: 
0x07fadc69:  55                       pushl    %ebp
0x07fadc6a:  57                       pushl    %edi
0x07fadc6b:  56                       pushl    %esi
0x07fadc6c:  53                       pushl    %ebx
0x07fadc6d:  53                       pushl    %ebx
0x07fadc6e:  89 04 24                 movl     %eax, (%esp)
0x07fadc71:  89 d7                    movl     %edx, %edi
0x07fadc73:  89 ce                    movl     %ecx, %esi
0x07fadc75:  8b 6c 24 18              movl     0x18(%esp), %ebp
0x07fadc79:  b8 94 00 00 00           movl     $0x94, %eax
0x07fadc7e:  e8 50 fc ff ff           calll    0x7fad8d3

----------------
IN: 
0x07fad8d3:  53                       pushl    %ebx
0x07fad8d4:  89 c3                    movl     %eax, %ebx
0x07fad8d6:  e8 86 ff ff ff           calll    0x7fad861

----------------
IN: 
0x07fad861:  b9 10 00 00 00           movl     $0x10, %ecx
0x07fad866:  89 c2                    movl     %eax, %edx
0x07fad868:  b8 b0 fe fb 07           movl     $0x7fbfeb0, %eax
0x07fad86d:  e9 e3 ff ff ff           jmp      0x7fad855

----------------
IN: 
0x07fad855:  85 d2                    testl    %edx, %edx
0x07fad857:  74 05                    je       0x7fad85e

----------------
IN: 
0x07fad859:  e9 b8 ff ff ff           jmp      0x7fad816

----------------
IN: 
0x07fad816:  56                       pushl    %esi
0x07fad817:  53                       pushl    %ebx
0x07fad818:  83 ec 30                 subl     $0x30, %esp
0x07fad81b:  c7 44 24 2c ff ff ff ff  movl     $0xffffffff, 0x2c(%esp)
0x07fad823:  8d 5c 24 18              leal     0x18(%esp), %ebx
0x07fad827:  89 1c 24                 movl     %ebx, (%esp)
0x07fad82a:  e8 34 e0 ff ff           calll    0x7fab863

----------------
IN: 
0x07fad82f:  89 c6                    movl     %eax, %esi
0x07fad831:  85 c0                    testl    %eax, %eax
0x07fad833:  74 16                    je       0x7fad84b

----------------
IN: 
0x07fad835:  8d 44 24 04              leal     4(%esp), %eax
0x07fad839:  e8 51 ff ff ff           calll    0x7fad78f

----------------
IN: 
0x07fad806:  89 4a 04                 movl     %ecx, 4(%edx)
0x07fad809:  8b 53 18                 movl     0x18(%ebx), %edx
0x07fad80c:  89 50 18                 movl     %edx, 0x18(%eax)
0x07fad80f:  89 0a                    movl     %ecx, (%edx)
0x07fad811:  5a                       popl     %edx
0x07fad812:  5b                       popl     %ebx
0x07fad813:  5e                       popl     %esi
0x07fad814:  5f                       popl     %edi
0x07fad815:  c3                       retl     

----------------
IN: 
0x07fad83e:  89 f2                    movl     %esi, %edx
0x07fad840:  85 c0                    testl    %eax, %eax
0x07fad842:  75 09                    jne      0x7fad84d

----------------
IN: 
0x07fad84d:  89 d0                    movl     %edx, %eax
0x07fad84f:  83 c4 30                 addl     $0x30, %esp
0x07fad852:  5b                       popl     %ebx
0x07fad853:  5e                       popl     %esi
0x07fad854:  c3                       retl     

----------------
IN: 
0x07fad8db:  85 c0                    testl    %eax, %eax
0x07fad8dd:  75 12                    jne      0x7fad8f1

----------------
IN: 
0x07fad8f1:  5b                       popl     %ebx
0x07fad8f2:  c3                       retl     

----------------
IN: 
0x07fadc83:  89 c3                    movl     %eax, %ebx
0x07fadc85:  85 c0                    testl    %eax, %eax
0x07fadc87:  75 14                    jne      0x7fadc9d

----------------
IN: 
0x07fadc9d:  b9 94 00 00 00           movl     $0x94, %ecx
0x07fadca2:  31 d2                    xorl     %edx, %edx
0x07fadca4:  e8 18 e5 13 f8           calll    0xec1c1

----------------
IN: 
0x07fadca9:  8d 43 04                 leal     4(%ebx), %eax
0x07fadcac:  b9 80 00 00 00           movl     $0x80, %ecx
0x07fadcb1:  8b 14 24                 movl     (%esp), %edx
0x07fadcb4:  e8 f5 d8 ff ff           calll    0x7fab5ae

----------------
IN: 
0x07fab5ae:  56                       pushl    %esi
0x07fab5af:  53                       pushl    %ebx
0x07fab5b0:  8d 72 01                 leal     1(%edx), %esi
0x07fab5b3:  01 ca                    addl     %ecx, %edx
0x07fab5b5:  89 c3                    movl     %eax, %ebx
0x07fab5b7:  39 d6                    cmpl     %edx, %esi
0x07fab5b9:  74 0e                    je       0x7fab5c9

----------------
IN: 
0x07fab5bb:  46                       incl     %esi
0x07fab5bc:  8a 4e fe                 movb     -2(%esi), %cl
0x07fab5bf:  84 c9                    testb    %cl, %cl
0x07fab5c1:  74 06                    je       0x7fab5c9

----------------
IN: 
0x07fab5c3:  43                       incl     %ebx
0x07fab5c4:  88 4b ff                 movb     %cl, -1(%ebx)
0x07fab5c7:  eb ee                    jmp      0x7fab5b7

----------------
IN: 
0x07fab5b7:  39 d6                    cmpl     %edx, %esi
0x07fab5b9:  74 0e                    je       0x7fab5c9

----------------
IN: 
0x07fab5c9:  c6 03 00                 movb     $0, (%ebx)
0x07fab5cc:  5b                       popl     %ebx
0x07fab5cd:  5e                       popl     %esi
0x07fab5ce:  c3                       retl     

----------------
IN: 
0x07fadcb9:  89 ab 84 00 00 00        movl     %ebp, 0x84(%ebx)
0x07fadcbf:  89 bb 8c 00 00 00        movl     %edi, 0x8c(%ebx)
0x07fadcc5:  89 b3 90 00 00 00        movl     %esi, 0x90(%ebx)
0x07fadccb:  c7 83 88 00 00 00 1a d2  movl     $0x7fad21a, 0x88(%ebx)
0x07fadcd3:  fa 07
0x07fadcd5:  a1 94 fe fb 07           movl     0x7fbfe94, %eax
0x07fadcda:  89 03                    movl     %eax, (%ebx)
0x07fadcdc:  89 1d 94 fe fb 07        movl     %ebx, 0x7fbfe94
0x07fadce2:  58                       popl     %eax
0x07fadce3:  5b                       popl     %ebx
0x07fadce4:  5e                       popl     %esi
0x07fadce5:  5f                       popl     %edi
0x07fadce6:  5d                       popl     %ebp
0x07fadce7:  c3                       retl     

----------------
IN: 
0x07fbb453:  c7 04 24 01 00 00 00     movl     $1, (%esp)
0x07fbb45a:  31 c9                    xorl     %ecx, %ecx
0x07fbb45c:  ba 02 80 00 00           movl     $0x8002, %edx
0x07fbb461:  b8 0d 38 0f 00           movl     $0xf380d, %eax
0x07fbb466:  e8 fe 27 ff ff           calll    0x7fadc69

----------------
IN: 
0x07fbb46b:  c7 04 24 02 00 00 00     movl     $2, (%esp)
0x07fbb472:  31 c9                    xorl     %ecx, %ecx
0x07fbb474:  ba 0f 00 00 00           movl     $0xf, %edx
0x07fbb479:  b8 2a 3b 0f 00           movl     $0xf3b2a, %eax
0x07fbb47e:  e8 e6 27 ff ff           calll    0x7fadc69

----------------
IN: 
0x07fbb483:  b9 08 00 00 00           movl     $8, %ecx
0x07fbb488:  ba 0d 00 00 00           movl     $0xd, %edx
0x07fbb48d:  8d 44 24 60              leal     0x60(%esp), %eax
0x07fbb491:  e8 91 2a 13 f8           calll    0xedf27

----------------
IN: 
0x000edf36:  89 d1                    movl     %edx, %ecx
0x000edf38:  c1 e1 10                 shll     $0x10, %ecx
0x000edf3b:  83 c9 0a                 orl      $0xa, %ecx
0x000edf3e:  89 da                    movl     %ebx, %edx
0x000edf40:  5b                       popl     %ebx
0x000edf41:  5e                       popl     %esi
0x000edf42:  e9 3a ff ff ff           jmp      0xede81

----------------
IN: 
0x000ede81:  56                       pushl    %esi
0x000ede82:  53                       pushl    %ebx
0x000ede83:  83 ec 10                 subl     $0x10, %esp
0x000ede86:  89 d3                    movl     %edx, %ebx
0x000ede88:  89 ce                    movl     %ecx, %esi
0x000ede8a:  31 d2                    xorl     %edx, %edx
0x000ede8c:  e8 93 e4 ff ff           calll    0xec324

----------------
IN: 
0x000ec324:  55                       pushl    %ebp
0x000ec325:  89 e5                    movl     %esp, %ebp
0x000ec327:  89 d1                    movl     %edx, %ecx
0x000ec329:  0f c9                    bswapl   %ecx
0x000ec32b:  89 c2                    movl     %eax, %edx
0x000ec32d:  0f ca                    bswapl   %edx
0x000ec32f:  89 c8                    movl     %ecx, %eax
0x000ec331:  5d                       popl     %ebp
0x000ec332:  c3                       retl     

----------------
IN: 
0x000ede91:  89 44 24 08              movl     %eax, 8(%esp)
0x000ede95:  89 54 24 0c              movl     %edx, 0xc(%esp)
0x000ede99:  89 d8                    movl     %ebx, %eax
0x000ede9b:  e8 02 ed ff ff           calll    0xecba2

----------------
IN: 
0x000ecba2:  0f c8                    bswapl   %eax
0x000ecba4:  c3                       retl     

----------------
IN: 
0x000edea0:  89 44 24 04              movl     %eax, 4(%esp)
0x000edea4:  89 f0                    movl     %esi, %eax
0x000edea6:  e8 f7 ec ff ff           calll    0xecba2

----------------
IN: 
0x000edeab:  89 04 24                 movl     %eax, (%esp)
0x000edeae:  89 e0                    movl     %esp, %eax
0x000edeb0:  e8 ed ec ff ff           calll    0xecba2

----------------
IN: 
0x000edeb5:  ba 18 05 00 00           movl     $0x518, %edx
0x000edeba:  ef                       outl     %eax, %dx
0x000edebb:  8b 04 24                 movl     (%esp), %eax
0x000edebe:  e8 e2 ec ff ff           calll    0xecba5

----------------
IN: 
0x000ecba5:  0f c8                    bswapl   %eax
0x000ecba7:  c3                       retl     

----------------
IN: 
0x000edec3:  83 e0 fe                 andl     $0xfffffffe, %eax
0x000edec6:  74 07                    je       0xedecf

----------------
IN: 
0x000edecf:  83 c4 10                 addl     $0x10, %esp
0x000eded2:  5b                       popl     %ebx
0x000eded3:  5e                       popl     %esi
0x000eded4:  c3                       retl     

----------------
IN: 
0x07fbb496:  31 d2                    xorl     %edx, %edx
0x07fbb498:  31 c9                    xorl     %ecx, %ecx
0x07fbb49a:  b8 2a 3b 0f 00           movl     $0xf3b2a, %eax
0x07fbb49f:  e8 dc 1a ff ff           calll    0x7facf80

----------------
IN: 
0x07facf80:  55                       pushl    %ebp
0x07facf81:  89 e5                    movl     %esp, %ebp
0x07facf83:  57                       pushl    %edi
0x07facf84:  56                       pushl    %esi
0x07facf85:  53                       pushl    %ebx
0x07facf86:  83 ec 08                 subl     $8, %esp
0x07facf89:  89 d6                    movl     %edx, %esi
0x07facf8b:  89 cf                    movl     %ecx, %edi
0x07facf8d:  e8 b9 ff ff ff           calll    0x7facf4b

----------------
IN: 
0x07facf4b:  57                       pushl    %edi
0x07facf4c:  56                       pushl    %esi
0x07facf4d:  53                       pushl    %ebx
0x07facf4e:  89 c6                    movl     %eax, %esi
0x07facf50:  e8 3d f2 13 f8           calll    0xec192

----------------
IN: 
0x000ec192:  89 c2                    movl     %eax, %edx
0x000ec194:  80 3a 00                 cmpb     $0, (%edx)
0x000ec197:  74 03                    je       0xec19c

----------------
IN: 
0x000ec199:  42                       incl     %edx
0x000ec19a:  eb f8                    jmp      0xec194

----------------
IN: 
0x000ec194:  80 3a 00                 cmpb     $0, (%edx)
0x000ec197:  74 03                    je       0xec19c

----------------
IN: 
0x000ec19c:  29 c2                    subl     %eax, %edx
0x000ec19e:  89 d0                    movl     %edx, %eax
0x000ec1a0:  c3                       retl     

----------------
IN: 
0x07facf55:  8d 78 01                 leal     1(%eax), %edi
0x07facf58:  8b 1d 94 fe fb 07        movl     0x7fbfe94, %ebx
0x07facf5e:  85 db                    testl    %ebx, %ebx
0x07facf60:  74 14                    je       0x7facf76

----------------
IN: 
0x07facf62:  8d 53 04                 leal     4(%ebx), %edx
0x07facf65:  89 f9                    movl     %edi, %ecx
0x07facf67:  89 f0                    movl     %esi, %eax
0x07facf69:  e8 20 e6 ff ff           calll    0x7fab58e

----------------
IN: 
0x07fab58e:  56                       pushl    %esi
0x07fab58f:  53                       pushl    %ebx
0x07fab590:  89 d6                    movl     %edx, %esi
0x07fab592:  31 db                    xorl     %ebx, %ebx
0x07fab594:  39 cb                    cmpl     %ecx, %ebx
0x07fab596:  74 11                    je       0x7fab5a9

----------------
IN: 
0x07fab598:  8a 14 18                 movb     (%eax, %ebx), %dl
0x07fab59b:  43                       incl     %ebx
0x07fab59c:  3a 54 1e ff              cmpb     -1(%esi, %ebx), %dl
0x07fab5a0:  74 f2                    je       0x7fab594

----------------
IN: 
0x07fab594:  39 cb                    cmpl     %ecx, %ebx
0x07fab596:  74 11                    je       0x7fab5a9

----------------
IN: 
0x07fab5a9:  31 c0                    xorl     %eax, %eax
0x07fab5ab:  5b                       popl     %ebx
0x07fab5ac:  5e                       popl     %esi
0x07fab5ad:  c3                       retl     

----------------
IN: 
0x07facf6e:  85 c0                    testl    %eax, %eax
0x07facf70:  74 08                    je       0x7facf7a

----------------
IN: 
0x07facf7a:  89 d8                    movl     %ebx, %eax
0x07facf7c:  5b                       popl     %ebx
0x07facf7d:  5e                       popl     %esi
0x07facf7e:  5f                       popl     %edi
0x07facf7f:  c3                       retl     

----------------
IN: 
0x07facf92:  89 c3                    movl     %eax, %ebx
0x07facf94:  85 c0                    testl    %eax, %eax
0x07facf96:  75 06                    jne      0x7facf9e

----------------
IN: 
0x07facf9e:  8b 80 84 00 00 00        movl     0x84(%eax), %eax
0x07facfa4:  8d 50 ff                 leal     -1(%eax), %edx
0x07facfa7:  83 fa 07                 cmpl     $7, %edx
0x07facfaa:  77 ec                    ja       0x7facf98

----------------
IN: 
0x07facfac:  85 c2                    testl    %eax, %edx
0x07facfae:  75 e8                    jne      0x7facf98

----------------
IN: 
0x07facfb0:  c7 04 24 00 00 00 00     movl     $0, (%esp)
0x07facfb7:  c7 44 24 04 00 00 00 00  movl     $0, 4(%esp)
0x07facfbf:  b9 08 00 00 00           movl     $8, %ecx
0x07facfc4:  89 e2                    movl     %esp, %edx
0x07facfc6:  89 d8                    movl     %ebx, %eax
0x07facfc8:  ff 93 88 00 00 00        calll    *0x88(%ebx)

----------------
IN: 
0x07fad21a:  57                       pushl    %edi
0x07fad21b:  56                       pushl    %esi
0x07fad21c:  53                       pushl    %ebx
0x07fad21d:  89 c3                    movl     %eax, %ebx
0x07fad21f:  8b 80 84 00 00 00        movl     0x84(%eax), %eax
0x07fad225:  39 c8                    cmpl     %ecx, %eax
0x07fad227:  77 47                    ja       0x7fad270

----------------
IN: 
0x07fad229:  89 d6                    movl     %edx, %esi
0x07fad22b:  8b bb 90 00 00 00        movl     0x90(%ebx), %edi
0x07fad231:  85 ff                    testl    %edi, %edi
0x07fad233:  8b 93 8c 00 00 00        movl     0x8c(%ebx), %edx
0x07fad239:  75 0b                    jne      0x7fad246

----------------
IN: 
0x07fad23b:  89 c1                    movl     %eax, %ecx
0x07fad23d:  89 f0                    movl     %esi, %eax
0x07fad23f:  e8 e3 0c 14 f8           calll    0xedf27

----------------
IN: 
0x07fad244:  eb 22                    jmp      0x7fad268

----------------
IN: 
0x07fad268:  8b 83 84 00 00 00        movl     0x84(%ebx), %eax
0x07fad26e:  eb 03                    jmp      0x7fad273

----------------
IN: 
0x07fad273:  5b                       popl     %ebx
0x07fad274:  5e                       popl     %esi
0x07fad275:  5f                       popl     %edi
0x07fad276:  c3                       retl     

----------------
IN: 
0x07facfce:  85 c0                    testl    %eax, %eax
0x07facfd0:  78 c6                    js       0x7facf98

----------------
IN: 
0x07facfd2:  8b 04 24                 movl     (%esp), %eax
0x07facfd5:  8b 54 24 04              movl     4(%esp), %edx
0x07facfd9:  59                       popl     %ecx
0x07facfda:  5b                       popl     %ebx
0x07facfdb:  5b                       popl     %ebx
0x07facfdc:  5e                       popl     %esi
0x07facfdd:  5f                       popl     %edi
0x07facfde:  5d                       popl     %ebp
0x07facfdf:  c3                       retl     

----------------
IN: 
0x07fbb4a4:  8d 1c c5 00 00 00 00     leal     (, %eax, 8), %ebx
0x07fbb4ab:  89 1c 24                 movl     %ebx, (%esp)
0x07fbb4ae:  b9 08 00 00 00           movl     $8, %ecx
0x07fbb4b3:  ba 0d 00 00 00           movl     $0xd, %edx
0x07fbb4b8:  b8 2e 38 0f 00           movl     $0xf382e, %eax
0x07fbb4bd:  e8 a7 27 ff ff           calll    0x7fadc69

----------------
IN: 
0x07fbb4c2:  8d 4b 08                 leal     8(%ebx), %ecx
0x07fbb4c5:  8b 44 24 60              movl     0x60(%esp), %eax
0x07fbb4c9:  c1 e0 03                 shll     $3, %eax
0x07fbb4cc:  89 04 24                 movl     %eax, (%esp)
0x07fbb4cf:  ba 0d 00 00 00           movl     $0xd, %edx
0x07fbb4d4:  b8 1f 38 0f 00           movl     $0xf381f, %eax
0x07fbb4d9:  e8 8b 27 ff ff           calll    0x7fadc69

----------------
IN: 
0x07fbb4de:  b9 02 00 00 00           movl     $2, %ecx
0x07fbb4e3:  ba 00 80 00 00           movl     $0x8000, %edx
0x07fbb4e8:  8d 44 24 50              leal     0x50(%esp), %eax
0x07fbb4ec:  e8 36 2a 13 f8           calll    0xedf27

----------------
IN: 
0x07fbb4f1:  bf 02 00 00 00           movl     $2, %edi
0x07fbb4f6:  31 db                    xorl     %ebx, %ebx
0x07fbb4f8:  8d 74 24 7c              leal     0x7c(%esp), %esi
0x07fbb4fc:  0f b7 44 24 50           movzwl   0x50(%esp), %eax
0x07fbb501:  39 c3                    cmpl     %eax, %ebx
0x07fbb503:  7d 57                    jge      0x7fbb55c

----------------
IN: 
0x07fbb55c:  b9 02 00 00 00           movl     $2, %ecx
0x07fbb561:  ba 01 80 00 00           movl     $0x8001, %edx
0x07fbb566:  8d 44 24 50              leal     0x50(%esp), %eax
0x07fbb56a:  e8 b8 29 13 f8           calll    0xedf27

----------------
IN: 
0x07fbb56f:  be 02 00 00 00           movl     $2, %esi
0x07fbb574:  31 db                    xorl     %ebx, %ebx
0x07fbb576:  8d 7c 24 7c              leal     0x7c(%esp), %edi
0x07fbb57a:  0f b7 44 24 50           movzwl   0x50(%esp), %eax
0x07fbb57f:  39 c3                    cmpl     %eax, %ebx
0x07fbb581:  0f 8d a0 00 00 00        jge      0x7fbb627

----------------
IN: 
0x07fbb627:  b9 04 00 00 00           movl     $4, %ecx
0x07fbb62c:  ba 19 00 00 00           movl     $0x19, %edx
0x07fbb631:  8d 44 24 50              leal     0x50(%esp), %eax
0x07fbb635:  e8 ed 28 13 f8           calll    0xedf27

----------------
IN: 
0x07fbb63a:  8b 44 24 50              movl     0x50(%esp), %eax
0x07fbb63e:  e8 62 15 13 f8           calll    0xecba5

----------------
IN: 
0x07fbb643:  89 44 24 50              movl     %eax, 0x50(%esp)
0x07fbb647:  31 db                    xorl     %ebx, %ebx
0x07fbb649:  3b 5c 24 50              cmpl     0x50(%esp), %ebx
0x07fbb64d:  73 37                    jae      0x7fbb686

----------------
IN: 
0x07fbb64f:  ba 40 00 00 00           movl     $0x40, %edx
0x07fbb654:  8d 44 24 7c              leal     0x7c(%esp), %eax
0x07fbb658:  e8 a9 28 13 f8           calll    0xedf06

----------------
IN: 
0x000edf0f:  b9 02 00 00 00           movl     $2, %ecx
0x000edf14:  e9 68 ff ff ff           jmp      0xede81

----------------
IN: 
0x07fbb65d:  8b 44 24 7c              movl     0x7c(%esp), %eax
0x07fbb661:  e8 3f 15 13 f8           calll    0xecba5

----------------
IN: 
0x07fbb666:  8b 94 24 80 00 00 00     movl     0x80(%esp), %edx
0x07fbb66d:  86 f2                    xchgb    %dh, %dl
0x07fbb66f:  0f b7 d2                 movzwl   %dx, %edx
0x07fbb672:  89 04 24                 movl     %eax, (%esp)
0x07fbb675:  31 c9                    xorl     %ecx, %ecx
0x07fbb677:  8d 84 24 84 00 00 00     leal     0x84(%esp), %eax
0x07fbb67e:  e8 e6 25 ff ff           calll    0x7fadc69

----------------
IN: 
0x07fbb683:  43                       incl     %ebx
0x07fbb684:  eb c3                    jmp      0x7fbb649

----------------
IN: 
0x07fbb649:  3b 5c 24 50              cmpl     0x50(%esp), %ebx
0x07fbb64d:  73 37                    jae      0x7fbb686

----------------
IN: 
0x07fbb686:  8d 54 24 54              leal     0x54(%esp), %edx
0x07fbb68a:  b8 67 44 0f 00           movl     $0xf4467, %eax
0x07fbb68f:  e8 b3 24 ff ff           calll    0x7fadb47

----------------
IN: 
0x07fadb47:  55                       pushl    %ebp
0x07fadb48:  57                       pushl    %edi
0x07fadb49:  56                       pushl    %esi
0x07fadb4a:  53                       pushl    %ebx
0x07fadb4b:  89 d5                    movl     %edx, %ebp
0x07fadb4d:  e8 f9 f3 ff ff           calll    0x7facf4b

----------------
IN: 
0x07fab5a2:  19 c0                    sbbl     %eax, %eax
0x07fab5a4:  83 c8 01                 orl      $1, %eax
0x07fab5a7:  eb 02                    jmp      0x7fab5ab

----------------
IN: 
0x07fab5ab:  5b                       popl     %ebx
0x07fab5ac:  5e                       popl     %esi
0x07fab5ad:  c3                       retl     

----------------
IN: 
0x07facf72:  8b 1b                    movl     (%ebx), %ebx
0x07facf74:  eb e8                    jmp      0x7facf5e

----------------
IN: 
0x07facf5e:  85 db                    testl    %ebx, %ebx
0x07facf60:  74 14                    je       0x7facf76

----------------
IN: 
0x07fadb52:  89 c7                    movl     %eax, %edi
0x07fadb54:  85 c0                    testl    %eax, %eax
0x07fadb56:  74 51                    je       0x7fadba9

----------------
IN: 
0x07fadb58:  8b b0 84 00 00 00        movl     0x84(%eax), %esi
0x07fadb5e:  85 f6                    testl    %esi, %esi
0x07fadb60:  74 47                    je       0x7fadba9

----------------
IN: 
0x07fadb62:  8d 46 01                 leal     1(%esi), %eax
0x07fadb65:  e8 f7 fc ff ff           calll    0x7fad861

----------------
IN: 
0x07fadb6a:  89 c3                    movl     %eax, %ebx
0x07fadb6c:  85 c0                    testl    %eax, %eax
0x07fadb6e:  75 11                    jne      0x7fadb81

----------------
IN: 
0x07fadb81:  89 f1                    movl     %esi, %ecx
0x07fadb83:  89 c2                    movl     %eax, %edx
0x07fadb85:  89 f8                    movl     %edi, %eax
0x07fadb87:  ff 97 88 00 00 00        calll    *0x88(%edi)

----------------
IN: 
0x07fadb8d:  85 c0                    testl    %eax, %eax
0x07fadb8f:  79 09                    jns      0x7fadb9a

----------------
IN: 
0x07fadb9a:  85 ed                    testl    %ebp, %ebp
0x07fadb9c:  74 03                    je       0x7fadba1

----------------
IN: 
0x07fadb9e:  89 75 00                 movl     %esi, (%ebp)
0x07fadba1:  c6 04 33 00              movb     $0, (%ebx, %esi)
0x07fadba5:  89 d8                    movl     %ebx, %eax
0x07fadba7:  eb 02                    jmp      0x7fadbab

----------------
IN: 
0x07fadbab:  5b                       popl     %ebx
0x07fadbac:  5e                       popl     %esi
0x07fadbad:  5f                       popl     %edi
0x07fadbae:  5d                       popl     %ebp
0x07fadbaf:  c3                       retl     

----------------
IN: 
0x07fbb694:  85 c0                    testl    %eax, %eax
0x07fbb696:  0f 84 13 01 00 00        je       0x7fbb7af

----------------
IN: 
0x07fbb69c:  89 c6                    movl     %eax, %esi
0x07fbb69e:  c7 44 24 30 00 00 00 00  movl     $0, 0x30(%esp)
0x07fbb6a6:  8b 44 24 54              movl     0x54(%esp), %eax
0x07fbb6aa:  b9 14 00 00 00           movl     $0x14, %ecx
0x07fbb6af:  31 d2                    xorl     %edx, %edx
0x07fbb6b1:  f7 f1                    divl     %ecx
0x07fbb6b3:  39 44 24 30              cmpl     %eax, 0x30(%esp)
0x07fbb6b7:  0f 83 e8 01 00 00        jae      0x7fbb8a5

----------------
IN: 
0x07fbb6bd:  8b 46 10                 movl     0x10(%esi), %eax
0x07fbb6c0:  83 f8 01                 cmpl     $1, %eax
0x07fbb6c3:  74 0e                    je       0x7fbb6d3

----------------
IN: 
0x07fbb6d3:  8b 46 08                 movl     8(%esi), %eax
0x07fbb6d6:  8b 56 0c                 movl     0xc(%esi), %edx
0x07fbb6d9:  89 44 24 0c              movl     %eax, 0xc(%esp)
0x07fbb6dd:  89 54 24 10              movl     %edx, 0x10(%esp)
0x07fbb6e1:  8b 06                    movl     (%esi), %eax
0x07fbb6e3:  8b 56 04                 movl     4(%esi), %edx
0x07fbb6e6:  89 44 24 04              movl     %eax, 4(%esp)
0x07fbb6ea:  89 54 24 08              movl     %edx, 8(%esp)
0x07fbb6ee:  c7 04 24 70 44 0f 00     movl     $0xf4470, (%esp)
0x07fbb6f5:  e8 cb 2b 13 f8           calll    0xee2c5

----------------
IN: 
0x000edb7d:  8a 46 01                 movb     1(%esi), %al
0x000edb80:  3c 6c                    cmpb     $0x6c, %al
0x000edb82:  74 03                    je       0xedb87

----------------
IN: 
0x000edb87:  83 c6 02                 addl     $2, %esi
0x000edb8a:  8a 42 02                 movb     2(%edx), %al
0x000edb8d:  bf 01 00 00 00           movl     $1, %edi
0x000edb92:  3c 64                    cmpb     $0x64, %al
0x000edb94:  74 51                    je       0xedbe7

----------------
IN: 
0x000edcca:  8d 7d 08                 leal     8(%ebp), %edi
0x000edccd:  8b 55 04                 movl     4(%ebp), %edx
0x000edcd0:  85 d2                    testl    %edx, %edx
0x000edcd2:  74 22                    je       0xedcf6

----------------
IN: 
0x000edcf6:  89 04 24                 movl     %eax, (%esp)
0x000edcf9:  8b 54 24 04              movl     4(%esp), %edx
0x000edcfd:  89 d8                    movl     %ebx, %eax
0x000edcff:  e8 47 e4 ff ff           calll    0xec14b

----------------
IN: 
0x07fbb6fa:  8b 06                    movl     (%esi), %eax
0x07fbb6fc:  8b 56 04                 movl     4(%esi), %edx
0x07fbb6ff:  8b 3d 40 ff fb 07        movl     0x7fbff40, %edi
0x07fbb705:  31 ed                    xorl     %ebp, %ebp
0x07fbb707:  89 7c 24 28              movl     %edi, 0x28(%esp)
0x07fbb70b:  89 6c 24 2c              movl     %ebp, 0x2c(%esp)
0x07fbb70f:  83 fa 00                 cmpl     $0, %edx
0x07fbb712:  77 0a                    ja       0x7fbb71e

----------------
IN: 
0x07fbb714:  3b 44 24 28              cmpl     0x28(%esp), %eax
0x07fbb718:  0f 82 85 00 00 00        jb       0x7fbb7a3

----------------
IN: 
0x07fbb7a3:  ff 44 24 30              incl     0x30(%esp)
0x07fbb7a7:  83 c6 14                 addl     $0x14, %esi
0x07fbb7aa:  e9 f7 fe ff ff           jmp      0x7fbb6a6

----------------
IN: 
0x07fbb6a6:  8b 44 24 54              movl     0x54(%esp), %eax
0x07fbb6aa:  b9 14 00 00 00           movl     $0x14, %ecx
0x07fbb6af:  31 d2                    xorl     %edx, %edx
0x07fbb6b1:  f7 f1                    divl     %ecx
0x07fbb6b3:  39 44 24 30              cmpl     %eax, 0x30(%esp)
0x07fbb6b7:  0f 83 e8 01 00 00        jae      0x7fbb8a5

----------------
IN: 
0x07fbb8a5:  b8 94 3b 0f 00           movl     $0xf3b94, %eax
0x07fbb8aa:  e8 9c 16 ff ff           calll    0x7facf4b

----------------
IN: 
0x07fbb8af:  85 c0                    testl    %eax, %eax
0x07fbb8b1:  74 1d                    je       0x7fbb8d0

----------------
IN: 
0x07fbb8b3:  66 c7 05 f8 50 0f 00 00  movw     $0x600, 0xf50f8
0x07fbb8bb:  06
0x07fbb8bc:  c7 44 24 04 00 06 00 00  movl     $0x600, 4(%esp)
0x07fbb8c4:  c7 04 24 c0 44 0f 00     movl     $0xf44c0, (%esp)
0x07fbb8cb:  e8 f5 29 13 f8           calll    0xee2c5

----------------
IN: 
0x07fbb8d0:  66 c7 44 24 7c 00 00     movw     $0, 0x7c(%esp)
0x07fbb8d7:  b9 02 00 00 00           movl     $2, %ecx
0x07fbb8dc:  ba 04 00 00 00           movl     $4, %edx
0x07fbb8e1:  8d 44 24 7c              leal     0x7c(%esp), %eax
0x07fbb8e5:  e8 3d 26 13 f8           calll    0xedf27

----------------
IN: 
0x07fbb8ea:  66 83 7c 24 7c 00        cmpw     $0, 0x7c(%esp)
0x07fbb8f0:  0f 84 a7 00 00 00        je       0x7fbb99d

----------------
IN: 
0x07fbb99d:  31 c0                    xorl     %eax, %eax
0x07fbb99f:  ba 53 ff 0f 00           movl     $0xfff53, %edx
0x07fbb9a4:  66 89 14 85 00 00 00 00  movw     %dx, (, %eax, 4)
0x07fbb9ac:  66 c7 04 85 02 00 00 00  movw     $0xf000, 2(, %eax, 4)
0x07fbb9b4:  00 f0
0x07fbb9b6:  40                       incl     %eax
0x07fbb9b7:  3d 00 01 00 00           cmpl     $0x100, %eax
0x07fbb9bc:  75 e6                    jne      0x7fbb9a4

----------------
IN: 
0x07fbb9a4:  66 89 14 85 00 00 00 00  movw     %dx, (, %eax, 4)
0x07fbb9ac:  66 c7 04 85 02 00 00 00  movw     $0xf000, 2(, %eax, 4)
0x07fbb9b4:  00 f0
0x07fbb9b6:  40                       incl     %eax
0x07fbb9b7:  3d 00 01 00 00           cmpl     $0x100, %eax
0x07fbb9bc:  75 e6                    jne      0x7fbb9a4

----------------
IN: 
0x07fbb9be:  66 b8 08 00              movw     $8, %ax
0x07fbb9c2:  ba 72 d4 0f 00           movl     $0xfd472, %edx
0x07fbb9c7:  66 89 14 85 00 00 00 00  movw     %dx, (, %eax, 4)
0x07fbb9cf:  66 c7 04 85 02 00 00 00  movw     $0xf000, 2(, %eax, 4)
0x07fbb9d7:  00 f0
0x07fbb9d9:  40                       incl     %eax
0x07fbb9da:  83 f8 10                 cmpl     $0x10, %eax
0x07fbb9dd:  75 e8                    jne      0x7fbb9c7

----------------
IN: 
0x07fbb9c7:  66 89 14 85 00 00 00 00  movw     %dx, (, %eax, 4)
0x07fbb9cf:  66 c7 04 85 02 00 00 00  movw     $0xf000, 2(, %eax, 4)
0x07fbb9d7:  00 f0
0x07fbb9d9:  40                       incl     %eax
0x07fbb9da:  83 f8 10                 cmpl     $0x10, %eax
0x07fbb9dd:  75 e8                    jne      0x7fbb9c7

----------------
IN: 
0x07fbb9df:  b0 70                    movb     $0x70, %al
0x07fbb9e1:  ba 7b d4 0f 00           movl     $0xfd47b, %edx
0x07fbb9e6:  66 89 14 85 00 00 00 00  movw     %dx, (, %eax, 4)
0x07fbb9ee:  66 c7 04 85 02 00 00 00  movw     $0xf000, 2(, %eax, 4)
0x07fbb9f6:  00 f0
0x07fbb9f8:  40                       incl     %eax
0x07fbb9f9:  83 f8 78                 cmpl     $0x78, %eax
0x07fbb9fc:  75 e8                    jne      0x7fbb9e6

----------------
IN: 
0x07fbb9e6:  66 89 14 85 00 00 00 00  movw     %dx, (, %eax, 4)
0x07fbb9ee:  66 c7 04 85 02 00 00 00  movw     $0xf000, 2(, %eax, 4)
0x07fbb9f6:  00 f0
0x07fbb9f8:  40                       incl     %eax
0x07fbb9f9:  83 f8 78                 cmpl     $0x78, %eax
0x07fbb9fc:  75 e8                    jne      0x7fbb9e6

----------------
IN: 
0x07fbb9fe:  b8 c3 e2 0f 00           movl     $0xfe2c3, %eax
0x07fbba03:  66 a3 08 00 00 00        movw     %ax, 8
0x07fbba09:  66 c7 05 0a 00 00 00 00  movw     $0xf000, 0xa
0x07fbba11:  f0
0x07fbba12:  b8 54 ff 0f 00           movl     $0xfff54, %eax
0x07fbba17:  66 a3 14 00 00 00        movw     %ax, 0x14
0x07fbba1d:  66 c7 05 16 00 00 00 00  movw     $0xf000, 0x16
0x07fbba25:  f0
0x07fbba26:  c7 44 24 28 65 f0 0f 00  movl     $0xff065, 0x28(%esp)
0x07fbba2e:  8b 44 24 28              movl     0x28(%esp), %eax
0x07fbba32:  66 a3 40 00 00 00        movw     %ax, 0x40
0x07fbba38:  66 c7 05 42 00 00 00 00  movw     $0xf000, 0x42
0x07fbba40:  f0
0x07fbba41:  b8 4d f8 0f 00           movl     $0xff84d, %eax
0x07fbba46:  66 a3 44 00 00 00        movw     %ax, 0x44
0x07fbba4c:  66 c7 05 46 00 00 00 00  movw     $0xf000, 0x46
0x07fbba54:  f0
0x07fbba55:  b8 41 f8 0f 00           movl     $0xff841, %eax
0x07fbba5a:  66 a3 48 00 00 00        movw     %ax, 0x48
0x07fbba60:  66 c7 05 4a 00 00 00 00  movw     $0xf000, 0x4a
0x07fbba68:  f0
0x07fbba69:  b8 fe e3 0f 00           movl     $0xfe3fe, %eax
0x07fbba6e:  66 a3 4c 00 00 00        movw     %ax, 0x4c
0x07fbba74:  66 c7 05 4e 00 00 00 00  movw     $0xf000, 0x4e
0x07fbba7c:  f0
0x07fbba7d:  b8 39 e7 0f 00           movl     $0xfe739, %eax
0x07fbba82:  66 a3 50 00 00 00        movw     %ax, 0x50
0x07fbba88:  66 c7 05 52 00 00 00 00  movw     $0xf000, 0x52
0x07fbba90:  f0
0x07fbba91:  b8 59 f8 0f 00           movl     $0xff859, %eax
0x07fbba96:  66 a3 54 00 00 00        movw     %ax, 0x54
0x07fbba9c:  66 c7 05 56 00 00 00 00  movw     $0xf000, 0x56
0x07fbbaa4:  f0
0x07fbbaa5:  b8 2e e8 0f 00           movl     $0xfe82e, %eax
0x07fbbaaa:  66 a3 58 00 00 00        movw     %ax, 0x58
0x07fbbab0:  66 c7 05 5a 00 00 00 00  movw     $0xf000, 0x5a
0x07fbbab8:  f0
0x07fbbab9:  b8 d2 ef 0f 00           movl     $0xfefd2, %eax
0x07fbbabe:  66 a3 5c 00 00 00        movw     %ax, 0x5c
0x07fbbac4:  66 c7 05 5e 00 00 00 00  movw     $0xf000, 0x5e
0x07fbbacc:  f0
0x07fbbacd:  b8 97 d4 0f 00           movl     $0xfd497, %eax
0x07fbbad2:  66 a3 60 00 00 00        movw     %ax, 0x60
0x07fbbad8:  66 c7 05 62 00 00 00 00  movw     $0xf000, 0x62
0x07fbbae0:  f0
0x07fbbae1:  b8 f2 e6 0f 00           movl     $0xfe6f2, %eax
0x07fbbae6:  66 a3 64 00 00 00        movw     %ax, 0x64
0x07fbbaec:  66 c7 05 66 00 00 00 00  movw     $0xf000, 0x66
0x07fbbaf4:  f0
0x07fbbaf5:  b8 6e fe 0f 00           movl     $0xffe6e, %eax
0x07fbbafa:  66 a3 68 00 00 00        movw     %ax, 0x68
0x07fbbb00:  66 c7 05 6a 00 00 00 00  movw     $0xf000, 0x6a
0x07fbbb08:  f0
0x07fbbb09:  b8 59 ec 0f 00           movl     $0xfec59, %eax
0x07fbbb0e:  66 a3 00 01 00 00        movw     %ax, 0x100
0x07fbbb14:  66 c7 05 02 01 00 00 00  movw     $0xf000, 0x102
0x07fbbb1c:  f0
0x07fbbb1d:  b8 60 00 00 00           movl     $0x60, %eax
0x07fbbb22:  66 c7 04 85 00 00 00 00  movw     $0, (, %eax, 4)
0x07fbbb2a:  00 00
0x07fbbb2c:  66 c7 04 85 02 00 00 00  movw     $0, 2(, %eax, 4)
0x07fbbb34:  00 00
0x07fbbb36:  40                       incl     %eax
0x07fbbb37:  83 f8 67                 cmpl     $0x67, %eax
0x07fbbb3a:  75 e6                    jne      0x7fbbb22

----------------
IN: 
0x07fbbb22:  66 c7 04 85 00 00 00 00  movw     $0, (, %eax, 4)
0x07fbbb2a:  00 00
0x07fbbb2c:  66 c7 04 85 02 00 00 00  movw     $0, 2(, %eax, 4)
0x07fbbb34:  00 00
0x07fbbb36:  40                       incl     %eax
0x07fbbb37:  83 f8 67                 cmpl     $0x67, %eax
0x07fbbb3a:  75 e6                    jne      0x7fbbb22

----------------
IN: 
0x07fbbb3c:  66 c7 05 e4 01 00 00 00  movw     $0, 0x1e4
0x07fbbb44:  00
0x07fbbb45:  66 c7 05 e6 01 00 00 00  movw     $0, 0x1e6
0x07fbbb4d:  00
0x07fbbb4e:  b9 00 01 00 00           movl     $0x100, %ecx
0x07fbbb53:  31 d2                    xorl     %edx, %edx
0x07fbbb55:  66 b8 00 04              movw     $0x400, %ax
0x07fbbb59:  e8 63 06 13 f8           calll    0xec1c1

----------------
IN: 
0x07fbbb5e:  66 c7 05 0e 04 00 00 c0  movw     $0x9fc0, 0x40e
0x07fbbb66:  9f
0x07fbbb67:  66 c7 05 13 04 00 00 7f  movw     $0x27f, 0x413
0x07fbbb6f:  02
0x07fbbb70:  b9 21 01 00 00           movl     $0x121, %ecx
0x07fbbb75:  31 d2                    xorl     %edx, %edx
0x07fbbb77:  b8 00 fc 09 00           movl     $0x9fc00, %eax
0x07fbbb7c:  e8 40 06 13 f8           calll    0xec1c1

----------------
IN: 
0x07fbbb81:  c6 05 00 fc 09 00 01     movb     $1, 0x9fc00
0x07fbbb88:  c7 44 24 08 02 00 00 00  movl     $2, 8(%esp)
0x07fbbb90:  c7 04 24 00 04 00 00     movl     $0x400, (%esp)
0x07fbbb97:  c7 44 24 04 00 00 00 00  movl     $0, 4(%esp)
0x07fbbb9f:  b8 00 fc 09 00           movl     $0x9fc00, %eax
0x07fbbba4:  31 d2                    xorl     %edx, %edx
0x07fbbba6:  e8 4a 1b ff ff           calll    0x7fad6f5

----------------
IN: 
0x07fad6f5:  57                       pushl    %edi
0x07fad6f6:  56                       pushl    %esi
0x07fad6f7:  53                       pushl    %ebx
0x07fad6f8:  8b 5c 24 10              movl     0x10(%esp), %ebx
0x07fad6fc:  8b 4c 24 14              movl     0x14(%esp), %ecx
0x07fad700:  89 cf                    movl     %ecx, %edi
0x07fad702:  09 df                    orl      %ebx, %edi
0x07fad704:  74 08                    je       0x7fad70e

----------------
IN: 
0x07fad706:  5b                       popl     %ebx
0x07fad707:  5e                       popl     %esi
0x07fad708:  5f                       popl     %edi
0x07fad709:  e9 1c fe ff ff           jmp      0x7fad52a

----------------
IN: 
0x07fad52a:  55                       pushl    %ebp
0x07fad52b:  57                       pushl    %edi
0x07fad52c:  56                       pushl    %esi
0x07fad52d:  53                       pushl    %ebx
0x07fad52e:  83 ec 34                 subl     $0x34, %esp
0x07fad531:  89 44 24 14              movl     %eax, 0x14(%esp)
0x07fad535:  89 54 24 18              movl     %edx, 0x18(%esp)
0x07fad539:  8b 5c 24 48              movl     0x48(%esp), %ebx
0x07fad53d:  8b 74 24 4c              movl     0x4c(%esp), %esi
0x07fad541:  89 f7                    movl     %esi, %edi
0x07fad543:  89 de                    movl     %ebx, %esi
0x07fad545:  89 5c 24 24              movl     %ebx, 0x24(%esp)
0x07fad549:  89 7c 24 28              movl     %edi, 0x28(%esp)
0x07fad54d:  8b 5c 24 50              movl     0x50(%esp), %ebx
0x07fad551:  89 5c 24 2c              movl     %ebx, 0x2c(%esp)
0x07fad555:  01 f0                    addl     %esi, %eax
0x07fad557:  11 fa                    adcl     %edi, %edx
0x07fad559:  89 44 24 0c              movl     %eax, 0xc(%esp)
0x07fad55d:  89 54 24 10              movl     %edx, 0x10(%esp)
0x07fad561:  8b 15 84 5c 0f 00        movl     0xf5c84, %edx
0x07fad567:  b8 88 5c 0f 00           movl     $0xf5c88, %eax
0x07fad56c:  31 f6                    xorl     %esi, %esi
0x07fad56e:  39 d6                    cmpl     %edx, %esi
0x07fad570:  0f 8d cd 00 00 00        jge      0x7fad643

----------------
IN: 
0x07fad576:  89 44 24 30              movl     %eax, 0x30(%esp)
0x07fad57a:  8b 08                    movl     (%eax), %ecx
0x07fad57c:  8b 58 04                 movl     4(%eax), %ebx
0x07fad57f:  89 cf                    movl     %ecx, %edi
0x07fad581:  89 dd                    movl     %ebx, %ebp
0x07fad583:  03 78 08                 addl     8(%eax), %edi
0x07fad586:  13 68 0c                 adcl     0xc(%eax), %ebp
0x07fad589:  89 7c 24 1c              movl     %edi, 0x1c(%esp)
0x07fad58d:  89 6c 24 20              movl     %ebp, 0x20(%esp)
0x07fad591:  83 c0 14                 addl     $0x14, %eax
0x07fad594:  39 6c 24 18              cmpl     %ebp, 0x18(%esp)
0x07fad598:  72 0f                    jb       0x7fad5a9

----------------
IN: 
0x07fad59a:  77 0a                    ja       0x7fad5a6

----------------
IN: 
0x07fad59c:  8b 7c 24 1c              movl     0x1c(%esp), %edi
0x07fad5a0:  39 7c 24 14              cmpl     %edi, 0x14(%esp)
0x07fad5a4:  76 03                    jbe      0x7fad5a9

----------------
IN: 
0x07fad5a9:  39 5c 24 18              cmpl     %ebx, 0x18(%esp)
0x07fad5ad:  0f 82 90 00 00 00        jb       0x7fad643

----------------
IN: 
0x07fad5b3:  77 0a                    ja       0x7fad5bf

----------------
IN: 
0x07fad5b5:  39 4c 24 14              cmpl     %ecx, 0x14(%esp)
0x07fad5b9:  0f 86 84 00 00 00        jbe      0x7fad643

----------------
IN: 
0x07fad5bf:  8b 44 24 30              movl     0x30(%esp), %eax
0x07fad5c3:  8b 40 10                 movl     0x10(%eax), %eax
0x07fad5c6:  89 c7                    movl     %eax, %edi
0x07fad5c8:  39 44 24 2c              cmpl     %eax, 0x2c(%esp)
0x07fad5cc:  75 1e                    jne      0x7fad5ec

----------------
IN: 
0x07fad5ec:  8b 44 24 14              movl     0x14(%esp), %eax
0x07fad5f0:  8b 54 24 18              movl     0x18(%esp), %edx
0x07fad5f4:  29 c8                    subl     %ecx, %eax
0x07fad5f6:  19 da                    sbbl     %ebx, %edx
0x07fad5f8:  8b 5c 24 30              movl     0x30(%esp), %ebx
0x07fad5fc:  89 43 08                 movl     %eax, 8(%ebx)
0x07fad5ff:  89 53 0c                 movl     %edx, 0xc(%ebx)
0x07fad602:  46                       incl     %esi
0x07fad603:  8b 44 24 10              movl     0x10(%esp), %eax
0x07fad607:  39 44 24 20              cmpl     %eax, 0x20(%esp)
0x07fad60b:  72 36                    jb       0x7fad643

----------------
IN: 
0x07fad60d:  77 0a                    ja       0x7fad619

----------------
IN: 
0x07fad60f:  8b 44 24 0c              movl     0xc(%esp), %eax
0x07fad613:  39 44 24 1c              cmpl     %eax, 0x1c(%esp)
0x07fad617:  76 2a                    jbe      0x7fad643

----------------
IN: 
0x07fad643:  6b de 14                 imull    $0x14, %esi, %ebx
0x07fad646:  3b 35 84 5c 0f 00        cmpl     0xf5c84, %esi
0x07fad64c:  7d 6c                    jge      0x7fad6ba

----------------
IN: 
0x07fad64e:  8d 8b 88 5c 0f 00        leal     0xf5c88(%ebx), %ecx
0x07fad654:  8b 83 88 5c 0f 00        movl     0xf5c88(%ebx), %eax
0x07fad65a:  8b 93 8c 5c 0f 00        movl     0xf5c8c(%ebx), %edx
0x07fad660:  39 54 24 10              cmpl     %edx, 0x10(%esp)
0x07fad664:  72 54                    jb       0x7fad6ba

----------------
IN: 
0x07fad666:  77 06                    ja       0x7fad66e

----------------
IN: 
0x07fad668:  39 44 24 0c              cmpl     %eax, 0xc(%esp)
0x07fad66c:  72 4c                    jb       0x7fad6ba

----------------
IN: 
0x07fad6ba:  8b 44 24 2c              movl     0x2c(%esp), %eax
0x07fad6be:  83 f8 ff                 cmpl     $0xff, %eax
0x07fad6c1:  74 2a                    je       0x7fad6ed

----------------
IN: 
0x07fad6c3:  89 44 24 50              movl     %eax, 0x50(%esp)
0x07fad6c7:  8b 44 24 24              movl     0x24(%esp), %eax
0x07fad6cb:  8b 54 24 28              movl     0x28(%esp), %edx
0x07fad6cf:  89 44 24 48              movl     %eax, 0x48(%esp)
0x07fad6d3:  89 54 24 4c              movl     %edx, 0x4c(%esp)
0x07fad6d7:  8b 54 24 14              movl     0x14(%esp), %edx
0x07fad6db:  8b 4c 24 18              movl     0x18(%esp), %ecx
0x07fad6df:  89 f0                    movl     %esi, %eax
0x07fad6e1:  83 c4 34                 addl     $0x34, %esp
0x07fad6e4:  5b                       popl     %ebx
0x07fad6e5:  5e                       popl     %esi
0x07fad6e6:  5f                       popl     %edi
0x07fad6e7:  5d                       popl     %ebp
0x07fad6e8:  e9 a9 fd ff ff           jmp      0x7fad496

----------------
IN: 
0x07fad496:  55                       pushl    %ebp
0x07fad497:  57                       pushl    %edi
0x07fad498:  56                       pushl    %esi
0x07fad499:  53                       pushl    %ebx
0x07fad49a:  83 ec 0c                 subl     $0xc, %esp
0x07fad49d:  89 14 24                 movl     %edx, (%esp)
0x07fad4a0:  89 4c 24 04              movl     %ecx, 4(%esp)
0x07fad4a4:  8b 7c 24 20              movl     0x20(%esp), %edi
0x07fad4a8:  8b 6c 24 24              movl     0x24(%esp), %ebp
0x07fad4ac:  8b 74 24 28              movl     0x28(%esp), %esi
0x07fad4b0:  89 74 24 08              movl     %esi, 8(%esp)
0x07fad4b4:  8b 0d 84 5c 0f 00        movl     0xf5c84, %ecx
0x07fad4ba:  83 f9 1f                 cmpl     $0x1f, %ecx
0x07fad4bd:  7e 16                    jle      0x7fad4d5

----------------
IN: 
0x07fad4d5:  6b f0 14                 imull    $0x14, %eax, %esi
0x07fad4d8:  8d 9e 88 5c 0f 00        leal     0xf5c88(%esi), %ebx
0x07fad4de:  29 c1                    subl     %eax, %ecx
0x07fad4e0:  6b c9 14                 imull    $0x14, %ecx, %ecx
0x07fad4e3:  40                       incl     %eax
0x07fad4e4:  6b c0 14                 imull    $0x14, %eax, %eax
0x07fad4e7:  05 88 5c 0f 00           addl     $0xf5c88, %eax
0x07fad4ec:  89 da                    movl     %ebx, %edx
0x07fad4ee:  e8 1f ed ff ff           calll    0x7fac212

----------------
IN: 
0x07fad4f3:  ff 05 84 5c 0f 00        incl     0xf5c84
0x07fad4f9:  8b 04 24                 movl     (%esp), %eax
0x07fad4fc:  8b 54 24 04              movl     4(%esp), %edx
0x07fad500:  89 86 88 5c 0f 00        movl     %eax, 0xf5c88(%esi)
0x07fad506:  89 96 8c 5c 0f 00        movl     %edx, 0xf5c8c(%esi)
0x07fad50c:  89 be 90 5c 0f 00        movl     %edi, 0xf5c90(%esi)
0x07fad512:  89 ae 94 5c 0f 00        movl     %ebp, 0xf5c94(%esi)
0x07fad518:  8b 44 24 08              movl     8(%esp), %eax
0x07fad51c:  89 86 98 5c 0f 00        movl     %eax, 0xf5c98(%esi)
0x07fad522:  83 c4 0c                 addl     $0xc, %esp
0x07fad525:  5b                       popl     %ebx
0x07fad526:  5e                       popl     %esi
0x07fad527:  5f                       popl     %edi
0x07fad528:  5d                       popl     %ebp
0x07fad529:  c3                       retl     

----------------
IN: 
0x07fbbbab:  b8 00 08 00 00           movl     $0x800, %eax
0x07fbbbb0:  2d 00 c8 0d 00           subl     $0xdc800, %eax
0x07fbbbb5:  05 18 b8 0e 00           addl     $0xeb818, %eax
0x07fbbbba:  a3 10 b8 0e 00           movl     %eax, 0xeb810
0x07fbbbbf:  b0 b8                    movb     $0xb8, %al
0x07fbbbc1:  e6 70                    outb     %al, $0x70
0x07fbbbc3:  e4 71                    inb      $0x71, %al
0x07fbbbc5:  a8 01                    testb    $1, %al
0x07fbbbc7:  74 0a                    je       0x7fbbbd3

----------------
IN: 
0x07fbbbd3:  b0 bd                    movb     $0xbd, %al
0x07fbbbd5:  e6 70                    outb     %al, $0x70
0x07fbbbd7:  e4 71                    inb      $0x71, %al
0x07fbbbd9:  0f b6 d0                 movzbl   %al, %edx
0x07fbbbdc:  b0 b8                    movb     $0xb8, %al
0x07fbbbde:  e6 70                    outb     %al, $0x70
0x07fbbbe0:  e4 71                    inb      $0x71, %al
0x07fbbbe2:  89 c1                    movl     %eax, %ecx
0x07fbbbe4:  81 e1 f0 00 00 00        andl     $0xf0, %ecx
0x07fbbbea:  c1 e1 04                 shll     $4, %ecx
0x07fbbbed:  09 d1                    orl      %edx, %ecx
0x07fbbbef:  bf 0f 27 00 00           movl     $0x270f, %edi
0x07fbbbf4:  be 0f 27 00 00           movl     $0x270f, %esi
0x07fbbbf9:  bb 0f 27 00 00           movl     $0x270f, %ebx
0x07fbbbfe:  bd 0f 27 00 00           movl     $0x270f, %ebp
0x07fbbc03:  ba 65 00 00 00           movl     $0x65, %edx
0x07fbbc08:  89 c8                    movl     %ecx, %eax
0x07fbbc0a:  83 e0 0f                 andl     $0xf, %eax
0x07fbbc0d:  c1 e9 04                 shrl     $4, %ecx
0x07fbbc10:  83 f8 02                 cmpl     $2, %eax
0x07fbbc13:  74 17                    je       0x7fbbc2c

----------------
IN: 
0x07fbbc2c:  89 d7                    movl     %edx, %edi
0x07fbbc2e:  eb 02                    jmp      0x7fbbc32

----------------
IN: 
0x07fbbc32:  42                       incl     %edx
0x07fbbc33:  83 fa 68                 cmpl     $0x68, %edx
0x07fbbc36:  75 d0                    jne      0x7fbbc08

----------------
IN: 
0x07fbbc08:  89 c8                    movl     %ecx, %eax
0x07fbbc0a:  83 e0 0f                 andl     $0xf, %eax
0x07fbbc0d:  c1 e9 04                 shrl     $4, %ecx
0x07fbbc10:  83 f8 02                 cmpl     $2, %eax
0x07fbbc13:  74 17                    je       0x7fbbc2c

----------------
IN: 
0x07fbbc15:  77 07                    ja       0x7fbbc1e

----------------
IN: 
0x07fbbc17:  48                       decl     %eax
0x07fbbc18:  75 18                    jne      0x7fbbc32

----------------
IN: 
0x07fbbc1a:  89 d5                    movl     %edx, %ebp
0x07fbbc1c:  eb 14                    jmp      0x7fbbc32

----------------
IN: 
0x07fbbc1e:  83 f8 03                 cmpl     $3, %eax
0x07fbbc21:  74 0d                    je       0x7fbbc30

----------------
IN: 
0x07fbbc30:  89 d6                    movl     %edx, %esi
0x07fbbc32:  42                       incl     %edx
0x07fbbc33:  83 fa 68                 cmpl     $0x68, %edx
0x07fbbc36:  75 d0                    jne      0x7fbbc08

----------------
IN: 
0x07fbbc38:  89 2d 8c fe fb 07        movl     %ebp, 0x7fbfe8c
0x07fbbc3e:  89 3d 84 fe fb 07        movl     %edi, 0x7fbfe84
0x07fbbc44:  89 35 88 fe fb 07        movl     %esi, 0x7fbfe88
0x07fbbc4a:  89 1d 80 fe fb 07        movl     %ebx, 0x7fbfe80
0x07fbbc50:  ba 60 ea 00 00           movl     $0xea60, %edx
0x07fbbc55:  31 c9                    xorl     %ecx, %ecx
0x07fbbc57:  b8 fc 44 0f 00           movl     $0xf44fc, %eax
0x07fbbc5c:  e8 1f 13 ff ff           calll    0x7facf80

----------------
IN: 
0x07fbbc61:  a3 3c 54 0f 00           movl     %eax, 0xf543c
0x07fbbc66:  31 d2                    xorl     %edx, %edx
0x07fbbc68:  b8 0f 45 0f 00           movl     $0xf450f, %eax
0x07fbbc6d:  e8 d5 1e ff ff           calll    0x7fadb47

----------------
IN: 
0x07fadba9:  31 c0                    xorl     %eax, %eax
0x07fadbab:  5b                       popl     %ebx
0x07fadbac:  5e                       popl     %esi
0x07fadbad:  5f                       popl     %edi
0x07fadbae:  5d                       popl     %ebp
0x07fadbaf:  c3                       retl     

----------------
IN: 
0x07fbbc72:  89 c3                    movl     %eax, %ebx
0x07fbbc74:  89 c1                    movl     %eax, %ecx
0x07fbbc76:  b8 01 00 00 00           movl     $1, %eax
0x07fbbc7b:  85 db                    testl    %ebx, %ebx
0x07fbbc7d:  0f 84 9c 00 00 00        je       0x7fbbd1f

----------------
IN: 
0x07fbbd1f:  c7 05 94 5f 0f 00 b0 d2  movl     $0xfd2b0, 0xf5f94
0x07fbbd27:  0f 00
0x07fbbd29:  8a 1d 9a 5f 0f 00        movb     0xf5f9a, %bl
0x07fbbd2f:  ba 10 00 00 00           movl     $0x10, %edx
0x07fbbd34:  b8 90 5f 0f 00           movl     $0xf5f90, %eax
0x07fbbd39:  e8 31 13 13 f8           calll    0xed06f

----------------
IN: 
0x000ed06f:  53                       pushl    %ebx
0x000ed070:  31 db                    xorl     %ebx, %ebx
0x000ed072:  31 c9                    xorl     %ecx, %ecx
0x000ed074:  39 d1                    cmpl     %edx, %ecx
0x000ed076:  74 06                    je       0xed07e

----------------
IN: 
0x000ed078:  02 1c 08                 addb     (%eax, %ecx), %bl
0x000ed07b:  41                       incl     %ecx
0x000ed07c:  eb f6                    jmp      0xed074

----------------
IN: 
0x000ed074:  39 d1                    cmpl     %edx, %ecx
0x000ed076:  74 06                    je       0xed07e

----------------
IN: 
0x000ed07e:  88 d8                    movb     %bl, %al
0x000ed080:  5b                       popl     %ebx
0x000ed081:  c3                       retl     

----------------
IN: 
0x07fbbd3e:  29 c3                    subl     %eax, %ebx
0x07fbbd40:  88 1d 9a 5f 0f 00        movb     %bl, 0xf5f9a
0x07fbbd46:  b8 f5 d0 0f 00           movl     $0xfd0f5, %eax
0x07fbbd4b:  66 a3 77 5c 0f 00        movw     %ax, 0xf5c77
0x07fbbd51:  66 c7 05 79 5c 0f 00 00  movw     $0xf000, 0xf5c79
0x07fbbd59:  f0
0x07fbbd5a:  8a 1d 76 5c 0f 00        movb     0xf5c76, %bl
0x07fbbd60:  ba 10 00 00 00           movl     $0x10, %edx
0x07fbbd65:  b8 70 5c 0f 00           movl     $0xf5c70, %eax
0x07fbbd6a:  e8 00 13 13 f8           calll    0xed06f

----------------
IN: 
0x07fbbd6f:  29 c3                    subl     %eax, %ebx
0x07fbbd71:  88 1d 76 5c 0f 00        movb     %bl, 0xf5c76
0x07fbbd77:  b8 57 d1 0f 00           movl     $0xfd157, %eax
0x07fbbd7c:  66 a3 bd 5f 0f 00        movw     %ax, 0xf5fbd
0x07fbbd82:  b8 53 d1 0f 00           movl     $0xfd153, %eax
0x07fbbd87:  66 a3 c1 5f 0f 00        movw     %ax, 0xf5fc1
0x07fbbd8d:  8a 1d b8 5f 0f 00        movb     0xf5fb8, %bl
0x07fbbd93:  ba 21 00 00 00           movl     $0x21, %edx
0x07fbbd98:  b8 b0 5f 0f 00           movl     $0xf5fb0, %eax
0x07fbbd9d:  e8 cd 12 13 f8           calll    0xed06f

----------------
IN: 
0x07fbbda2:  29 c3                    subl     %eax, %ebx
0x07fbbda4:  88 1d b8 5f 0f 00        movb     %bl, 0xf5fb8
0x07fbbdaa:  c6 05 96 04 00 00 10     movb     $0x10, 0x496
0x07fbbdb1:  66 c7 05 1a 04 00 00 1e  movw     $0x1e, 0x41a
0x07fbbdb9:  00
0x07fbbdba:  66 c7 05 1c 04 00 00 1e  movw     $0x1e, 0x41c
0x07fbbdc2:  00
0x07fbbdc3:  66 c7 05 80 04 00 00 1e  movw     $0x1e, 0x480
0x07fbbdcb:  00
0x07fbbdcc:  66 c7 05 82 04 00 00 3e  movw     $0x3e, 0x482
0x07fbbdd4:  00
0x07fbbdd5:  66 83 0d 10 04 00 00 04  orw      $4, 0x410
0x07fbbddd:  31 d2                    xorl     %edx, %edx
0x07fbbddf:  88 d0                    movb     %dl, %al
0x07fbbde1:  e6 0d                    outb     %al, $0xd
0x07fbbde3:  e6 da                    outb     %al, $0xda
0x07fbbde5:  b0 c0                    movb     $0xc0, %al
0x07fbbde7:  e6 d6                    outb     %al, $0xd6
0x07fbbde9:  88 d0                    movb     %dl, %al
0x07fbbdeb:  e6 d4                    outb     %al, $0xd4
0x07fbbded:  e8 56 16 13 f8           calll    0xed448

----------------
IN: 
0x000ed448:  b0 11                    movb     $0x11, %al
0x000ed44a:  e6 20                    outb     %al, $0x20
0x000ed44c:  e6 a0                    outb     %al, $0xa0
0x000ed44e:  b0 08                    movb     $8, %al
0x000ed450:  e6 21                    outb     %al, $0x21
0x000ed452:  b0 70                    movb     $0x70, %al
0x000ed454:  e6 a1                    outb     %al, $0xa1
0x000ed456:  b0 04                    movb     $4, %al
0x000ed458:  e6 21                    outb     %al, $0x21
0x000ed45a:  b0 02                    movb     $2, %al
0x000ed45c:  e6 a1                    outb     %al, $0xa1
0x000ed45e:  b0 01                    movb     $1, %al
0x000ed460:  e6 21                    outb     %al, $0x21
0x000ed462:  e6 a1                    outb     %al, $0xa1
0x000ed464:  b0 fb                    movb     $0xfb, %al
0x000ed466:  e6 21                    outb     %al, $0x21
0x000ed468:  b0 ff                    movb     $0xff, %al
0x000ed46a:  e6 a1                    outb     %al, $0xa1
0x000ed46c:  c3                       retl     

----------------
IN: 
0x07fbbdf2:  c6 05 59 54 0f 00 01     movb     $1, 0xf5459
0x07fbbdf9:  b8 01 00 00 00           movl     $1, %eax
0x07fbbdfe:  e8 89 22 13 f8           calll    0xee08c

----------------
IN: 
0x000ee08c:  53                       pushl    %ebx
0x000ee08d:  52                       pushl    %edx
0x000ee08e:  89 c3                    movl     %eax, %ebx
0x000ee090:  89 e0                    movl     %esp, %eax
0x000ee092:  3d 00 70 00 00           cmpl     $0x7000, %eax
0x000ee097:  76 0c                    jbe      0xee0a5

----------------
IN: 
0x000ee0a5:  b9 18 00 00 00           movl     $0x18, %ecx
0x000ee0aa:  31 d2                    xorl     %edx, %edx
0x000ee0ac:  b8 1c c0 0e 00           movl     $0xec01c, %eax
0x000ee0b1:  e8 0b e1 ff ff           calll    0xec1c1

----------------
IN: 
0x000ee0b6:  85 db                    testl    %ebx, %ebx
0x000ee0b8:  74 07                    je       0xee0c1

----------------
IN: 
0x000ee0ba:  c6 05 1c c0 0e 00 01     movb     $1, 0xec01c
0x000ee0c1:  c6 05 1e c0 0e 00 01     movb     $1, 0xec01e
0x000ee0c8:  58                       popl     %eax
0x000ee0c9:  5b                       popl     %ebx
0x000ee0ca:  c3                       retl     

----------------
IN: 
0x07fbbe03:  ba 01 00 00 00           movl     $1, %edx
0x07fbbe08:  31 c9                    xorl     %ecx, %ecx
0x07fbbe0a:  b8 2e 45 0f 00           movl     $0xf452e, %eax
0x07fbbe0f:  e8 6c 11 ff ff           calll    0x7facf80

----------------
IN: 
0x07facf76:  31 c0                    xorl     %eax, %eax
0x07facf78:  eb 02                    jmp      0x7facf7c

----------------
IN: 
0x07facf7c:  5b                       popl     %ebx
0x07facf7d:  5e                       popl     %esi
0x07facf7e:  5f                       popl     %edi
0x07facf7f:  c3                       retl     

----------------
IN: 
0x07facf98:  89 f0                    movl     %esi, %eax
0x07facf9a:  89 fa                    movl     %edi, %edx
0x07facf9c:  eb 3b                    jmp      0x7facfd9

----------------
IN: 
0x07facfd9:  59                       popl     %ecx
0x07facfda:  5b                       popl     %ebx
0x07facfdb:  5b                       popl     %ebx
0x07facfdc:  5e                       popl     %esi
0x07facfdd:  5f                       popl     %edi
0x07facfde:  5d                       popl     %ebp
0x07facfdf:  c3                       retl     

----------------
IN: 
0x07fbbe14:  a2 58 54 0f 00           movb     %al, 0xf5458
0x07fbbe19:  66 83 0d 10 04 00 00 02  orw      $2, 0x410
0x07fbbe21:  b8 00 20 00 00           movl     $0x2000, %eax
0x07fbbe26:  e8 f5 0c ff ff           calll    0x7facb20

----------------
IN: 
0x07facb20:  89 c1                    movl     %eax, %ecx
0x07facb22:  e4 21                    inb      $0x21, %al
0x07facb24:  88 ca                    movb     %cl, %dl
0x07facb26:  f7 d2                    notl     %edx
0x07facb28:  21 d0                    andl     %edx, %eax
0x07facb2a:  e6 21                    outb     %al, $0x21
0x07facb2c:  e4 a1                    inb      $-0x5f, %al
0x07facb2e:  66 c1 e9 08              shrw     $8, %cx
0x07facb32:  f7 d1                    notl     %ecx
0x07facb34:  21 c8                    andl     %ecx, %eax
0x07facb36:  e6 a1                    outb     %al, $0xa1
0x07facb38:  c3                       retl     

----------------
IN: 
0x07fbbe2b:  b8 69 d4 0f 00           movl     $0xfd469, %eax
0x07fbbe30:  66 a3 d4 01 00 00        movw     %ax, 0x1d4
0x07fbbe36:  66 c7 05 d6 01 00 00 00  movw     $0xf000, 0x1d6
0x07fbbe3e:  f0
0x07fbbe3f:  e8 80 a6 ff ff           calll    0x7fb64c4

----------------
IN: 
0x07fb64c4:  55                       pushl    %ebp
0x07fb64c5:  57                       pushl    %edi
0x07fb64c6:  56                       pushl    %esi
0x07fb64c7:  53                       pushl    %ebx
0x07fb64c8:  81 ec a4 00 00 00        subl     $0xa4, %esp
0x07fb64ce:  e8 8f 5b 13 f8           calll    0xec062

----------------
IN: 
0x07fb64d3:  89 44 24 48              movl     %eax, 0x48(%esp)
0x07fb64d7:  85 c0                    testl    %eax, %eax
0x07fb64d9:  0f 84 b3 01 00 00        je       0x7fb6692

----------------
IN: 
0x07fb6692:  c7 04 24 c2 38 0f 00     movl     $0xf38c2, (%esp)
0x07fb6699:  e8 27 7c 13 f8           calll    0xee2c5

----------------
IN: 
0x07fb669e:  ba f8 0c 00 00           movl     $0xcf8, %edx
0x07fb66a3:  b8 00 00 00 80           movl     $0x80000000, %eax
0x07fb66a8:  ef                       outl     %eax, %dx
0x07fb66a9:  ed                       inl      %dx, %eax
0x07fb66aa:  3d 00 00 00 80           cmpl     $0x80000000, %eax
0x07fb66af:  0f 84 6e 1c 00 00        je       0x7fb8323

----------------
IN: 
0x07fb8323:  31 d2                    xorl     %edx, %edx
0x07fb8325:  31 c9                    xorl     %ecx, %ecx
0x07fb8327:  b8 b3 29 0f 00           movl     $0xf29b3, %eax
0x07fb832c:  e8 4f 4c ff ff           calll    0x7facf80

----------------
IN: 
0x07fb8331:  89 c3                    movl     %eax, %ebx
0x07fb8333:  c6 84 24 84 00 00 00 00  movb     $0, 0x84(%esp)
0x07fb833b:  8d 94 24 84 00 00 00     leal     0x84(%esp), %edx
0x07fb8342:  31 c0                    xorl     %eax, %eax
0x07fb8344:  e8 7e 6d ff ff           calll    0x7faf0c7

----------------
IN: 
0x07faf0c7:  55                       pushl    %ebp
0x07faf0c8:  57                       pushl    %edi
0x07faf0c9:  56                       pushl    %esi
0x07faf0ca:  53                       pushl    %ebx
0x07faf0cb:  83 ec 1c                 subl     $0x1c, %esp
0x07faf0ce:  89 c7                    movl     %eax, %edi
0x07faf0d0:  89 d3                    movl     %edx, %ebx
0x07faf0d2:  89 44 24 08              movl     %eax, 8(%esp)
0x07faf0d6:  c7 44 24 04 08 e1 fb 07  movl     $0x7fbe108, 4(%esp)
0x07faf0de:  c7 04 24 ce 26 0f 00     movl     $0xf26ce, (%esp)
0x07faf0e5:  e8 db f1 13 f8           calll    0xee2c5

----------------
IN: 
0x000edd3e:  8d 7d 04                 leal     4(%ebp), %edi
0x000edd41:  8b 6d 00                 movl     (%ebp), %ebp
0x000edd44:  0f be 55 00              movsbl   (%ebp), %edx
0x000edd48:  84 d2                    testb    %dl, %dl
0x000edd4a:  74 1c                    je       0xedd68

----------------
IN: 
0x000edd4c:  89 d8                    movl     %ebx, %eax
0x000edd4e:  e8 5a e3 ff ff           calll    0xec0ad

----------------
IN: 
0x000edd53:  45                       incl     %ebp
0x000edd54:  eb ee                    jmp      0xedd44

----------------
IN: 
0x000edd44:  0f be 55 00              movsbl   (%ebp), %edx
0x000edd48:  84 d2                    testb    %dl, %dl
0x000edd4a:  74 1c                    je       0xedd68

----------------
IN: 
0x07faf0ea:  89 fd                    movl     %edi, %ebp
0x07faf0ec:  c1 e5 08                 shll     $8, %ebp
0x07faf0ef:  0f b7 ed                 movzwl   %bp, %ebp
0x07faf0f2:  8d 45 ff                 leal     -1(%ebp), %eax
0x07faf0f5:  89 44 24 0c              movl     %eax, 0xc(%esp)
0x07faf0f9:  89 fa                    movl     %edi, %edx
0x07faf0fb:  e8 d6 d1 13 f8           calll    0xec2d6

----------------
IN: 
0x000ec2d6:  57                       pushl    %edi
0x000ec2d7:  56                       pushl    %esi
0x000ec2d8:  53                       pushl    %ebx
0x000ec2d9:  89 c3                    movl     %eax, %ebx
0x000ec2db:  89 d7                    movl     %edx, %edi
0x000ec2dd:  0f b7 c0                 movzwl   %ax, %eax
0x000ec2e0:  a8 07                    testb    $7, %al
0x000ec2e2:  75 32                    jne      0xec316

----------------
IN: 
0x000ec316:  43                       incl     %ebx
0x000ec317:  eb dc                    jmp      0xec2f5

----------------
IN: 
0x000ec2f5:  0f b7 f3                 movzwl   %bx, %esi
0x000ec2f8:  89 f0                    movl     %esi, %eax
0x000ec2fa:  c1 e8 08                 shrl     $8, %eax
0x000ec2fd:  39 f8                    cmpl     %edi, %eax
0x000ec2ff:  75 18                    jne      0xec319

----------------
IN: 
0x000ec301:  31 d2                    xorl     %edx, %edx
0x000ec303:  89 f0                    movl     %esi, %eax
0x000ec305:  e8 71 ff ff ff           calll    0xec27b

----------------
IN: 
0x000ec27b:  53                       pushl    %ebx
0x000ec27c:  89 d3                    movl     %edx, %ebx
0x000ec27e:  89 d1                    movl     %edx, %ecx
0x000ec280:  81 e1 fc 00 00 00        andl     $0xfc, %ecx
0x000ec286:  81 c9 00 00 00 80        orl      $0x80000000, %ecx
0x000ec28c:  0f b7 c0                 movzwl   %ax, %eax
0x000ec28f:  c1 e0 08                 shll     $8, %eax
0x000ec292:  09 c1                    orl      %eax, %ecx
0x000ec294:  ba f8 0c 00 00           movl     $0xcf8, %edx
0x000ec299:  89 c8                    movl     %ecx, %eax
0x000ec29b:  ef                       outl     %eax, %dx
0x000ec29c:  83 e3 02                 andl     $2, %ebx
0x000ec29f:  8d 93 fc 0c 00 00        leal     0xcfc(%ebx), %edx
0x000ec2a5:  66 ed                    inw      %dx, %ax
0x000ec2a7:  5b                       popl     %ebx
0x000ec2a8:  c3                       retl     

----------------
IN: 
0x000ec30a:  48                       decl     %eax
0x000ec30b:  66 83 f8 fd              cmpw     $-3, %ax
0x000ec30f:  76 0d                    jbe      0xec31e

----------------
IN: 
0x000ec31e:  89 d8                    movl     %ebx, %eax
0x000ec320:  5b                       popl     %ebx
0x000ec321:  5e                       popl     %esi
0x000ec322:  5f                       popl     %edi
0x000ec323:  c3                       retl     

----------------
IN: 
0x07faf100:  89 c6                    movl     %eax, %esi
0x07faf102:  85 c0                    testl    %eax, %eax
0x07faf104:  78 3a                    js       0x7faf140

----------------
IN: 
0x07faf106:  0f b7 ee                 movzwl   %si, %ebp
0x07faf109:  ba 0a 00 00 00           movl     $0xa, %edx
0x07faf10e:  89 e8                    movl     %ebp, %eax
0x07faf110:  e8 66 d1 13 f8           calll    0xec27b

----------------
IN: 
0x07faf115:  66 3d 04 06              cmpw     $0x604, %ax
0x07faf119:  75 1f                    jne      0x7faf13a

----------------
IN: 
0x07faf13a:  89 fa                    movl     %edi, %edx
0x07faf13c:  89 f0                    movl     %esi, %eax
0x07faf13e:  eb bb                    jmp      0x7faf0fb

----------------
IN: 
0x07faf0fb:  e8 d6 d1 13 f8           calll    0xec2d6

----------------
IN: 
0x000ec2e4:  ba 0e 00 00 00           movl     $0xe, %edx
0x000ec2e9:  e8 bb ff ff ff           calll    0xec2a9

----------------
IN: 
0x000ec2a9:  53                       pushl    %ebx
0x000ec2aa:  89 d3                    movl     %edx, %ebx
0x000ec2ac:  89 d1                    movl     %edx, %ecx
0x000ec2ae:  81 e1 fc 00 00 00        andl     $0xfc, %ecx
0x000ec2b4:  81 c9 00 00 00 80        orl      $0x80000000, %ecx
0x000ec2ba:  0f b7 c0                 movzwl   %ax, %eax
0x000ec2bd:  c1 e0 08                 shll     $8, %eax
0x000ec2c0:  09 c1                    orl      %eax, %ecx
0x000ec2c2:  ba f8 0c 00 00           movl     $0xcf8, %edx
0x000ec2c7:  89 c8                    movl     %ecx, %eax
0x000ec2c9:  ef                       outl     %eax, %dx
0x000ec2ca:  83 e3 03                 andl     $3, %ebx
0x000ec2cd:  8d 93 fc 0c 00 00        leal     0xcfc(%ebx), %edx
0x000ec2d3:  ec                       inb      %dx, %al
0x000ec2d4:  5b                       popl     %ebx
0x000ec2d5:  c3                       retl     

----------------
IN: 
0x000ec2ee:  84 c0                    testb    %al, %al
0x000ec2f0:  78 24                    js       0xec316

----------------
IN: 
0x000ec2f2:  83 c3 08                 addl     $8, %ebx
0x000ec2f5:  0f b7 f3                 movzwl   %bx, %esi
0x000ec2f8:  89 f0                    movl     %esi, %eax
0x000ec2fa:  c1 e8 08                 shrl     $8, %eax
0x000ec2fd:  39 f8                    cmpl     %edi, %eax
0x000ec2ff:  75 18                    jne      0xec319

----------------
IN: 
0x000ec311:  83 e6 07                 andl     $7, %esi
0x000ec314:  74 dc                    je       0xec2f2

----------------
IN: 
0x000ec319:  83 c8 ff                 orl      $0xffffffff, %eax
0x000ec31c:  eb 02                    jmp      0xec320

----------------
IN: 
0x000ec320:  5b                       popl     %ebx
0x000ec321:  5e                       popl     %esi
0x000ec322:  5f                       popl     %edi
0x000ec323:  c3                       retl     

----------------
IN: 
0x07faf140:  89 fa                    movl     %edi, %edx
0x07faf142:  8b 44 24 0c              movl     0xc(%esp), %eax
0x07faf146:  e8 8b d1 13 f8           calll    0xec2d6

----------------
IN: 
0x07faf14b:  89 c5                    movl     %eax, %ebp
0x07faf14d:  89 f8                    movl     %edi, %eax
0x07faf14f:  0f b6 c0                 movzbl   %al, %eax
0x07faf152:  89 44 24 18              movl     %eax, 0x18(%esp)
0x07faf156:  85 ed                    testl    %ebp, %ebp
0x07faf158:  0f 88 e4 01 00 00        js       0x7faf342

----------------
IN: 
0x07faf15e:  0f b7 f5                 movzwl   %bp, %esi
0x07faf161:  ba 0a 00 00 00           movl     $0xa, %edx
0x07faf166:  89 f0                    movl     %esi, %eax
0x07faf168:  e8 0e d1 13 f8           calll    0xec27b

----------------
IN: 
0x07faf16d:  66 3d 04 06              cmpw     $0x604, %ax
0x07faf171:  0f 85 bb 01 00 00        jne      0x7faf332

----------------
IN: 
0x07faf332:  89 fa                    movl     %edi, %edx
0x07faf334:  89 e8                    movl     %ebp, %eax
0x07faf336:  e8 9b cf 13 f8           calll    0xec2d6

----------------
IN: 
0x07faf33b:  89 c5                    movl     %eax, %ebp
0x07faf33d:  e9 14 fe ff ff           jmp      0x7faf156

----------------
IN: 
0x07faf156:  85 ed                    testl    %ebp, %ebp
0x07faf158:  0f 88 e4 01 00 00        js       0x7faf342

----------------
IN: 
0x07faf342:  83 c4 1c                 addl     $0x1c, %esp
0x07faf345:  5b                       popl     %ebx
0x07faf346:  5e                       popl     %esi
0x07faf347:  5f                       popl     %edi
0x07faf348:  5d                       popl     %ebp
0x07faf349:  c3                       retl     

----------------
IN: 
0x07fb8349:  84 db                    testb    %bl, %bl
0x07fb834b:  74 24                    je       0x7fb8371

----------------
IN: 
0x07fb8371:  c7 04 24 fa 38 0f 00     movl     $0xf38fa, (%esp)
0x07fb8378:  e8 48 5f 13 f8           calll    0xee2c5

----------------
IN: 
0x07fb837d:  e8 91 76 ff ff           calll    0x7fafa13

----------------
IN: 
0x07fafa13:  55                       pushl    %ebp
0x07fafa14:  57                       pushl    %edi
0x07fafa15:  56                       pushl    %esi
0x07fafa16:  53                       pushl    %ebx
0x07fafa17:  81 ec 20 04 00 00        subl     $0x420, %esp
0x07fafa1d:  b9 00 04 00 00           movl     $0x400, %ecx
0x07fafa22:  31 d2                    xorl     %edx, %edx
0x07fafa24:  8d 44 24 20              leal     0x20(%esp), %eax
0x07fafa28:  e8 94 c7 13 f8           calll    0xec1c1

----------------
IN: 
0x07fafa2d:  31 d2                    xorl     %edx, %edx
0x07fafa2f:  31 c9                    xorl     %ecx, %ecx
0x07fafa31:  b8 b3 29 0f 00           movl     $0xf29b3, %eax
0x07fafa36:  e8 45 d5 ff ff           calll    0x7facf80

----------------
IN: 
0x07fafa3b:  89 44 24 18              movl     %eax, 0x18(%esp)
0x07fafa3f:  c7 44 24 14 00 00 00 00  movl     $0, 0x14(%esp)
0x07fafa47:  c7 44 24 0c 00 00 00 00  movl     $0, 0xc(%esp)
0x07fafa4f:  c7 44 24 10 00 00 00 00  movl     $0, 0x10(%esp)
0x07fafa57:  83 cb ff                 orl      $0xffffffff, %ebx
0x07fafa5a:  bd 38 fe fb 07           movl     $0x7fbfe38, %ebp
0x07fafa5f:  3b 1d 6c 5c 0f 00        cmpl     0xf5c6c, %ebx
0x07fafa65:  0f 8d 34 01 00 00        jge      0x7fafb9f

----------------
IN: 
0x07fafa6b:  43                       incl     %ebx
0x07fafa6c:  89 d8                    movl     %ebx, %eax
0x07fafa6e:  c1 e0 08                 shll     $8, %eax
0x07fafa71:  48                       decl     %eax
0x07fafa72:  89 da                    movl     %ebx, %edx
0x07fafa74:  e8 5d c8 13 f8           calll    0xec2d6

----------------
IN: 
0x07fafa79:  89 c7                    movl     %eax, %edi
0x07fafa7b:  85 ff                    testl    %edi, %edi
0x07fafa7d:  0f 88 0e 01 00 00        js       0x7fafb91

----------------
IN: 
0x07fafa83:  b8 20 00 00 00           movl     $0x20, %eax
0x07fafa88:  e8 46 de ff ff           calll    0x7fad8d3

----------------
IN: 
0x07fafa8d:  89 c6                    movl     %eax, %esi
0x07fafa8f:  85 c0                    testl    %eax, %eax
0x07fafa91:  75 14                    jne      0x7fafaa7

----------------
IN: 
0x07fafaa7:  b9 20 00 00 00           movl     $0x20, %ecx
0x07fafaac:  31 d2                    xorl     %edx, %edx
0x07fafaae:  e8 0e c7 13 f8           calll    0xec1c1

----------------
IN: 
0x07fafab3:  8d 46 04                 leal     4(%esi), %eax
0x07fafab6:  89 44 24 1c              movl     %eax, 0x1c(%esp)
0x07fafaba:  89 ea                    movl     %ebp, %edx
0x07fafabc:  e8 ae ba ff ff           calll    0x7fab56f

----------------
IN: 
0x07fafac1:  ff 44 24 14              incl     0x14(%esp)
0x07fafac5:  8b 54 9c 20              movl     0x20(%esp, %ebx, 4), %edx
0x07fafac9:  85 d2                    testl    %edx, %edx
0x07fafacb:  75 1d                    jne      0x7fafaea

----------------
IN: 
0x07fafacd:  31 c0                    xorl     %eax, %eax
0x07fafacf:  3b 5c 24 10              cmpl     0x10(%esp), %ebx
0x07fafad3:  0f 95 c0                 setne    %al
0x07fafad6:  01 44 24 0c              addl     %eax, 0xc(%esp)
0x07fafada:  3b 1d 6c 5c 0f 00        cmpl     0xf5c6c, %ebx
0x07fafae0:  7e 0e                    jle      0x7fafaf0

----------------
IN: 
0x07fafaf0:  8b 44 24 0c              movl     0xc(%esp), %eax
0x07fafaf4:  89 5c 24 10              movl     %ebx, 0x10(%esp)
0x07fafaf8:  66 89 3e                 movw     %di, (%esi)
0x07fafafb:  89 56 0c                 movl     %edx, 0xc(%esi)
0x07fafafe:  88 46 02                 movb     %al, 2(%esi)
0x07fafb01:  0f b7 ef                 movzwl   %di, %ebp
0x07fafb04:  31 d2                    xorl     %edx, %edx
0x07fafb06:  89 e8                    movl     %ebp, %eax
0x07fafb08:  e8 4c c7 13 f8           calll    0xec259

----------------
IN: 
0x000ec259:  89 d1                    movl     %edx, %ecx
0x000ec25b:  81 e1 fc 00 00 00        andl     $0xfc, %ecx
0x000ec261:  81 c9 00 00 00 80        orl      $0x80000000, %ecx
0x000ec267:  0f b7 c0                 movzwl   %ax, %eax
0x000ec26a:  c1 e0 08                 shll     $8, %eax
0x000ec26d:  09 c1                    orl      %eax, %ecx
0x000ec26f:  ba f8 0c 00 00           movl     $0xcf8, %edx
0x000ec274:  89 c8                    movl     %ecx, %eax
0x000ec276:  ef                       outl     %eax, %dx
0x000ec277:  b2 fc                    movb     $0xfc, %dl
0x000ec279:  ed                       inl      %dx, %eax
0x000ec27a:  c3                       retl     

----------------
IN: 
0x07fafb0d:  66 89 46 10              movw     %ax, 0x10(%esi)
0x07fafb11:  c1 e8 10                 shrl     $0x10, %eax
0x07fafb14:  66 89 46 12              movw     %ax, 0x12(%esi)
0x07fafb18:  ba 08 00 00 00           movl     $8, %edx
0x07fafb1d:  89 e8                    movl     %ebp, %eax
0x07fafb1f:  e8 35 c7 13 f8           calll    0xec259

----------------
IN: 
0x07fafb24:  89 c2                    movl     %eax, %edx
0x07fafb26:  c1 ea 10                 shrl     $0x10, %edx
0x07fafb29:  66 89 56 14              movw     %dx, 0x14(%esi)
0x07fafb2d:  89 c2                    movl     %eax, %edx
0x07fafb2f:  c1 ea 08                 shrl     $8, %edx
0x07fafb32:  88 56 16                 movb     %dl, 0x16(%esi)
0x07fafb35:  88 46 17                 movb     %al, 0x17(%esi)
0x07fafb38:  ba 0e 00 00 00           movl     $0xe, %edx
0x07fafb3d:  89 e8                    movl     %ebp, %eax
0x07fafb3f:  e8 65 c7 13 f8           calll    0xec2a9

----------------
IN: 
0x07fafb44:  88 46 18                 movb     %al, 0x18(%esi)
0x07fafb47:  83 e0 7f                 andl     $0x7f, %eax
0x07fafb4a:  48                       decl     %eax
0x07fafb4b:  3c 01                    cmpb     $1, %al
0x07fafb4d:  77 2e                    ja       0x7fafb7d

----------------
IN: 
0x07fafb7d:  89 da                    movl     %ebx, %edx
0x07fafb7f:  89 f8                    movl     %edi, %eax
0x07fafb81:  e8 50 c7 13 f8           calll    0xec2d6

----------------
IN: 
0x07fafb86:  89 c7                    movl     %eax, %edi
0x07fafb88:  8b 6c 24 1c              movl     0x1c(%esp), %ebp
0x07fafb8c:  e9 ea fe ff ff           jmp      0x7fafa7b

----------------
IN: 
0x07fafa7b:  85 ff                    testl    %edi, %edi
0x07fafa7d:  0f 88 0e 01 00 00        js       0x7fafb91

----------------
IN: 
0x07fafb91:  81 fb ff 00 00 00        cmpl     $0xff, %ebx
0x07fafb97:  0f 85 c2 fe ff ff        jne      0x7fafa5f

----------------
IN: 
0x07fafa5f:  3b 1d 6c 5c 0f 00        cmpl     0xf5c6c, %ebx
0x07fafa65:  0f 8d 34 01 00 00        jge      0x7fafb9f

----------------
IN: 
0x07fafb9f:  8b 44 24 18              movl     0x18(%esp), %eax
0x07fafba3:  39 44 24 0c              cmpl     %eax, 0xc(%esp)
0x07fafba7:  0f 8c be fe ff ff        jl       0x7fafa6b

----------------
IN: 
0x07fafbad:  a1 6c 5c 0f 00           movl     0xf5c6c, %eax
0x07fafbb2:  89 44 24 08              movl     %eax, 8(%esp)
0x07fafbb6:  8b 44 24 14              movl     0x14(%esp), %eax
0x07fafbba:  89 44 24 04              movl     %eax, 4(%esp)
0x07fafbbe:  c7 04 24 c7 29 0f 00     movl     $0xf29c7, (%esp)
0x07fafbc5:  e8 fb e6 13 f8           calll    0xee2c5

----------------
IN: 
0x07fafbca:  81 c4 20 04 00 00        addl     $0x420, %esp
0x07fafbd0:  5b                       popl     %ebx
0x07fafbd1:  5e                       popl     %esi
0x07fafbd2:  5f                       popl     %edi
0x07fafbd3:  5d                       popl     %ebp
0x07fafbd4:  c3                       retl     

----------------
IN: 
0x07fb8382:  a1 40 ff fb 07           movl     0x7fbff40, %eax
0x07fb8387:  a3 10 fe fb 07           movl     %eax, 0x7fbfe10
0x07fb838c:  c7 05 14 fe fb 07 00 00  movl     $0, 0x7fbfe14
0x07fb8394:  00 00
0x07fb8396:  a1 38 fe fb 07           movl     0x7fbfe38, %eax
0x07fb839b:  8d 58 fc                 leal     -4(%eax), %ebx
0x07fb839e:  83 fb fc                 cmpl     $0xfc, %ebx
0x07fb83a1:  0f 84 b6 e4 ff ff        je       0x7fb685d

----------------
IN: 
0x07fb83a7:  31 c9                    xorl     %ecx, %ecx
0x07fb83a9:  89 da                    movl     %ebx, %edx
0x07fb83ab:  b8 00 fa fb 07           movl     $0x7fbfa00, %eax
0x07fb83b0:  e8 70 3a ff ff           calll    0x7fabe25

----------------
IN: 
0x07fabe25:  56                       pushl    %esi
0x07fabe26:  53                       pushl    %ebx
0x07fabe27:  89 d3                    movl     %edx, %ebx
0x07fabe29:  89 ca                    movl     %ecx, %edx
0x07fabe2b:  8b 30                    movl     (%eax), %esi
0x07fabe2d:  85 f6                    testl    %esi, %esi
0x07fabe2f:  74 3b                    je       0x7fabe6c

----------------
IN: 
0x07fabe31:  83 fe ff                 cmpl     $0xff, %esi
0x07fabe34:  74 08                    je       0x7fabe3e

----------------
IN: 
0x07fabe36:  0f b7 4b 10              movzwl   0x10(%ebx), %ecx
0x07fabe3a:  39 ce                    cmpl     %ecx, %esi
0x07fabe3c:  75 29                    jne      0x7fabe67

----------------
IN: 
0x07fabe3e:  8b 70 04                 movl     4(%eax), %esi
0x07fabe41:  83 fe ff                 cmpl     $0xff, %esi
0x07fabe44:  74 08                    je       0x7fabe4e

----------------
IN: 
0x07fabe46:  0f b7 4b 12              movzwl   0x12(%ebx), %ecx
0x07fabe4a:  39 ce                    cmpl     %ecx, %esi
0x07fabe4c:  75 19                    jne      0x7fabe67

----------------
IN: 
0x07fabe4e:  0f b7 73 14              movzwl   0x14(%ebx), %esi
0x07fabe52:  33 70 08                 xorl     8(%eax), %esi
0x07fabe55:  85 70 0c                 testl    %esi, 0xc(%eax)
0x07fabe58:  75 0d                    jne      0x7fabe67

----------------
IN: 
0x07fabe5a:  8b 70 10                 movl     0x10(%eax), %esi
0x07fabe5d:  85 f6                    testl    %esi, %esi
0x07fabe5f:  74 16                    je       0x7fabe77

----------------
IN: 
0x07fabe61:  89 d8                    movl     %ebx, %eax
0x07fabe63:  ff d6                    calll    *%esi

----------------
IN: 
0x07fabfc8:  a1 40 ff fb 07           movl     0x7fbff40, %eax
0x07fabfcd:  3d 00 00 00 80           cmpl     $0x80000000, %eax
0x07fabfd2:  77 0c                    ja       0x7fabfe0

----------------
IN: 
0x07fabfd4:  c7 05 10 fe fb 07 00 00  movl     $0x80000000, 0x7fbfe10
0x07fabfdc:  00 80
0x07fabfde:  eb 11                    jmp      0x7fabff1

----------------
IN: 
0x07fabff1:  c7 05 14 fe fb 07 00 00  movl     $0, 0x7fbfe14
0x07fabff9:  00 00
0x07fabffb:  c7 05 f0 fd fb 07 29 bf  movl     $0x7fabf29, 0x7fbfdf0
0x07fac003:  fa 07
0x07fac005:  c3                       retl     

----------------
IN: 
0x07fabe65:  eb 10                    jmp      0x7fabe77

----------------
IN: 
0x07fabe77:  31 c0                    xorl     %eax, %eax
0x07fabe79:  5b                       popl     %ebx
0x07fabe7a:  5e                       popl     %esi
0x07fabe7b:  c3                       retl     

----------------
IN: 
0x07fb83b5:  8b 5b 04                 movl     4(%ebx), %ebx
0x07fb83b8:  83 eb 04                 subl     $4, %ebx
0x07fb83bb:  eb e1                    jmp      0x7fb839e

----------------
IN: 
0x07fb839e:  83 fb fc                 cmpl     $0xfc, %ebx
0x07fb83a1:  0f 84 b6 e4 ff ff        je       0x7fb685d

----------------
IN: 
0x07fabe67:  83 c0 14                 addl     $0x14, %eax
0x07fabe6a:  eb bf                    jmp      0x7fabe2b

----------------
IN: 
0x07fabe2b:  8b 30                    movl     (%eax), %esi
0x07fabe2d:  85 f6                    testl    %esi, %esi
0x07fabe2f:  74 3b                    je       0x7fabe6c

----------------
IN: 
0x07fabe6c:  83 78 0c 00              cmpl     $0, 0xc(%eax)
0x07fabe70:  75 c4                    jne      0x7fabe36

----------------
IN: 
0x07fabe72:  83 c8 ff                 orl      $0xffffffff, %eax
0x07fabe75:  eb 02                    jmp      0x7fabe79

----------------
IN: 
0x07fabe79:  5b                       popl     %ebx
0x07fabe7a:  5e                       popl     %esi
0x07fabe7b:  c3                       retl     

----------------
IN: 
0x07fb685d:  c7 04 24 16 39 0f 00     movl     $0xf3916, (%esp)
0x07fb6864:  e8 5c 7a 13 f8           calll    0xee2c5

----------------
IN: 
0x07fb6869:  a1 6c 5c 0f 00           movl     0xf5c6c, %eax
0x07fb686e:  40                       incl     %eax
0x07fb686f:  6b c0 28                 imull    $0x28, %eax, %eax
0x07fb6872:  e8 5c 70 ff ff           calll    0x7fad8d3

----------------
IN: 
0x07fb6877:  89 44 24 20              movl     %eax, 0x20(%esp)
0x07fb687b:  85 c0                    testl    %eax, %eax
0x07fb687d:  0f 85 3e fe ff ff        jne      0x7fb66c1

----------------
IN: 
0x07fb66c1:  a1 6c 5c 0f 00           movl     0xf5c6c, %eax
0x07fb66c6:  8d 48 01                 leal     1(%eax), %ecx
0x07fb66c9:  6b c9 28                 imull    $0x28, %ecx, %ecx
0x07fb66cc:  31 d2                    xorl     %edx, %edx
0x07fb66ce:  8b 44 24 20              movl     0x20(%esp), %eax
0x07fb66d2:  e8 ea 5a 13 f8           calll    0xec1c1

----------------
IN: 
0x07fb66d7:  c7 04 24 3a 39 0f 00     movl     $0xf393a, (%esp)
0x07fb66de:  e8 e2 7b 13 f8           calll    0xee2c5

----------------
IN: 
0x07fb66e3:  a1 38 fe fb 07           movl     0x7fbfe38, %eax
0x07fb66e8:  8d 58 fc                 leal     -4(%eax), %ebx
0x07fb66eb:  83 fb fc                 cmpl     $0xfc, %ebx
0x07fb66ee:  0f 85 c9 1c 00 00        jne      0x7fb83bd

----------------
IN: 
0x07fb83bd:  66 81 7b 14 04 06        cmpw     $0x604, 0x14(%ebx)
0x07fb83c3:  75 0f                    jne      0x7fb83d4

----------------
IN: 
0x07fb83d4:  8b 03                    movl     (%ebx), %eax
0x07fb83d6:  0f b6 c4                 movzbl   %ah, %eax
0x07fb83d9:  6b c0 28                 imull    $0x28, %eax, %eax
0x07fb83dc:  03 44 24 20              addl     0x20(%esp), %eax
0x07fb83e0:  89 44 24 50              movl     %eax, 0x50(%esp)
0x07fb83e4:  83 78 24 00              cmpl     $0, 0x24(%eax)
0x07fb83e8:  75 08                    jne      0x7fb83f2

----------------
IN: 
0x07fb83ea:  8b 44 24 20              movl     0x20(%esp), %eax
0x07fb83ee:  89 44 24 50              movl     %eax, 0x50(%esp)
0x07fb83f2:  c7 44 24 24 00 00 00 00  movl     $0, 0x24(%esp)
0x07fb83fa:  66 81 7b 14 04 06        cmpw     $0x604, 0x14(%ebx)
0x07fb8400:  75 10                    jne      0x7fb8412

----------------
IN: 
0x07fb8412:  8b 44 24 24              movl     0x24(%esp), %eax
0x07fb8416:  83 f8 06                 cmpl     $6, %eax
0x07fb8419:  74 09                    je       0x7fb8424

----------------
IN: 
0x07fb841b:  8d 04 85 10 00 00 00     leal     0x10(, %eax, 4), %eax
0x07fb8422:  eb 15                    jmp      0x7fb8439

----------------
IN: 
0x07fb8439:  89 44 24 2c              movl     %eax, 0x2c(%esp)
0x07fb843d:  0f b7 03                 movzwl   (%ebx), %eax
0x07fb8440:  89 44 24 34              movl     %eax, 0x34(%esp)
0x07fb8444:  8b 54 24 2c              movl     0x2c(%esp), %edx
0x07fb8448:  e8 0c 3e 13 f8           calll    0xec259

----------------
IN: 
0x07fb844d:  89 44 24 4c              movl     %eax, 0x4c(%esp)
0x07fb8451:  83 7c 24 24 06           cmpl     $6, 0x24(%esp)
0x07fb8456:  75 2c                    jne      0x7fb8484

----------------
IN: 
0x07fb8484:  f6 44 24 4c 01           testb    $1, 0x4c(%esp)
0x07fb8489:  75 33                    jne      0x7fb84be

----------------
IN: 
0x07fb848b:  8b 4c 24 4c              movl     0x4c(%esp), %ecx
0x07fb848f:  89 c8                    movl     %ecx, %eax
0x07fb8491:  83 e0 08                 andl     $8, %eax
0x07fb8494:  83 f8 01                 cmpl     $1, %eax
0x07fb8497:  19 c0                    sbbl     %eax, %eax
0x07fb8499:  89 44 24 3c              movl     %eax, 0x3c(%esp)
0x07fb849d:  83 44 24 3c 02           addl     $2, 0x3c(%esp)
0x07fb84a2:  89 c8                    movl     %ecx, %eax
0x07fb84a4:  83 e0 06                 andl     $6, %eax
0x07fb84a7:  83 f8 04                 cmpl     $4, %eax
0x07fb84aa:  0f 94 c0                 sete     %al
0x07fb84ad:  0f b6 c0                 movzbl   %al, %eax
0x07fb84b0:  89 44 24 40              movl     %eax, 0x40(%esp)
0x07fb84b4:  c7 44 24 44 f0 ff ff ff  movl     $0xfffffff0, 0x44(%esp)
0x07fb84bc:  eb 18                    jmp      0x7fb84d6

----------------
IN: 
0x07fb84d6:  83 c9 ff                 orl      $0xffffffff, %ecx
0x07fb84d9:  8b 54 24 2c              movl     0x2c(%esp), %edx
0x07fb84dd:  8b 44 24 34              movl     0x34(%esp), %eax
0x07fb84e1:  e8 e6 3c 13 f8           calll    0xec1cc

----------------
IN: 
0x000ec1cc:  53                       pushl    %ebx
0x000ec1cd:  89 d3                    movl     %edx, %ebx
0x000ec1cf:  81 e3 fc 00 00 00        andl     $0xfc, %ebx
0x000ec1d5:  81 cb 00 00 00 80        orl      $0x80000000, %ebx
0x000ec1db:  0f b7 d0                 movzwl   %ax, %edx
0x000ec1de:  c1 e2 08                 shll     $8, %edx
0x000ec1e1:  09 d3                    orl      %edx, %ebx
0x000ec1e3:  ba f8 0c 00 00           movl     $0xcf8, %edx
0x000ec1e8:  89 d8                    movl     %ebx, %eax
0x000ec1ea:  ef                       outl     %eax, %dx
0x000ec1eb:  b2 fc                    movb     $0xfc, %dl
0x000ec1ed:  89 c8                    movl     %ecx, %eax
0x000ec1ef:  ef                       outl     %eax, %dx
0x000ec1f0:  5b                       popl     %ebx
0x000ec1f1:  c3                       retl     

----------------
IN: 
0x07fb84e6:  8b 54 24 2c              movl     0x2c(%esp), %edx
0x07fb84ea:  8b 6c 24 34              movl     0x34(%esp), %ebp
0x07fb84ee:  89 e8                    movl     %ebp, %eax
0x07fb84f0:  e8 64 3d 13 f8           calll    0xec259

----------------
IN: 
0x07fb84f5:  89 44 24 54              movl     %eax, 0x54(%esp)
0x07fb84f9:  8b 4c 24 4c              movl     0x4c(%esp), %ecx
0x07fb84fd:  8b 54 24 2c              movl     0x2c(%esp), %edx
0x07fb8501:  89 e8                    movl     %ebp, %eax
0x07fb8503:  e8 c4 3c 13 f8           calll    0xec1cc

----------------
IN: 
0x07fb8508:  83 7c 24 40 00           cmpl     $0, 0x40(%esp)
0x07fb850d:  74 5f                    je       0x7fb856e

----------------
IN: 
0x07fb856e:  8b 44 24 54              movl     0x54(%esp), %eax
0x07fb8572:  23 44 24 44              andl     0x44(%esp), %eax
0x07fb8576:  f7 d8                    negl     %eax
0x07fb8578:  89 c6                    movl     %eax, %esi
0x07fb857a:  31 ff                    xorl     %edi, %edi
0x07fb857c:  89 f8                    movl     %edi, %eax
0x07fb857e:  09 f0                    orl      %esi, %eax
0x07fb8580:  74 59                    je       0x7fb85db

----------------
IN: 
0x07fb85db:  ff 44 24 24              incl     0x24(%esp)
0x07fb85df:  83 7c 24 24 06           cmpl     $6, 0x24(%esp)
0x07fb85e4:  0f 8e 10 fe ff ff        jle      0x7fb83fa

----------------
IN: 
0x07fb83fa:  66 81 7b 14 04 06        cmpw     $0x604, 0x14(%ebx)
0x07fb8400:  75 10                    jne      0x7fb8412

----------------
IN: 
0x07fb8424:  8a 43 18                 movb     0x18(%ebx), %al
0x07fb8427:  83 e0 7f                 andl     $0x7f, %eax
0x07fb842a:  fe c8                    decb     %al
0x07fb842c:  0f 94 c0                 sete     %al
0x07fb842f:  0f b6 c0                 movzbl   %al, %eax
0x07fb8432:  8d 04 c5 30 00 00 00     leal     0x30(, %eax, 8), %eax
0x07fb8439:  89 44 24 2c              movl     %eax, 0x2c(%esp)
0x07fb843d:  0f b7 03                 movzwl   (%ebx), %eax
0x07fb8440:  89 44 24 34              movl     %eax, 0x34(%esp)
0x07fb8444:  8b 54 24 2c              movl     0x2c(%esp), %edx
0x07fb8448:  e8 0c 3e 13 f8           calll    0xec259

----------------
IN: 
0x07fb8458:  b9 00 f8 ff ff           movl     $0xfffff800, %ecx
0x07fb845d:  8b 54 24 2c              movl     0x2c(%esp), %edx
0x07fb8461:  8b 44 24 34              movl     0x34(%esp), %eax
0x07fb8465:  e8 62 3d 13 f8           calll    0xec1cc

----------------
IN: 
0x07fb846a:  c7 44 24 44 00 f8 ff ff  movl     $0xfffff800, 0x44(%esp)
0x07fb8472:  c7 44 24 3c 01 00 00 00  movl     $1, 0x3c(%esp)
0x07fb847a:  c7 44 24 40 00 00 00 00  movl     $0, 0x40(%esp)
0x07fb8482:  eb 62                    jmp      0x7fb84e6

----------------
IN: 
0x07fb85ea:  8b 43 04                 movl     4(%ebx), %eax
0x07fb85ed:  e9 f6 e0 ff ff           jmp      0x7fb66e8

----------------
IN: 
0x07fb66e8:  8d 58 fc                 leal     -4(%eax), %ebx
0x07fb66eb:  83 fb fc                 cmpl     $0xfc, %ebx
0x07fb66ee:  0f 85 c9 1c 00 00        jne      0x7fb83bd

----------------
IN: 
0x07fb84be:  c7 44 24 44 fc ff ff ff  movl     $0xfffffffc, 0x44(%esp)
0x07fb84c6:  c7 44 24 3c 00 00 00 00  movl     $0, 0x3c(%esp)
0x07fb84ce:  c7 44 24 40 00 00 00 00  movl     $0, 0x40(%esp)
0x07fb84d6:  83 c9 ff                 orl      $0xffffffff, %ecx
0x07fb84d9:  8b 54 24 2c              movl     0x2c(%esp), %edx
0x07fb84dd:  8b 44 24 34              movl     0x34(%esp), %eax
0x07fb84e1:  e8 e6 3c 13 f8           calll    0xec1cc

----------------
IN: 
0x07fb8582:  83 7c 24 3c 00           cmpl     $0, 0x3c(%esp)
0x07fb8587:  74 14                    je       0x7fb859d

----------------
IN: 
0x07fb859d:  8b 6c 24 40              movl     0x40(%esp), %ebp
0x07fb85a1:  89 6c 24 14              movl     %ebp, 0x14(%esp)
0x07fb85a5:  8b 4c 24 3c              movl     0x3c(%esp), %ecx
0x07fb85a9:  89 4c 24 10              movl     %ecx, 0x10(%esp)
0x07fb85ad:  89 74 24 08              movl     %esi, 8(%esp)
0x07fb85b1:  89 7c 24 0c              movl     %edi, 0xc(%esp)
0x07fb85b5:  89 34 24                 movl     %esi, (%esp)
0x07fb85b8:  89 7c 24 04              movl     %edi, 4(%esp)
0x07fb85bc:  8b 4c 24 24              movl     0x24(%esp), %ecx
0x07fb85c0:  89 da                    movl     %ebx, %edx
0x07fb85c2:  8b 44 24 50              movl     0x50(%esp), %eax
0x07fb85c6:  e8 1d 57 ff ff           calll    0x7fadce8

----------------
IN: 
0x07fadce8:  55                       pushl    %ebp
0x07fadce9:  57                       pushl    %edi
0x07fadcea:  56                       pushl    %esi
0x07fadceb:  53                       pushl    %ebx
0x07fadcec:  83 ec 10                 subl     $0x10, %esp
0x07fadcef:  89 c6                    movl     %eax, %esi
0x07fadcf1:  89 54 24 08              movl     %edx, 8(%esp)
0x07fadcf5:  89 4c 24 0c              movl     %ecx, 0xc(%esp)
0x07fadcf9:  8b 7c 24 24              movl     0x24(%esp), %edi
0x07fadcfd:  8b 6c 24 28              movl     0x28(%esp), %ebp
0x07fadd01:  8b 44 24 2c              movl     0x2c(%esp), %eax
0x07fadd05:  89 04 24                 movl     %eax, (%esp)
0x07fadd08:  8b 44 24 30              movl     0x30(%esp), %eax
0x07fadd0c:  89 44 24 04              movl     %eax, 4(%esp)
0x07fadd10:  b8 28 00 00 00           movl     $0x28, %eax
0x07fadd15:  e8 b9 fb ff ff           calll    0x7fad8d3

----------------
IN: 
0x07fadd1a:  89 c3                    movl     %eax, %ebx
0x07fadd1c:  85 c0                    testl    %eax, %eax
0x07fadd1e:  75 16                    jne      0x7fadd36

----------------
IN: 
0x07fadd36:  b9 28 00 00 00           movl     $0x28, %ecx
0x07fadd3b:  31 d2                    xorl     %edx, %edx
0x07fadd3d:  e8 7f e4 13 f8           calll    0xec1c1

----------------
IN: 
0x07fadd42:  8b 44 24 08              movl     8(%esp), %eax
0x07fadd46:  89 03                    movl     %eax, (%ebx)
0x07fadd48:  8b 44 24 0c              movl     0xc(%esp), %eax
0x07fadd4c:  89 43 04                 movl     %eax, 4(%ebx)
0x07fadd4f:  89 7b 08                 movl     %edi, 8(%ebx)
0x07fadd52:  89 6b 0c                 movl     %ebp, 0xc(%ebx)
0x07fadd55:  8b 04 24                 movl     (%esp), %eax
0x07fadd58:  89 43 10                 movl     %eax, 0x10(%ebx)
0x07fadd5b:  8b 44 24 04              movl     4(%esp), %eax
0x07fadd5f:  89 43 14                 movl     %eax, 0x14(%ebx)
0x07fadd62:  8b 44 24 38              movl     0x38(%esp), %eax
0x07fadd66:  89 43 18                 movl     %eax, 0x18(%ebx)
0x07fadd69:  8b 44 24 34              movl     0x34(%esp), %eax
0x07fadd6d:  89 43 1c                 movl     %eax, 0x1c(%ebx)
0x07fadd70:  6b c0 0c                 imull    $0xc, %eax, %eax
0x07fadd73:  8d 54 06 08              leal     8(%esi, %eax), %edx
0x07fadd77:  8b 02                    movl     (%edx), %eax
0x07fadd79:  85 c0                    testl    %eax, %eax
0x07fadd7b:  75 0c                    jne      0x7fadd89

----------------
IN: 
0x07fadd7d:  8d 43 20                 leal     0x20(%ebx), %eax
0x07fadd80:  e8 ea d7 ff ff           calll    0x7fab56f

----------------
IN: 
0x07fadd85:  89 d8                    movl     %ebx, %eax
0x07fadd87:  eb 30                    jmp      0x7faddb9

----------------
IN: 
0x07faddb9:  83 c4 10                 addl     $0x10, %esp
0x07faddbc:  5b                       popl     %ebx
0x07faddbd:  5e                       popl     %esi
0x07faddbe:  5f                       popl     %edi
0x07faddbf:  5d                       popl     %ebp
0x07faddc0:  c3                       retl     

----------------
IN: 
0x07fb85cb:  85 c0                    testl    %eax, %eax
0x07fb85cd:  0f 84 be e2 ff ff        je       0x7fb6891

----------------
IN: 
0x07fb85d3:  83 fd 01                 cmpl     $1, %ebp
0x07fb85d6:  83 5c 24 24 ff           sbbl     $-1, 0x24(%esp)
0x07fb85db:  ff 44 24 24              incl     0x24(%esp)
0x07fb85df:  83 7c 24 24 06           cmpl     $6, 0x24(%esp)
0x07fb85e4:  0f 8e 10 fe ff ff        jle      0x7fb83fa

----------------
IN: 
0x07fb8589:  83 ff 00                 cmpl     $0, %edi
0x07fb858c:  77 0f                    ja       0x7fb859d

----------------
IN: 
0x07fb858e:  81 fe ff 0f 00 00        cmpl     $0xfff, %esi
0x07fb8594:  77 07                    ja       0x7fb859d

----------------
IN: 
0x07fadd89:  8b 48 f0                 movl     -0x10(%eax), %ecx
0x07fadd8c:  8b 70 f4                 movl     -0xc(%eax), %esi
0x07fadd8f:  3b 74 24 04              cmpl     4(%esp), %esi
0x07fadd93:  72 e8                    jb       0x7fadd7d

----------------
IN: 
0x07fadd95:  76 1b                    jbe      0x7faddb2

----------------
IN: 
0x07faddb2:  3b 0c 24                 cmpl     (%esp), %ecx
0x07faddb5:  72 c6                    jb       0x7fadd7d

----------------
IN: 
0x07fb66f4:  a1 6c 5c 0f 00           movl     0xf5c6c, %eax
0x07fb66f9:  89 44 24 4c              movl     %eax, 0x4c(%esp)
0x07fb66fd:  6b c0 28                 imull    $0x28, %eax, %eax
0x07fb6700:  03 44 24 20              addl     0x20(%esp), %eax
0x07fb6704:  89 44 24 2c              movl     %eax, 0x2c(%esp)
0x07fb6708:  83 7c 24 4c 00           cmpl     $0, 0x4c(%esp)
0x07fb670d:  0f 8f df 1e 00 00        jg       0x7fb85f2

----------------
IN: 
0x07fb6713:  c7 04 24 a5 3b 0f 00     movl     $0xf3ba5, (%esp)
0x07fb671a:  e8 a6 7b 13 f8           calll    0xee2c5

----------------
IN: 
0x07fb671f:  8b 44 24 20              movl     0x20(%esp), %eax
0x07fb6723:  e8 de 58 ff ff           calll    0x7fac006

----------------
IN: 
0x07fac006:  55                       pushl    %ebp
0x07fac007:  89 e5                    movl     %esp, %ebp
0x07fac009:  8b 48 08                 movl     8(%eax), %ecx
0x07fac00c:  83 e9 20                 subl     $0x20, %ecx
0x07fac00f:  31 c0                    xorl     %eax, %eax
0x07fac011:  31 d2                    xorl     %edx, %edx
0x07fac013:  83 f9 e0                 cmpl     $0xe0, %ecx
0x07fac016:  74 0e                    je       0x7fac026

----------------
IN: 
0x07fac018:  03 41 08                 addl     8(%ecx), %eax
0x07fac01b:  13 51 0c                 adcl     0xc(%ecx), %edx
0x07fac01e:  8b 49 20                 movl     0x20(%ecx), %ecx
0x07fac021:  83 e9 20                 subl     $0x20, %ecx
0x07fac024:  eb ed                    jmp      0x7fac013

----------------
IN: 
0x07fac013:  83 f9 e0                 cmpl     $0xe0, %ecx
0x07fac016:  74 0e                    je       0x7fac026

----------------
IN: 
0x07fac026:  5d                       popl     %ebp
0x07fac027:  c3                       retl     

----------------
IN: 
0x07fb6728:  83 fa 00                 cmpl     $0, %edx
0x07fb672b:  0f 87 cc 22 00 00        ja       0x7fb89fd

----------------
IN: 
0x07fb6731:  3d ff 3f 00 00           cmpl     $0x3fff, %eax
0x07fb6736:  0f 87 c1 22 00 00        ja       0x7fb89fd

----------------
IN: 
0x07fb673c:  8b 74 24 20              movl     0x20(%esp), %esi
0x07fb6740:  c7 06 00 c0 00 00        movl     $0xc000, (%esi)
0x07fb6746:  c7 46 04 00 00 00 00     movl     $0, 4(%esi)
0x07fb674d:  8b 6c 24 20              movl     0x20(%esp), %ebp
0x07fb6751:  8b 7d 04                 movl     4(%ebp), %edi
0x07fb6754:  8b 75 00                 movl     (%ebp), %esi
0x07fb6757:  89 f1                    movl     %esi, %ecx
0x07fb6759:  89 fb                    movl     %edi, %ebx
0x07fb675b:  83 c1 ff                 addl     $-1, %ecx
0x07fb675e:  83 d3 ff                 adcl     $-1, %ebx
0x07fb6761:  01 c1                    addl     %eax, %ecx
0x07fb6763:  11 d3                    adcl     %edx, %ebx
0x07fb6765:  89 4c 24 0c              movl     %ecx, 0xc(%esp)
0x07fb6769:  89 5c 24 10              movl     %ebx, 0x10(%esp)
0x07fb676d:  89 74 24 04              movl     %esi, 4(%esp)
0x07fb6771:  89 7c 24 08              movl     %edi, 8(%esp)
0x07fb6775:  c7 04 24 e4 39 0f 00     movl     $0xf39e4, (%esp)
0x07fb677c:  e8 44 7b 13 f8           calll    0xee2c5

----------------
IN: 
0x07fb6781:  c7 44 24 0c 00 00 c0 fe  movl     $0xfec00000, 0xc(%esp)
0x07fb6789:  c7 44 24 10 00 00 00 00  movl     $0, 0x10(%esp)
0x07fb6791:  a1 10 fe fb 07           movl     0x7fbfe10, %eax
0x07fb6796:  8b 15 14 fe fb 07        movl     0x7fbfe14, %edx
0x07fb679c:  89 44 24 04              movl     %eax, 4(%esp)
0x07fb67a0:  89 54 24 08              movl     %edx, 8(%esp)
0x07fb67a4:  c7 04 24 fc 39 0f 00     movl     $0xf39fc, (%esp)
0x07fb67ab:  e8 15 7b 13 f8           calll    0xee2c5

----------------
IN: 
0x07fb67b0:  89 e8                    movl     %ebp, %eax
0x07fb67b2:  e8 d6 65 ff ff           calll    0x7facd8d

----------------
IN: 
0x07facd8d:  55                       pushl    %ebp
0x07facd8e:  57                       pushl    %edi
0x07facd8f:  56                       pushl    %esi
0x07facd90:  53                       pushl    %ebx
0x07facd91:  83 ec 10                 subl     $0x10, %esp
0x07facd94:  8d 70 18                 leal     0x18(%eax), %esi
0x07facd97:  8d 78 0c                 leal     0xc(%eax), %edi
0x07facd9a:  8b 50 14                 movl     0x14(%eax), %edx
0x07facd9d:  85 d2                    testl    %edx, %edx
0x07facd9f:  74 08                    je       0x7facda9

----------------
IN: 
0x07facda1:  8b 4a f0                 movl     -0x10(%edx), %ecx
0x07facda4:  8b 52 f4                 movl     -0xc(%edx), %edx
0x07facda7:  eb 07                    jmp      0x7facdb0

----------------
IN: 
0x07facdb0:  8b 40 20                 movl     0x20(%eax), %eax
0x07facdb3:  85 c0                    testl    %eax, %eax
0x07facdb5:  74 0c                    je       0x7facdc3

----------------
IN: 
0x07facdb7:  8b 58 f0                 movl     -0x10(%eax), %ebx
0x07facdba:  8b 40 f4                 movl     -0xc(%eax), %eax
0x07facdbd:  39 c2                    cmpl     %eax, %edx
0x07facdbf:  72 17                    jb       0x7facdd8

----------------
IN: 
0x07facdc1:  eb 07                    jmp      0x7facdca

----------------
IN: 
0x07facdca:  39 c2                    cmpl     %eax, %edx
0x07facdcc:  77 04                    ja       0x7facdd2

----------------
IN: 
0x07facdce:  39 d9                    cmpl     %ebx, %ecx
0x07facdd0:  72 06                    jb       0x7facdd8

----------------
IN: 
0x07facdd8:  89 f8                    movl     %edi, %eax
0x07facdda:  e8 27 f2 ff ff           calll    0x7fac006

----------------
IN: 
0x07facddf:  8b 4f 08                 movl     8(%edi), %ecx
0x07facde2:  85 c9                    testl    %ecx, %ecx
0x07facde4:  74 08                    je       0x7facdee

----------------
IN: 
0x07facde6:  8b 59 f4                 movl     -0xc(%ecx), %ebx
0x07facde9:  8b 49 f0                 movl     -0x10(%ecx), %ecx
0x07facdec:  eb 07                    jmp      0x7facdf5

----------------
IN: 
0x07facdf5:  f7 d9                    negl     %ecx
0x07facdf7:  83 d3 00                 adcl     $0, %ebx
0x07facdfa:  f7 db                    negl     %ebx
0x07facdfc:  89 4c 24 08              movl     %ecx, 8(%esp)
0x07face00:  89 5c 24 0c              movl     %ebx, 0xc(%esp)
0x07face04:  b9 00 00 c0 fe           movl     $0xfec00000, %ecx
0x07face09:  31 db                    xorl     %ebx, %ebx
0x07face0b:  29 c1                    subl     %eax, %ecx
0x07face0d:  19 d3                    sbbl     %edx, %ebx
0x07face0f:  8b 44 24 08              movl     8(%esp), %eax
0x07face13:  8b 54 24 0c              movl     0xc(%esp), %edx
0x07face17:  89 c5                    movl     %eax, %ebp
0x07face19:  21 cd                    andl     %ecx, %ebp
0x07face1b:  89 2c 24                 movl     %ebp, (%esp)
0x07face1e:  21 d3                    andl     %edx, %ebx
0x07face20:  89 5c 24 04              movl     %ebx, 4(%esp)
0x07face24:  8b 04 24                 movl     (%esp), %eax
0x07face27:  8b 54 24 04              movl     4(%esp), %edx
0x07face2b:  89 07                    movl     %eax, (%edi)
0x07face2d:  89 57 04                 movl     %edx, 4(%edi)
0x07face30:  89 f0                    movl     %esi, %eax
0x07face32:  e8 cf f1 ff ff           calll    0x7fac006

----------------
IN: 
0x07face37:  8b 4e 08                 movl     8(%esi), %ecx
0x07face3a:  85 c9                    testl    %ecx, %ecx
0x07face3c:  74 08                    je       0x7face46

----------------
IN: 
0x07face3e:  8b 59 f4                 movl     -0xc(%ecx), %ebx
0x07face41:  8b 49 f0                 movl     -0x10(%ecx), %ecx
0x07face44:  eb 07                    jmp      0x7face4d

----------------
IN: 
0x07face4d:  f7 d9                    negl     %ecx
0x07face4f:  83 d3 00                 adcl     $0, %ebx
0x07face52:  f7 db                    negl     %ebx
0x07face54:  8b 3c 24                 movl     (%esp), %edi
0x07face57:  8b 6c 24 04              movl     4(%esp), %ebp
0x07face5b:  29 c7                    subl     %eax, %edi
0x07face5d:  19 d5                    sbbl     %edx, %ebp
0x07face5f:  89 ea                    movl     %ebp, %edx
0x07face61:  21 f9                    andl     %edi, %ecx
0x07face63:  21 da                    andl     %ebx, %edx
0x07face65:  89 0e                    movl     %ecx, (%esi)
0x07face67:  89 56 04                 movl     %edx, 4(%esi)
0x07face6a:  3b 15 14 fe fb 07        cmpl     0x7fbfe14, %edx
0x07face70:  72 23                    jb       0x7face95

----------------
IN: 
0x07face72:  77 08                    ja       0x7face7c

----------------
IN: 
0x07face74:  3b 0d 10 fe fb 07        cmpl     0x7fbfe10, %ecx
0x07face7a:  72 19                    jb       0x7face95

----------------
IN: 
0x07face7c:  b8 01 00 00 00           movl     $1, %eax
0x07face81:  83 fa 00                 cmpl     $0, %edx
0x07face84:  77 0b                    ja       0x7face91

----------------
IN: 
0x07face86:  31 c0                    xorl     %eax, %eax
0x07face88:  81 f9 00 00 c0 fe        cmpl     $0xfec00000, %ecx
0x07face8e:  0f 97 c0                 seta     %al
0x07face91:  f7 d8                    negl     %eax
0x07face93:  eb 03                    jmp      0x7face98

----------------
IN: 
0x07face98:  83 c4 10                 addl     $0x10, %esp
0x07face9b:  5b                       popl     %ebx
0x07face9c:  5e                       popl     %esi
0x07face9d:  5f                       popl     %edi
0x07face9e:  5d                       popl     %ebp
0x07face9f:  c3                       retl     

----------------
IN: 
0x07fb67b7:  85 c0                    testl    %eax, %eax
0x07fb67b9:  0f 84 43 24 00 00        je       0x7fb8c02

----------------
IN: 
0x07fb8c02:  c7 05 08 fe fb 07 00 00  movl     $0, 0x7fbfe08
0x07fb8c0a:  00 00
0x07fb8c0c:  c7 05 0c fe fb 07 00 00  movl     $0, 0x7fbfe0c
0x07fb8c14:  00 00
0x07fb8c16:  eb e2                    jmp      0x7fb8bfa

----------------
IN: 
0x07fb8bfa:  8b 5c 24 20              movl     0x20(%esp), %ebx
0x07fb8bfe:  31 f6                    xorl     %esi, %esi
0x07fb8c00:  eb 16                    jmp      0x7fb8c18

----------------
IN: 
0x07fb8c18:  3b 35 6c 5c 0f 00        cmpl     0xf5c6c, %esi
0x07fb8c1e:  0f 8f ef db ff ff        jg       0x7fb6813

----------------
IN: 
0x07fb8c24:  89 da                    movl     %ebx, %edx
0x07fb8c26:  8b 7c 24 20              movl     0x20(%esp), %edi
0x07fb8c2a:  89 f8                    movl     %edi, %eax
0x07fb8c2c:  e8 2d 67 ff ff           calll    0x7faf35e

----------------
IN: 
0x07faf35e:  55                       pushl    %ebp
0x07faf35f:  57                       pushl    %edi
0x07faf360:  56                       pushl    %esi
0x07faf361:  53                       pushl    %ebx
0x07faf362:  83 ec 38                 subl     $0x38, %esp
0x07faf365:  89 44 24 34              movl     %eax, 0x34(%esp)
0x07faf369:  89 d5                    movl     %edx, %ebp
0x07faf36b:  8b 42 08                 movl     8(%edx), %eax
0x07faf36e:  8d 70 e0                 leal     -0x20(%eax), %esi
0x07faf371:  83 fe e0                 cmpl     $0xe0, %esi
0x07faf374:  0f 84 37 02 00 00        je       0x7faf5b1

----------------
IN: 
0x07faf37a:  8b 46 20                 movl     0x20(%esi), %eax
0x07faf37d:  89 44 24 30              movl     %eax, 0x30(%esp)
0x07faf381:  8b 45 00                 movl     (%ebp), %eax
0x07faf384:  8b 55 04                 movl     4(%ebp), %edx
0x07faf387:  89 c1                    movl     %eax, %ecx
0x07faf389:  89 d3                    movl     %edx, %ebx
0x07faf38b:  89 44 24 20              movl     %eax, 0x20(%esp)
0x07faf38f:  89 54 24 24              movl     %edx, 0x24(%esp)
0x07faf393:  8b 46 08                 movl     8(%esi), %eax
0x07faf396:  8b 56 0c                 movl     0xc(%esi), %edx
0x07faf399:  01 c1                    addl     %eax, %ecx
0x07faf39b:  11 d3                    adcl     %edx, %ebx
0x07faf39d:  89 4c 24 28              movl     %ecx, 0x28(%esp)
0x07faf3a1:  89 5c 24 2c              movl     %ebx, 0x2c(%esp)
0x07faf3a5:  89 4d 00                 movl     %ecx, (%ebp)
0x07faf3a8:  89 5d 04                 movl     %ebx, 4(%ebp)
0x07faf3ab:  8b 7e 04                 movl     4(%esi), %edi
0x07faf3ae:  83 ff ff                 cmpl     $0xff, %edi
0x07faf3b1:  75 25                    jne      0x7faf3d8

----------------
IN: 
0x07faf3d8:  85 ff                    testl    %edi, %edi
0x07faf3da:  0f 88 93 00 00 00        js       0x7faf473

----------------
IN: 
0x07faf3e0:  8b 4e 1c                 movl     0x1c(%esi), %ecx
0x07faf3e3:  8b 0c 8d 58 fb fb 07     movl     0x7fbfb58(, %ecx, 4), %ecx
0x07faf3ea:  89 4c 24 1c              movl     %ecx, 0x1c(%esp)
0x07faf3ee:  89 44 24 14              movl     %eax, 0x14(%esp)
0x07faf3f2:  89 54 24 18              movl     %edx, 0x18(%esp)
0x07faf3f6:  8b 44 24 20              movl     0x20(%esp), %eax
0x07faf3fa:  8b 54 24 24              movl     0x24(%esp), %edx
0x07faf3fe:  89 44 24 0c              movl     %eax, 0xc(%esp)
0x07faf402:  89 54 24 10              movl     %edx, 0x10(%esp)
0x07faf406:  89 7c 24 08              movl     %edi, 8(%esp)
0x07faf40a:  8b 06                    movl     (%esi), %eax
0x07faf40c:  89 44 24 04              movl     %eax, 4(%esp)
0x07faf410:  c7 04 24 2e 28 0f 00     movl     $0xf282e, (%esp)
0x07faf417:  e8 a9 ee 13 f8           calll    0xee2c5

----------------
IN: 
0x000edc3f:  8b 55 00                 movl     (%ebp), %edx
0x000edc42:  0f b6 d6                 movzbl   %dh, %edx
0x000edc45:  b9 02 00 00 00           movl     $2, %ecx
0x000edc4a:  89 d8                    movl     %ebx, %eax
0x000edc4c:  e8 77 e4 ff ff           calll    0xec0c8

----------------
IN: 
0x000edc51:  ba 3a 00 00 00           movl     $0x3a, %edx
0x000edc56:  89 d8                    movl     %ebx, %eax
0x000edc58:  e8 50 e4 ff ff           calll    0xec0ad

----------------
IN: 
0x000edc5d:  8b 55 00                 movl     (%ebp), %edx
0x000edc60:  66 c1 ea 03              shrw     $3, %dx
0x000edc64:  83 e2 1f                 andl     $0x1f, %edx
0x000edc67:  b9 02 00 00 00           movl     $2, %ecx
0x000edc6c:  89 d8                    movl     %ebx, %eax
0x000edc6e:  e8 55 e4 ff ff           calll    0xec0c8

----------------
IN: 
0x000edc73:  ba 2e 00 00 00           movl     $0x2e, %edx
0x000edc78:  89 d8                    movl     %ebx, %eax
0x000edc7a:  e8 2e e4 ff ff           calll    0xec0ad

----------------
IN: 
0x000edc7f:  8b 55 00                 movl     (%ebp), %edx
0x000edc82:  83 e2 07                 andl     $7, %edx
0x000edc85:  b9 01 00 00 00           movl     $1, %ecx
0x000edc8a:  89 d8                    movl     %ebx, %eax
0x000edc8c:  e8 37 e4 ff ff           calll    0xec0c8

----------------
IN: 
0x000edc91:  46                       incl     %esi
0x000edc92:  e9 d1 00 00 00           jmp      0xedd68

----------------
IN: 
0x07faf41c:  8b 46 18                 movl     0x18(%esi), %eax
0x07faf41f:  89 44 24 28              movl     %eax, 0x28(%esp)
0x07faf423:  8b 46 04                 movl     4(%esi), %eax
0x07faf426:  8b 1e                    movl     (%esi), %ebx
0x07faf428:  83 f8 06                 cmpl     $6, %eax
0x07faf42b:  74 09                    je       0x7faf436

----------------
IN: 
0x07faf42d:  8d 3c 85 10 00 00 00     leal     0x10(, %eax, 4), %edi
0x07faf434:  eb 15                    jmp      0x7faf44b

----------------
IN: 
0x07faf44b:  0f b7 03                 movzwl   (%ebx), %eax
0x07faf44e:  8b 4c 24 20              movl     0x20(%esp), %ecx
0x07faf452:  89 fa                    movl     %edi, %edx
0x07faf454:  e8 73 cd 13 f8           calll    0xec1cc

----------------
IN: 
0x07faf459:  83 7c 24 28 00           cmpl     $0, 0x28(%esp)
0x07faf45e:  0f 84 32 01 00 00        je       0x7faf596

----------------
IN: 
0x07faf596:  8d 46 20                 leal     0x20(%esi), %eax
0x07faf599:  e8 c2 bf ff ff           calll    0x7fab560

----------------
IN: 
0x07fab560:  8b 10                    movl     (%eax), %edx
0x07fab562:  8b 40 04                 movl     4(%eax), %eax
0x07fab565:  89 10                    movl     %edx, (%eax)
0x07fab567:  85 d2                    testl    %edx, %edx
0x07fab569:  74 03                    je       0x7fab56e

----------------
IN: 
0x07fab56b:  89 42 04                 movl     %eax, 4(%edx)
0x07fab56e:  c3                       retl     

----------------
IN: 
0x07faf59e:  89 f0                    movl     %esi, %eax
0x07faf5a0:  e8 8f dd ff ff           calll    0x7fad334

----------------
IN: 
0x07fad334:  85 c0                    testl    %eax, %eax
0x07fad336:  74 18                    je       0x7fad350

----------------
IN: 
0x07fad338:  e8 ab e5 ff ff           calll    0x7fab8e8

----------------
IN: 
0x07fab8e8:  56                       pushl    %esi
0x07fab8e9:  53                       pushl    %ebx
0x07fab8ea:  89 c6                    movl     %eax, %esi
0x07fab8ec:  e8 d7 ff ff ff           calll    0x7fab8c8

----------------
IN: 
0x07fab8c8:  31 c9                    xorl     %ecx, %ecx
0x07fab8ca:  8b 14 8d 9c fe fb 07     movl     0x7fbfe9c(, %ecx, 4), %edx
0x07fab8d1:  8b 12                    movl     (%edx), %edx
0x07fab8d3:  85 d2                    testl    %edx, %edx
0x07fab8d5:  74 08                    je       0x7fab8df

----------------
IN: 
0x07fab8d7:  39 42 08                 cmpl     %eax, 8(%edx)
0x07fab8da:  75 f5                    jne      0x7fab8d1

----------------
IN: 
0x07fab8d1:  8b 12                    movl     (%edx), %edx
0x07fab8d3:  85 d2                    testl    %edx, %edx
0x07fab8d5:  74 08                    je       0x7fab8df

----------------
IN: 
0x07fab8df:  41                       incl     %ecx
0x07fab8e0:  83 f9 05                 cmpl     $5, %ecx
0x07fab8e3:  75 e5                    jne      0x7fab8ca

----------------
IN: 
0x07fab8ca:  8b 14 8d 9c fe fb 07     movl     0x7fbfe9c(, %ecx, 4), %edx
0x07fab8d1:  8b 12                    movl     (%edx), %edx
0x07fab8d3:  85 d2                    testl    %edx, %edx
0x07fab8d5:  74 08                    je       0x7fab8df

----------------
IN: 
0x07fab8dc:  89 d0                    movl     %edx, %eax
0x07fab8de:  c3                       retl     

----------------
IN: 
0x07fab8f1:  89 c3                    movl     %eax, %ebx
0x07fab8f3:  85 c0                    testl    %eax, %eax
0x07fab8f5:  74 1b                    je       0x7fab912

----------------
IN: 
0x07fab8f7:  39 f0                    cmpl     %esi, %eax
0x07fab8f9:  74 17                    je       0x7fab912

----------------
IN: 
0x07fab8fb:  83 78 10 00              cmpl     $0, 0x10(%eax)
0x07fab8ff:  74 11                    je       0x7fab912

----------------
IN: 
0x07fab901:  e8 a9 ff ff ff           calll    0x7fab8af

----------------
IN: 
0x07fab8af:  8b 10                    movl     (%eax), %edx
0x07fab8b1:  85 d2                    testl    %edx, %edx
0x07fab8b3:  74 0e                    je       0x7fab8c3

----------------
IN: 
0x07fab8b5:  8b 48 08                 movl     8(%eax), %ecx
0x07fab8b8:  39 4a 0c                 cmpl     %ecx, 0xc(%edx)
0x07fab8bb:  75 06                    jne      0x7fab8c3

----------------
IN: 
0x07fab8bd:  8b 48 0c                 movl     0xc(%eax), %ecx
0x07fab8c0:  89 4a 0c                 movl     %ecx, 0xc(%edx)
0x07fab8c3:  e9 98 fc ff ff           jmp      0x7fab560

----------------
IN: 
0x07fab906:  8d 43 ec                 leal     -0x14(%ebx), %eax
0x07fab909:  e8 a1 ff ff ff           calll    0x7fab8af

----------------
IN: 
0x07fab90e:  31 c0                    xorl     %eax, %eax
0x07fab910:  eb 03                    jmp      0x7fab915

----------------
IN: 
0x07fab915:  5b                       popl     %ebx
0x07fab916:  5e                       popl     %esi
0x07fab917:  c3                       retl     

----------------
IN: 
0x07fad33d:  85 c0                    testl    %eax, %eax
0x07fad33f:  74 0f                    je       0x7fad350

----------------
IN: 
0x07fad350:  c3                       retl     

----------------
IN: 
0x07faf5a5:  8b 74 24 30              movl     0x30(%esp), %esi
0x07faf5a9:  83 ee 20                 subl     $0x20, %esi
0x07faf5ac:  e9 c0 fd ff ff           jmp      0x7faf371

----------------
IN: 
0x07faf371:  83 fe e0                 cmpl     $0xe0, %esi
0x07faf374:  0f 84 37 02 00 00        je       0x7faf5b1

----------------
IN: 
0x07fab56e:  c3                       retl     

----------------
IN: 
0x07faf5b1:  83 c4 38                 addl     $0x38, %esp
0x07faf5b4:  5b                       popl     %ebx
0x07faf5b5:  5e                       popl     %esi
0x07faf5b6:  5f                       popl     %edi
0x07faf5b7:  5d                       popl     %ebp
0x07faf5b8:  c3                       retl     

----------------
IN: 
0x07fb8c31:  8d 53 0c                 leal     0xc(%ebx), %edx
0x07fb8c34:  89 f8                    movl     %edi, %eax
0x07fb8c36:  e8 23 67 ff ff           calll    0x7faf35e

----------------
IN: 
0x07faf436:  8a 43 18                 movb     0x18(%ebx), %al
0x07faf439:  83 e0 7f                 andl     $0x7f, %eax
0x07faf43c:  fe c8                    decb     %al
0x07faf43e:  0f 94 c0                 sete     %al
0x07faf441:  0f b6 c0                 movzbl   %al, %eax
0x07faf444:  8d 3c c5 30 00 00 00     leal     0x30(, %eax, 8), %edi
0x07faf44b:  0f b7 03                 movzwl   (%ebx), %eax
0x07faf44e:  8b 4c 24 20              movl     0x20(%esp), %ecx
0x07faf452:  89 fa                    movl     %edi, %edx
0x07faf454:  e8 73 cd 13 f8           calll    0xec1cc

----------------
IN: 
0x07fb8c3b:  8d 53 18                 leal     0x18(%ebx), %edx
0x07fb8c3e:  89 f8                    movl     %edi, %eax
0x07fb8c40:  e8 19 67 ff ff           calll    0x7faf35e

----------------
IN: 
0x07fb8c45:  46                       incl     %esi
0x07fb8c46:  83 c3 28                 addl     $0x28, %ebx
0x07fb8c49:  eb cd                    jmp      0x7fb8c18

----------------
IN: 
0x07fb6813:  a1 38 fe fb 07           movl     0x7fbfe38, %eax
0x07fb6818:  8d 58 fc                 leal     -4(%eax), %ebx
0x07fb681b:  83 fb fc                 cmpl     $0xfc, %ebx
0x07fb681e:  0f 85 27 24 00 00        jne      0x7fb8c4b

----------------
IN: 
0x07fb8c4b:  0f b7 43 12              movzwl   0x12(%ebx), %eax
0x07fb8c4f:  89 44 24 0c              movl     %eax, 0xc(%esp)
0x07fb8c53:  0f b7 43 10              movzwl   0x10(%ebx), %eax
0x07fb8c57:  89 44 24 08              movl     %eax, 8(%esp)
0x07fb8c5b:  89 5c 24 04              movl     %ebx, 4(%esp)
0x07fb8c5f:  c7 04 24 6d 3a 0f 00     movl     $0xf3a6d, (%esp)
0x07fb8c66:  e8 5a 56 13 f8           calll    0xee2c5

----------------
IN: 
0x07fb8c6b:  0f b7 33                 movzwl   (%ebx), %esi
0x07fb8c6e:  ba 3d 00 00 00           movl     $0x3d, %edx
0x07fb8c73:  89 f0                    movl     %esi, %eax
0x07fb8c75:  e8 2f 36 13 f8           calll    0xec2a9

----------------
IN: 
0x07fb8c7a:  0f b6 d0                 movzbl   %al, %edx
0x07fb8c7d:  85 d2                    testl    %edx, %edx
0x07fb8c7f:  74 17                    je       0x7fb8c98

----------------
IN: 
0x07fb8c98:  31 c9                    xorl     %ecx, %ecx
0x07fb8c9a:  89 da                    movl     %ebx, %edx
0x07fb8c9c:  b8 3c fa fb 07           movl     $0x7fbfa3c, %eax
0x07fb8ca1:  e8 7f 31 ff ff           calll    0x7fabe25

----------------
IN: 
0x07fb8ca6:  b9 03 01 00 00           movl     $0x103, %ecx
0x07fb8cab:  ba 04 00 00 00           movl     $4, %edx
0x07fb8cb0:  89 f0                    movl     %esi, %eax
0x07fb8cb2:  e8 47 3e ff ff           calll    0x7facafe

----------------
IN: 
0x07facafe:  55                       pushl    %ebp
0x07facaff:  57                       pushl    %edi
0x07facb00:  56                       pushl    %esi
0x07facb01:  89 d7                    movl     %edx, %edi
0x07facb03:  89 cd                    movl     %ecx, %ebp
0x07facb05:  0f b7 f0                 movzwl   %ax, %esi
0x07facb08:  89 f0                    movl     %esi, %eax
0x07facb0a:  e8 6c f7 13 f8           calll    0xec27b

----------------
IN: 
0x07facb0f:  09 e8                    orl      %ebp, %eax
0x07facb11:  0f b7 c8                 movzwl   %ax, %ecx
0x07facb14:  89 fa                    movl     %edi, %edx
0x07facb16:  89 f0                    movl     %esi, %eax
0x07facb18:  5e                       popl     %esi
0x07facb19:  5f                       popl     %edi
0x07facb1a:  5d                       popl     %ebp
0x07facb1b:  e9 d2 f6 13 f8           jmp      0xec1f2

----------------
IN: 
0x000ec1f2:  57                       pushl    %edi
0x000ec1f3:  56                       pushl    %esi
0x000ec1f4:  53                       pushl    %ebx
0x000ec1f5:  89 d7                    movl     %edx, %edi
0x000ec1f7:  89 d3                    movl     %edx, %ebx
0x000ec1f9:  81 e3 fc 00 00 00        andl     $0xfc, %ebx
0x000ec1ff:  81 cb 00 00 00 80        orl      $0x80000000, %ebx
0x000ec205:  0f b7 f0                 movzwl   %ax, %esi
0x000ec208:  c1 e6 08                 shll     $8, %esi
0x000ec20b:  09 f3                    orl      %esi, %ebx
0x000ec20d:  ba f8 0c 00 00           movl     $0xcf8, %edx
0x000ec212:  89 d8                    movl     %ebx, %eax
0x000ec214:  ef                       outl     %eax, %dx
0x000ec215:  83 e7 02                 andl     $2, %edi
0x000ec218:  8d 97 fc 0c 00 00        leal     0xcfc(%edi), %edx
0x000ec21e:  89 c8                    movl     %ecx, %eax
0x000ec220:  66 ef                    outw     %ax, %dx
0x000ec222:  5b                       popl     %ebx
0x000ec223:  5e                       popl     %esi
0x000ec224:  5f                       popl     %edi
0x000ec225:  c3                       retl     

----------------
IN: 
0x07fb8cb7:  f6 43 18 01              testb    $1, 0x18(%ebx)
0x07fb8cbb:  74 11                    je       0x7fb8cce

----------------
IN: 
0x07fb8cce:  8b 5b 04                 movl     4(%ebx), %ebx
0x07fb8cd1:  83 eb 04                 subl     $4, %ebx
0x07fb8cd4:  e9 42 db ff ff           jmp      0x7fb681b

----------------
IN: 
0x07fb681b:  83 fb fc                 cmpl     $0xfc, %ebx
0x07fb681e:  0f 85 27 24 00 00        jne      0x7fb8c4b

----------------
IN: 
0x07faf5b9:  57                       pushl    %edi
0x07faf5ba:  56                       pushl    %esi
0x07faf5bb:  53                       pushl    %ebx
0x07faf5bc:  83 ec 10                 subl     $0x10, %esp
0x07faf5bf:  89 c6                    movl     %eax, %esi
0x07faf5c1:  c6 44 24 0e 00           movb     $0, 0xe(%esp)
0x07faf5c6:  c6 44 24 0f 00           movb     $0, 0xf(%esp)
0x07faf5cb:  bb 60 00 00 00           movl     $0x60, %ebx
0x07faf5d0:  8a 93 f4 fa fb 07        movb     0x7fbfaf4(%ebx), %dl
0x07faf5d6:  0f b6 fa                 movzbl   %dl, %edi
0x07faf5d9:  89 f8                    movl     %edi, %eax
0x07faf5db:  c1 f8 03                 sarl     $3, %eax
0x07faf5de:  88 d1                    movb     %dl, %cl
0x07faf5e0:  83 e1 07                 andl     $7, %ecx
0x07faf5e3:  ba 01 00 00 00           movl     $1, %edx
0x07faf5e8:  d3 e2                    shll     %cl, %edx
0x07faf5ea:  08 54 04 0e              orb      %dl, 0xe(%esp, %eax)
0x07faf5ee:  0f b7 06                 movzwl   (%esi), %eax
0x07faf5f1:  89 f9                    movl     %edi, %ecx
0x07faf5f3:  89 da                    movl     %ebx, %edx
0x07faf5f5:  e8 2c cc 13 f8           calll    0xec226

----------------
IN: 
0x000ec226:  57                       pushl    %edi
0x000ec227:  56                       pushl    %esi
0x000ec228:  53                       pushl    %ebx
0x000ec229:  89 d7                    movl     %edx, %edi
0x000ec22b:  89 d3                    movl     %edx, %ebx
0x000ec22d:  81 e3 fc 00 00 00        andl     $0xfc, %ebx
0x000ec233:  81 cb 00 00 00 80        orl      $0x80000000, %ebx
0x000ec239:  0f b7 f0                 movzwl   %ax, %esi
0x000ec23c:  c1 e6 08                 shll     $8, %esi
0x000ec23f:  09 f3                    orl      %esi, %ebx
0x000ec241:  ba f8 0c 00 00           movl     $0xcf8, %edx
0x000ec246:  89 d8                    movl     %ebx, %eax
0x000ec248:  ef                       outl     %eax, %dx
0x000ec249:  83 e7 03                 andl     $3, %edi
0x000ec24c:  8d 97 fc 0c 00 00        leal     0xcfc(%edi), %edx
0x000ec252:  88 c8                    movb     %cl, %al
0x000ec254:  ee                       outb     %al, %dx
0x000ec255:  5b                       popl     %ebx
0x000ec256:  5e                       popl     %esi
0x000ec257:  5f                       popl     %edi
0x000ec258:  c3                       retl     

----------------
IN: 
0x07faf5fa:  43                       incl     %ebx
0x07faf5fb:  83 fb 64                 cmpl     $0x64, %ebx
0x07faf5fe:  75 d0                    jne      0x7faf5d0

----------------
IN: 
0x07faf5d0:  8a 93 f4 fa fb 07        movb     0x7fbfaf4(%ebx), %dl
0x07faf5d6:  0f b6 fa                 movzbl   %dl, %edi
0x07faf5d9:  89 f8                    movl     %edi, %eax
0x07faf5db:  c1 f8 03                 sarl     $3, %eax
0x07faf5de:  88 d1                    movb     %dl, %cl
0x07faf5e0:  83 e1 07                 andl     $7, %ecx
0x07faf5e3:  ba 01 00 00 00           movl     $1, %edx
0x07faf5e8:  d3 e2                    shll     %cl, %edx
0x07faf5ea:  08 54 04 0e              orb      %dl, 0xe(%esp, %eax)
0x07faf5ee:  0f b7 06                 movzwl   (%esi), %eax
0x07faf5f1:  89 f9                    movl     %edi, %ecx
0x07faf5f3:  89 da                    movl     %ebx, %edx
0x07faf5f5:  e8 2c cc 13 f8           calll    0xec226

----------------
IN: 
0x07faf600:  0f b6 4c 24 0e           movzbl   0xe(%esp), %ecx
0x07faf605:  ba d0 04 00 00           movl     $0x4d0, %edx
0x07faf60a:  88 c8                    movb     %cl, %al
0x07faf60c:  ee                       outb     %al, %dx
0x07faf60d:  0f b6 44 24 0f           movzbl   0xf(%esp), %eax
0x07faf612:  b2 d1                    movb     $0xd1, %dl
0x07faf614:  ee                       outb     %al, %dx
0x07faf615:  89 44 24 08              movl     %eax, 8(%esp)
0x07faf619:  89 4c 24 04              movl     %ecx, 4(%esp)
0x07faf61d:  c7 04 24 6e 28 0f 00     movl     $0xf286e, (%esp)
0x07faf624:  e8 9c ec 13 f8           calll    0xee2c5

----------------
IN: 
0x07faf629:  83 c4 10                 addl     $0x10, %esp
0x07faf62c:  5b                       popl     %ebx
0x07faf62d:  5e                       popl     %esi
0x07faf62e:  5f                       popl     %edi
0x07faf62f:  c3                       retl     

----------------
IN: 
0x07fabf94:  53                       pushl    %ebx
0x07fabf95:  0f b7 18                 movzwl   (%eax), %ebx
0x07fabf98:  b9 00 80 00 00           movl     $0x8000, %ecx
0x07fabf9d:  ba 40 00 00 00           movl     $0x40, %edx
0x07fabfa2:  89 d8                    movl     %ebx, %eax
0x07fabfa4:  e8 49 02 14 f8           calll    0xec1f2

----------------
IN: 
0x07fabfa9:  b9 00 80 00 00           movl     $0x8000, %ecx
0x07fabfae:  ba 42 00 00 00           movl     $0x42, %edx
0x07fabfb3:  89 d8                    movl     %ebx, %eax
0x07fabfb5:  5b                       popl     %ebx
0x07fabfb6:  e9 37 02 14 f8           jmp      0xec1f2

----------------
IN: 
0x07fb8c81:  89 d8                    movl     %ebx, %eax
0x07fb8c83:  ff 15 f0 fd fb 07        calll    *0x7fbfdf0

----------------
IN: 
0x07fabf29:  53                       pushl    %ebx
0x07fabf2a:  31 c9                    xorl     %ecx, %ecx
0x07fabf2c:  8b 58 0c                 movl     0xc(%eax), %ebx
0x07fabf2f:  8b 00                    movl     (%eax), %eax
0x07fabf31:  66 c1 e8 03              shrw     $3, %ax
0x07fabf35:  83 e0 1f                 andl     $0x1f, %eax
0x07fabf38:  85 db                    testl    %ebx, %ebx
0x07fabf3a:  74 06                    je       0x7fabf42

----------------
IN: 
0x07fabf42:  8d 44 01 ff              leal     -1(%ecx, %eax), %eax
0x07fabf46:  8d 44 02 ff              leal     -1(%edx, %eax), %eax
0x07fabf4a:  83 e0 03                 andl     $3, %eax
0x07fabf4d:  0f b6 80 54 fb fb 07     movzbl   0x7fbfb54(%eax), %eax
0x07fabf54:  5b                       popl     %ebx
0x07fabf55:  c3                       retl     

----------------
IN: 
0x07fb8c89:  0f b6 c8                 movzbl   %al, %ecx
0x07fb8c8c:  ba 3c 00 00 00           movl     $0x3c, %edx
0x07fb8c91:  89 f0                    movl     %esi, %eax
0x07fb8c93:  e8 8e 35 13 f8           calll    0xec226

----------------
IN: 
0x07faeb16:  0f b7 00                 movzwl   (%eax), %eax
0x07faeb19:  a3 ec 50 0f 00           movl     %eax, 0xf50ec
0x07faeb1e:  e8 f4 d9 13 f8           calll    0xec517

----------------
IN: 
0x000ec517:  56                       pushl    %esi
0x000ec518:  53                       pushl    %ebx
0x000ec519:  0f b7 d8                 movzwl   %ax, %ebx
0x000ec51c:  b9 09 00 00 00           movl     $9, %ecx
0x000ec521:  ba 3c 00 00 00           movl     $0x3c, %edx
0x000ec526:  89 d8                    movl     %ebx, %eax
0x000ec528:  e8 f9 fc ff ff           calll    0xec226

----------------
IN: 
0x000ec52d:  0f b7 35 f8 50 0f 00     movzwl   0xf50f8, %esi
0x000ec534:  89 f1                    movl     %esi, %ecx
0x000ec536:  83 c9 01                 orl      $1, %ecx
0x000ec539:  0f b7 c9                 movzwl   %cx, %ecx
0x000ec53c:  ba 40 00 00 00           movl     $0x40, %edx
0x000ec541:  89 d8                    movl     %ebx, %eax
0x000ec543:  e8 84 fc ff ff           calll    0xec1cc

----------------
IN: 
0x000ec548:  b9 01 00 00 00           movl     $1, %ecx
0x000ec54d:  ba 80 00 00 00           movl     $0x80, %edx
0x000ec552:  89 d8                    movl     %ebx, %eax
0x000ec554:  e8 cd fc ff ff           calll    0xec226

----------------
IN: 
0x000ec559:  8d 8e 00 01 00 00        leal     0x100(%esi), %ecx
0x000ec55f:  83 c9 01                 orl      $1, %ecx
0x000ec562:  ba 90 00 00 00           movl     $0x90, %edx
0x000ec567:  89 d8                    movl     %ebx, %eax
0x000ec569:  e8 5e fc ff ff           calll    0xec1cc

----------------
IN: 
0x000ec56e:  b9 09 00 00 00           movl     $9, %ecx
0x000ec573:  ba d2 00 00 00           movl     $0xd2, %edx
0x000ec578:  89 d8                    movl     %ebx, %eax
0x000ec57a:  5b                       popl     %ebx
0x000ec57b:  5e                       popl     %esi
0x000ec57c:  e9 a5 fc ff ff           jmp      0xec226

----------------
IN: 
0x07faeb23:  66 a1 f8 50 0f 00        movw     0xf50f8, %ax
0x07faeb29:  0f b7 d0                 movzwl   %ax, %edx
0x07faeb2c:  83 c2 04                 addl     $4, %edx
0x07faeb2f:  89 15 64 5c 0f 00        movl     %edx, 0xf5c64
0x07faeb35:  83 c0 08                 addl     $8, %eax
0x07faeb38:  0f b7 c0                 movzwl   %ax, %eax
0x07faeb3b:  e9 a7 ff ff ff           jmp      0x7faeae7

----------------
IN: 
0x07faeae7:  53                       pushl    %ebx
0x07faeae8:  83 ec 08                 subl     $8, %esp
0x07faeaeb:  89 c3                    movl     %eax, %ebx
0x07faeaed:  0f b7 c0                 movzwl   %ax, %eax
0x07faeaf0:  89 44 24 04              movl     %eax, 4(%esp)
0x07faeaf4:  c7 04 24 89 23 0f 00     movl     $0xf2389, (%esp)
0x07faeafb:  e8 c5 f7 13 f8           calll    0xee2c5

----------------
IN: 
0x07faeb00:  66 89 1d 80 5f 0f 00     movw     %bx, 0xf5f80
0x07faeb07:  c7 05 84 5f 0f 00 fc 0d  movl     $0xdfc, 0xf5f84
0x07faeb0f:  00 00
0x07faeb11:  83 c4 08                 addl     $8, %esp
0x07faeb14:  5b                       popl     %ebx
0x07faeb15:  c3                       retl     

----------------
IN: 
0x07fb6824:  8b 44 24 20              movl     0x20(%esp), %eax
0x07fb6828:  e8 07 6b ff ff           calll    0x7fad334

----------------
IN: 
0x07fb682d:  a1 38 fe fb 07           movl     0x7fbfe38, %eax
0x07fb6832:  8d 58 fc                 leal     -4(%eax), %ebx
0x07fb6835:  83 fb fc                 cmpl     $0xfc, %ebx
0x07fb6838:  0f 85 9b 24 00 00        jne      0x7fb8cd9

----------------
IN: 
0x07fb8cd9:  89 d8                    movl     %ebx, %eax
0x07fb8cdb:  e8 3c 36 ff ff           calll    0x7fac31c

----------------
IN: 
0x07fac31c:  53                       pushl    %ebx
0x07fac31d:  89 c3                    movl     %eax, %ebx
0x07fac31f:  66 81 78 14 00 03        cmpw     $0x300, 0x14(%eax)
0x07fac325:  75 37                    jne      0x7fac35e

----------------
IN: 
0x07fac35e:  31 c0                    xorl     %eax, %eax
0x07fac360:  5b                       popl     %ebx
0x07fac361:  c3                       retl     

----------------
IN: 
0x07fb8ce0:  85 c0                    testl    %eax, %eax
0x07fb8ce2:  74 15                    je       0x7fb8cf9

----------------
IN: 
0x07fb8cf9:  8b 5b 04                 movl     4(%ebx), %ebx
0x07fb8cfc:  83 eb 04                 subl     $4, %ebx
0x07fb8cff:  e9 31 db ff ff           jmp      0x7fb6835

----------------
IN: 
0x07fb6835:  83 fb fc                 cmpl     $0xfc, %ebx
0x07fb6838:  0f 85 9b 24 00 00        jne      0x7fb8cd9

----------------
IN: 
0x07fac327:  0f b7 00                 movzwl   (%eax), %eax
0x07fac32a:  ba 04 00 00 00           movl     $4, %edx
0x07fac32f:  e8 47 ff 13 f8           calll    0xec27b

----------------
IN: 
0x07fac334:  83 e0 03                 andl     $3, %eax
0x07fac337:  66 83 f8 03              cmpw     $3, %ax
0x07fac33b:  75 21                    jne      0x7fac35e

----------------
IN: 
0x07fac33d:  8b 5b 0c                 movl     0xc(%ebx), %ebx
0x07fac340:  85 db                    testl    %ebx, %ebx
0x07fac342:  74 13                    je       0x7fac357

----------------
IN: 
0x07fac357:  b8 01 00 00 00           movl     $1, %eax
0x07fac35c:  eb 02                    jmp      0x7fac360

----------------
IN: 
0x07fac360:  5b                       popl     %ebx
0x07fac361:  c3                       retl     

----------------
IN: 
0x07fb8ce4:  89 5c 24 04              movl     %ebx, 4(%esp)
0x07fb8ce8:  c7 04 24 8d 3a 0f 00     movl     $0xf3a8d, (%esp)
0x07fb8cef:  e8 d1 55 13 f8           calll    0xee2c5

----------------
IN: 
0x07fb8cf4:  e9 98 db ff ff           jmp      0x7fb6891

----------------
IN: 
0x07fb6891:  ba 13 71 00 00           movl     $0x7113, %edx
0x07fb6896:  b8 86 80 00 00           movl     $0x8086, %eax
0x07fb689b:  e8 60 55 ff ff           calll    0x7fabe00

----------------
IN: 
0x07fabe00:  8b 0d 38 fe fb 07        movl     0x7fbfe38, %ecx
0x07fabe06:  83 e9 04                 subl     $4, %ecx
0x07fabe09:  83 f9 fc                 cmpl     $0xfc, %ecx
0x07fabe0c:  74 11                    je       0x7fabe1f

----------------
IN: 
0x07fabe0e:  66 39 41 10              cmpw     %ax, 0x10(%ecx)
0x07fabe12:  75 06                    jne      0x7fabe1a

----------------
IN: 
0x07fabe14:  66 39 51 12              cmpw     %dx, 0x12(%ecx)
0x07fabe18:  74 08                    je       0x7fabe22

----------------
IN: 
0x07fabe1a:  8b 49 04                 movl     4(%ecx), %ecx
0x07fabe1d:  eb e7                    jmp      0x7fabe06

----------------
IN: 
0x07fabe06:  83 e9 04                 subl     $4, %ecx
0x07fabe09:  83 f9 fc                 cmpl     $0xfc, %ecx
0x07fabe0c:  74 11                    je       0x7fabe1f

----------------
IN: 
0x07fabe22:  89 c8                    movl     %ecx, %eax
0x07fabe24:  c3                       retl     

----------------
IN: 
0x07fb68a0:  89 c3                    movl     %eax, %ebx
0x07fb68a2:  ba 37 12 00 00           movl     $0x1237, %edx
0x07fb68a7:  b8 86 80 00 00           movl     $0x8086, %eax
0x07fb68ac:  e8 4f 55 ff ff           calll    0x7fabe00

----------------
IN: 
0x07fb68b1:  85 c0                    testl    %eax, %eax
0x07fb68b3:  74 04                    je       0x7fb68b9

----------------
IN: 
0x07fb68b5:  85 db                    testl    %ebx, %ebx
0x07fb68b7:  75 28                    jne      0x7fb68e1

----------------
IN: 
0x07fb68e1:  0f b7 13                 movzwl   (%ebx), %edx
0x07fb68e4:  89 15 e0 50 0f 00        movl     %edx, 0xf50e0
0x07fb68ea:  0f b7 00                 movzwl   (%eax), %eax
0x07fb68ed:  a3 dc 50 0f 00           movl     %eax, 0xf50dc
0x07fb68f2:  e8 c6 68 13 f8           calll    0xed1bd

----------------
IN: 
0x000ed1bd:  55                       pushl    %ebp
0x000ed1be:  57                       pushl    %edi
0x000ed1bf:  56                       pushl    %esi
0x000ed1c0:  53                       pushl    %ebx
0x000ed1c1:  8b 1d e0 50 0f 00        movl     0xf50e0, %ebx
0x000ed1c7:  85 db                    testl    %ebx, %ebx
0x000ed1c9:  0f 88 eb 00 00 00        js       0xed2ba

----------------
IN: 
0x000ed1cf:  0f b7 db                 movzwl   %bx, %ebx
0x000ed1d2:  ba 02 00 00 00           movl     $2, %edx
0x000ed1d7:  89 d8                    movl     %ebx, %eax
0x000ed1d9:  e8 9d f0 ff ff           calll    0xec27b

----------------
IN: 
0x000ed1de:  66 3d 13 71              cmpw     $0x7113, %ax
0x000ed1e2:  8b 35 dc 50 0f 00        movl     0xf50dc, %esi
0x000ed1e8:  75 65                    jne      0xed24f

----------------
IN: 
0x000ed1ea:  ba 58 00 00 00           movl     $0x58, %edx
0x000ed1ef:  89 d8                    movl     %ebx, %eax
0x000ed1f1:  e8 63 f0 ff ff           calll    0xec259

----------------
IN: 
0x000ed1f6:  89 c7                    movl     %eax, %edi
0x000ed1f8:  a9 00 00 00 02           testl    $0x2000000, %eax
0x000ed1fd:  0f 85 b7 00 00 00        jne      0xed2ba

----------------
IN: 
0x000ed203:  0f b7 f6                 movzwl   %si, %esi
0x000ed206:  b9 4a 00 00 00           movl     $0x4a, %ecx
0x000ed20b:  ba 72 00 00 00           movl     $0x72, %edx
0x000ed210:  89 f0                    movl     %esi, %eax
0x000ed212:  e8 0f f0 ff ff           calll    0xec226

----------------
IN: 
0x000ed217:  e8 8b f8 ff ff           calll    0xecaa7

----------------
IN: 
0x000ecaa7:  57                       pushl    %edi
0x000ecaa8:  56                       pushl    %esi
0x000ecaa9:  b8 00 fe 0a 00           movl     $0xafe00, %eax
0x000ecaae:  be 00 fe 03 00           movl     $0x3fe00, %esi
0x000ecab3:  b9 80 00 00 00           movl     $0x80, %ecx
0x000ecab8:  89 c7                    movl     %eax, %edi
0x000ecaba:  f3 a5                    rep movsl (%esi), %es:(%edi)

----------------
IN: 
0x000ecaba:  f3 a5                    rep movsl (%esi), %es:(%edi)

----------------
IN: 
0x000ecabc:  a1 00 80 03 00           movl     0x38000, %eax
0x000ecac1:  a3 00 80 0a 00           movl     %eax, 0xa8000
0x000ecac6:  a1 04 80 03 00           movl     0x38004, %eax
0x000ecacb:  a3 04 80 0a 00           movl     %eax, 0xa8004
0x000ecad0:  b8 9b d0 00 00           movl     $0xd09b, %eax
0x000ecad5:  31 d2                    xorl     %edx, %edx
0x000ecad7:  0f a4 c2 18              shldl    $0x18, %eax, %edx
0x000ecadb:  c1 e0 18                 shll     $0x18, %eax
0x000ecade:  0d 8c c8 ea 00           orl      $0xeac88c, %eax
0x000ecae3:  a3 00 80 03 00           movl     %eax, 0x38000
0x000ecae8:  89 d0                    movl     %edx, %eax
0x000ecaea:  0d 00 00 f0 00           orl      $0xf00000, %eax
0x000ecaef:  a3 04 80 03 00           movl     %eax, 0x38004
0x000ecaf4:  5e                       popl     %esi
0x000ecaf5:  5f                       popl     %edi
0x000ecaf6:  c3                       retl     

----------------
IN: 
0x000ed21c:  81 cf 00 00 00 02        orl      $0x2000000, %edi
0x000ed222:  89 f9                    movl     %edi, %ecx
0x000ed224:  ba 58 00 00 00           movl     $0x58, %edx
0x000ed229:  89 d8                    movl     %ebx, %eax
0x000ed22b:  e8 9c ef ff ff           calll    0xec1cc

----------------
IN: 
0x000ed230:  66 a1 f8 50 0f 00        movw     0xf50f8, %ax
0x000ed236:  8d 50 28                 leal     0x28(%eax), %edx
0x000ed239:  ed                       inl      %dx, %eax
0x000ed23a:  83 c8 01                 orl      $1, %eax
0x000ed23d:  ef                       outl     %eax, %dx
0x000ed23e:  e8 b4 f8 ff ff           calll    0xecaf7

----------------
IN: 
0x000ecaf7:  b0 01                    movb     $1, %al
0x000ecaf9:  e6 b3                    outb     %al, $0xb3
0x000ecafb:  31 c0                    xorl     %eax, %eax
0x000ecafd:  e6 b2                    outb     %al, $0xb2
0x000ecaff:  e4 b3                    inb      $-0x4d, %al
0x000ecb01:  84 c0                    testb    %al, %al
0x000ecb03:  75 fa                    jne      0xecaff

----------------
IN: 
0x00038000:  8c c8                    movw     %cs, %ax
0x00038002:  ea 9b d0 00 f0           ljmpw    $0xf000:$0xd09b

----------------
IN: 
0x000fd09b:  66 ba a4 d0 0f 00        movl     $0xfd0a4, %edx
0x000fd0a1:  e9 ce fe                 jmp      0xcf72

----------------
IN: 
0x000fcf72:  2e 0f 01 1e f8 60        lidtw    %cs:0x60f8
0x000fcf78:  2e 0f 01 16 b8 60        lgdtw    %cs:0x60b8
0x000fcf7e:  0f 20 c1                 movl     %cr0, %ecx
0x000fcf81:  66 81 e1 ff ff ff 1f     andl     $0x1fffffff, %ecx
0x000fcf88:  66 83 c9 01              orl      $1, %ecx
0x000fcf8c:  0f 22 c1                 movl     %ecx, %cr0

----------------
IN: 
0x000fcf8f:  66 ea 97 cf 0f 00 08 00  ljmpl    $0x8:$0xfcf97

----------------
IN: 
0x000fcf97:  b9 10 00 00 00           movl     $0x10, %ecx
0x000fcf9c:  8e d9                    movl     %ecx, %ds

----------------
IN: 
0x000fcf9e:  8e c1                    movl     %ecx, %es

----------------
IN: 
0x000fcfa0:  8e d1                    movl     %ecx, %ss

----------------
IN: 
0x000fcfa2:  8e e1                    movl     %ecx, %fs

----------------
IN: 
0x000fcfa4:  8e e9                    movl     %ecx, %gs
0x000fcfa6:  ff e2                    jmpl     *%edx

----------------
IN: 
0x000fd0a4:  bc 00 80 0a 00           movl     $0xa8000, %esp
0x000fd0a9:  e8 4f 4f ff ff           calll    0xf1ffd

----------------
IN: 
0x000f1ffd:  55                       pushl    %ebp
0x000f1ffe:  89 e5                    movl     %esp, %ebp
0x000f2000:  57                       pushl    %edi
0x000f2001:  56                       pushl    %esi
0x000f2002:  53                       pushl    %ebx
0x000f2003:  83 e4 f8                 andl     $0xfffffff8, %esp
0x000f2006:  83 ec 48                 subl     $0x48, %esp
0x000f2009:  89 c3                    movl     %eax, %ebx
0x000f200b:  e4 b2                    inb      $-0x4e, %al
0x000f200d:  0f b7 db                 movzwl   %bx, %ebx
0x000f2010:  c1 e3 04                 shll     $4, %ebx
0x000f2013:  8b 93 fc fe 00 00        movl     0xfefc(%ebx), %edx
0x000f2019:  81 e2 ff ff 02 00        andl     $0x2ffff, %edx
0x000f201f:  81 fb 00 00 03 00        cmpl     $0x30000, %ebx
0x000f2025:  75 6c                    jne      0xf2093

----------------
IN: 
0x000f2027:  81 fa 00 00 02 00        cmpl     $0x20000, %edx
0x000f202d:  75 0c                    jne      0xf203b

----------------
IN: 
0x000f202f:  c7 05 f8 fe 03 00 00 00  movl     $0xa0000, 0x3fef8
0x000f2037:  0a 00
0x000f2039:  eb 2a                    jmp      0xf2065

----------------
IN: 
0x000f2065:  31 c0                    xorl     %eax, %eax
0x000f2067:  e6 b3                    outb     %al, $0xb3
0x000f2069:  b8 00 fe 03 00           movl     $0x3fe00, %eax
0x000f206e:  bb 00 00 0a 00           movl     $0xa0000, %ebx
0x000f2073:  b9 80 00 00 00           movl     $0x80, %ecx
0x000f2078:  89 df                    movl     %ebx, %edi
0x000f207a:  89 c6                    movl     %eax, %esi
0x000f207c:  f3 a5                    rep movsl (%esi), %es:(%edi)

----------------
IN: 
0x000f207c:  f3 a5                    rep movsl (%esi), %es:(%edi)

----------------
IN: 
0x000f207e:  b1 80                    movb     $0x80, %cl
0x000f2080:  89 c6                    movl     %eax, %esi
0x000f2082:  f3 a5                    rep movsl (%esi), %es:(%edi)

----------------
IN: 
0x000f2082:  f3 a5                    rep movsl (%esi), %es:(%edi)

----------------
IN: 
0x000f2084:  c7 05 b4 60 0f 00 01 00  movl     $1, 0xf60b4
0x000f208c:  00 00
0x000f208e:  e9 8b 01 00 00           jmp      0xf221e

----------------
IN: 
0x000f221e:  8d 65 f4                 leal     -0xc(%ebp), %esp
0x000f2221:  5b                       popl     %ebx
0x000f2222:  5e                       popl     %esi
0x000f2223:  5f                       popl     %edi
0x000f2224:  5d                       popl     %ebp
0x000f2225:  c3                       retl     

----------------
IN: 
0x000fd0ae:  0f aa                    rsm      

----------------
IN: 
0x000ecaff:  e4 b3                    inb      $-0x4d, %al
0x000ecb01:  84 c0                    testb    %al, %al
0x000ecb03:  75 fa                    jne      0xecaff

----------------
IN: 
0x000ecb05:  57                       pushl    %edi
0x000ecb06:  56                       pushl    %esi
0x000ecb07:  b8 00 fe 03 00           movl     $0x3fe00, %eax
0x000ecb0c:  be 00 fe 0a 00           movl     $0xafe00, %esi
0x000ecb11:  b9 80 00 00 00           movl     $0x80, %ecx
0x000ecb16:  89 c7                    movl     %eax, %edi
0x000ecb18:  f3 a5                    rep movsl (%esi), %es:(%edi)

----------------
IN: 
0x000ecb18:  f3 a5                    rep movsl (%esi), %es:(%edi)

----------------
IN: 
0x000ecb1a:  a1 00 80 0a 00           movl     0xa8000, %eax
0x000ecb1f:  a3 00 80 03 00           movl     %eax, 0x38000
0x000ecb24:  a1 04 80 0a 00           movl     0xa8004, %eax
0x000ecb29:  a3 04 80 03 00           movl     %eax, 0x38004
0x000ecb2e:  b8 9b d0 00 00           movl     $0xd09b, %eax
0x000ecb33:  31 d2                    xorl     %edx, %edx
0x000ecb35:  0f a4 c2 18              shldl    $0x18, %eax, %edx
0x000ecb39:  c1 e0 18                 shll     $0x18, %eax
0x000ecb3c:  0d 8c c8 ea 00           orl      $0xeac88c, %eax
0x000ecb41:  a3 00 80 0a 00           movl     %eax, 0xa8000
0x000ecb46:  89 d0                    movl     %edx, %eax
0x000ecb48:  0d 00 00 f0 00           orl      $0xf00000, %eax
0x000ecb4d:  a3 04 80 0a 00           movl     %eax, 0xa8004
0x000ecb52:  0f 09                    wbinvd   
0x000ecb54:  5e                       popl     %esi
0x000ecb55:  5f                       popl     %edi
0x000ecb56:  c3                       retl     

----------------
IN: 
0x000ed243:  b9 0a 00 00 00           movl     $0xa, %ecx
0x000ed248:  ba 72 00 00 00           movl     $0x72, %edx
0x000ed24d:  eb 60                    jmp      0xed2af

----------------
IN: 
0x000ed2af:  89 f0                    movl     %esi, %eax
0x000ed2b1:  5b                       popl     %ebx
0x000ed2b2:  5e                       popl     %esi
0x000ed2b3:  5f                       popl     %edi
0x000ed2b4:  5d                       popl     %ebp
0x000ed2b5:  e9 6c ef ff ff           jmp      0xec226

----------------
IN: 
0x07fb68f7:  8d 44 24 78              leal     0x78(%esp), %eax
0x07fb68fb:  89 44 24 04              movl     %eax, 4(%esp)
0x07fb68ff:  8d 44 24 70              leal     0x70(%esp), %eax
0x07fb6903:  89 04 24                 movl     %eax, (%esp)
0x07fb6906:  8d 4c 24 6c              leal     0x6c(%esp), %ecx
0x07fb690a:  8d 54 24 68              leal     0x68(%esp), %edx
0x07fb690e:  b8 01 00 00 00           movl     $1, %eax
0x07fb6913:  e8 4f 5a 13 f8           calll    0xec367

----------------
IN: 
0x07fb6918:  8b 44 24 78              movl     0x78(%esp), %eax
0x07fb691c:  25 20 10 00 00           andl     $0x1020, %eax
0x07fb6921:  3d 20 10 00 00           cmpl     $0x1020, %eax
0x07fb6926:  0f 85 12 02 00 00        jne      0x7fb6b3e

----------------
IN: 
0x07fb6b3e:  31 d2                    xorl     %edx, %edx
0x07fb6b40:  31 c9                    xorl     %ecx, %ecx
0x07fb6b42:  b8 12 3b 0f 00           movl     $0xf3b12, %eax
0x07fb6b47:  e8 34 64 ff ff           calll    0x7facf80

----------------
IN: 
0x07fb6b4c:  89 d1                    movl     %edx, %ecx
0x07fb6b4e:  89 d7                    movl     %edx, %edi
0x07fb6b50:  09 c7                    orl      %eax, %edi
0x07fb6b52:  74 0c                    je       0x7fb6b60

----------------
IN: 
0x07fb6b60:  31 d2                    xorl     %edx, %edx
0x07fb6b62:  31 c9                    xorl     %ecx, %ecx
0x07fb6b64:  b8 2a 3b 0f 00           movl     $0xf3b2a, %eax
0x07fb6b69:  e8 12 64 ff ff           calll    0x7facf80

----------------
IN: 
0x07fb6b6e:  89 c3                    movl     %eax, %ebx
0x07fb6b70:  a3 e8 51 0f 00           movl     %eax, 0xf51e8
0x07fb6b75:  e8 e9 73 13 f8           calll    0xedf63

----------------
IN: 
0x000edf63:  51                       pushl    %ecx
0x000edf64:  66 c7 44 24 02 00 00     movw     $0, 2(%esp)
0x000edf6b:  83 3d 74 53 0f 00 00     cmpl     $0, 0xf5374
0x000edf72:  74 13                    je       0xedf87

----------------
IN: 
0x000edf74:  b9 02 00 00 00           movl     $2, %ecx
0x000edf79:  ba 05 00 00 00           movl     $5, %edx
0x000edf7e:  8d 44 24 02              leal     2(%esp), %eax
0x000edf82:  e8 a0 ff ff ff           calll    0xedf27

----------------
IN: 
0x000edf87:  b0 df                    movb     $0xdf, %al
0x000edf89:  e6 70                    outb     %al, $0x70
0x000edf8b:  e4 71                    inb      $0x71, %al
0x000edf8d:  0f b6 c0                 movzbl   %al, %eax
0x000edf90:  40                       incl     %eax
0x000edf91:  66 39 44 24 02           cmpw     %ax, 2(%esp)
0x000edf96:  73 05                    jae      0xedf9d

----------------
IN: 
0x000edf9d:  66 8b 44 24 02           movw     2(%esp), %ax
0x000edfa2:  5a                       popl     %edx
0x000edfa3:  c3                       retl     

----------------
IN: 
0x07fb6b7a:  0f b7 c0                 movzwl   %ax, %eax
0x07fb6b7d:  39 c3                    cmpl     %eax, %ebx
0x07fb6b7f:  73 05                    jae      0x7fb6b86

----------------
IN: 
0x07fb6b86:  e8 c2 90 13 f8           calll    0xefc4d

----------------
IN: 
0x000efc4d:  57                       pushl    %edi
0x000efc4e:  56                       pushl    %esi
0x000efc4f:  53                       pushl    %ebx
0x000efc50:  83 ec 1c                 subl     $0x1c, %esp
0x000efc53:  8d 44 24 18              leal     0x18(%esp), %eax
0x000efc57:  89 44 24 04              movl     %eax, 4(%esp)
0x000efc5b:  8d 44 24 14              leal     0x14(%esp), %eax
0x000efc5f:  89 04 24                 movl     %eax, (%esp)
0x000efc62:  8d 4c 24 10              leal     0x10(%esp), %ecx
0x000efc66:  8d 54 24 0c              leal     0xc(%esp), %edx
0x000efc6a:  b8 01 00 00 00           movl     $1, %eax
0x000efc6f:  e8 f3 c6 ff ff           calll    0xec367

----------------
IN: 
0x000efc74:  83 7c 24 0c 00           cmpl     $0, 0xc(%esp)
0x000efc79:  74 07                    je       0xefc82

----------------
IN: 
0x000efc7b:  f6 44 24 19 02           testb    $2, 0x19(%esp)
0x000efc80:  75 1b                    jne      0xefc9d

----------------
IN: 
0x000efc9d:  c7 05 e4 51 0f 00 01 00  movl     $1, 0xf51e4
0x000efca5:  00 00
0x000efca7:  8b 35 00 00 01 00        movl     0x10000, %esi
0x000efcad:  8b 3d 04 00 01 00        movl     0x10004, %edi
0x000efcb3:  b8 b0 d0 00 00           movl     $0xd0b0, %eax
0x000efcb8:  c1 e0 08                 shll     $8, %eax
0x000efcbb:  0c ea                    orb      $0xea, %al
0x000efcbd:  a3 00 00 01 00           movl     %eax, 0x10000
0x000efcc2:  c7 05 04 00 01 00 f0 00  movl     $0xf0, 0x10004
0x000efcca:  00 00
0x000efccc:  a1 f0 00 e0 fe           movl     0xfee000f0, %eax
0x000efcd1:  80 cc 01                 orb      $1, %ah
0x000efcd4:  a3 f0 00 e0 fe           movl     %eax, 0xfee000f0
0x000efcd9:  c7 05 50 03 e0 fe 00 87  movl     $0x8700, 0xfee00350
0x000efce1:  00 00
0x000efce3:  c7 05 60 03 e0 fe 00 84  movl     $0x8400, 0xfee00360
0x000efceb:  00 00
0x000efced:  c7 05 c0 51 0f 00 01 00  movl     $1, 0xf51c0
0x000efcf5:  00 00
0x000efcf7:  c7 05 00 03 e0 fe 00 45  movl     $0xc4500, 0xfee00300
0x000efcff:  0c 00
0x000efd01:  c7 05 00 03 e0 fe 10 46  movl     $0xc4610, 0xfee00300
0x000efd09:  0c 00
0x000efd0b:  e8 fd c8 ff ff           calll    0xec60d

----------------
IN: 
0x000ec60d:  56                       pushl    %esi
0x000ec60e:  53                       pushl    %ebx
0x000ec60f:  83 ec 18                 subl     $0x18, %esp
0x000ec612:  8d 44 24 14              leal     0x14(%esp), %eax
0x000ec616:  89 44 24 04              movl     %eax, 4(%esp)
0x000ec61a:  8d 44 24 10              leal     0x10(%esp), %eax
0x000ec61e:  89 04 24                 movl     %eax, (%esp)
0x000ec621:  8d 4c 24 0c              leal     0xc(%esp), %ecx
0x000ec625:  8d 54 24 08              leal     8(%esp), %edx
0x000ec629:  b8 01 00 00 00           movl     $1, %eax
0x000ec62e:  e8 34 fd ff ff           calll    0xec367

----------------
IN: 
0x000ec633:  8b 5c 24 0c              movl     0xc(%esp), %ebx
0x000ec637:  81 3d e8 51 0f 00 ff 00  cmpl     $0xff, 0xf51e8
0x000ec63f:  00 00
0x000ec641:  77 1a                    ja       0xec65d

----------------
IN: 
0x000ec643:  89 d8                    movl     %ebx, %eax
0x000ec645:  c1 e8 18                 shrl     $0x18, %eax
0x000ec648:  c1 eb 1d                 shrl     $0x1d, %ebx
0x000ec64b:  ba 01 00 00 00           movl     $1, %edx
0x000ec650:  89 c1                    movl     %eax, %ecx
0x000ec652:  d3 e2                    shll     %cl, %edx
0x000ec654:  09 14 9d c4 51 0f 00     orl      %edx, 0xf51c4(, %ebx, 4)
0x000ec65b:  eb 23                    jmp      0xec680

----------------
IN: 
0x000ec680:  83 c4 18                 addl     $0x18, %esp
0x000ec683:  5b                       popl     %ebx
0x000ec684:  5e                       popl     %esi
0x000ec685:  c3                       retl     

----------------
IN: 
0x000efd10:  e8 4e e2 ff ff           calll    0xedf63

----------------
IN: 
0x000efd15:  0f b7 d8                 movzwl   %ax, %ebx
0x000efd18:  3b 1d e4 51 0f 00        cmpl     0xf51e4, %ebx
0x000efd1e:  74 1f                    je       0xefd3f

----------------
IN: 
0x000efd3f:  e8 cd e0 ff ff           calll    0xede11

----------------
IN: 
0x000ede11:  89 e0                    movl     %esp, %eax
0x000ede13:  3d 00 00 10 00           cmpl     $0x100000, %eax
0x000ede18:  76 0c                    jbe      0xede26

----------------
IN: 
0x000ede26:  80 3d 59 54 0f 00 00     cmpb     $0, 0xf5459
0x000ede2d:  75 04                    jne      0xede33

----------------
IN: 
0x000ede33:  b9 0d 86 0f 00           movl     $0xf860d, %ecx
0x000ede38:  31 d2                    xorl     %edx, %edx
0x000ede3a:  31 c0                    xorl     %eax, %eax
0x000ede3c:  e8 53 ff ff ff           calll    0xedd94

----------------
IN: 
0x000edd94:  55                       pushl    %ebp
0x000edd95:  57                       pushl    %edi
0x000edd96:  56                       pushl    %esi
0x000edd97:  53                       pushl    %ebx
0x000edd98:  53                       pushl    %ebx
0x000edd99:  89 c6                    movl     %eax, %esi
0x000edd9b:  89 e0                    movl     %esp, %eax
0x000edd9d:  3d 00 00 10 00           cmpl     $0x100000, %eax
0x000edda2:  76 0c                    jbe      0xeddb0

----------------
IN: 
0x000eddb0:  89 d3                    movl     %edx, %ebx
0x000eddb2:  a0 1c c0 0e 00           movb     0xec01c, %al
0x000eddb7:  3c 02                    cmpb     $2, %al
0x000eddb9:  0f b7 2d 20 c0 0e 00     movzwl   0xec020, %ebp
0x000eddc0:  8d b9 00 00 f1 ff        leal     -0xf0000(%ecx), %edi
0x000eddc6:  75 1d                    jne      0xedde5

----------------
IN: 
0x000edde5:  fe c8                    decb     %al
0x000edde7:  74 0e                    je       0xeddf7

----------------
IN: 
0x000eddf7:  b9 bd cf 0f 00           movl     $0xfcfbd, %ecx
0x000eddfc:  89 f0                    movl     %esi, %eax
0x000eddfe:  ba 36 61 00 00           movl     $0x6136, %edx
0x000ede03:  ff e1                    jmpl     *%ecx

----------------
IN: 
0x000fcfbd:  b9 30 00 00 00           movl     $0x30, %ecx
0x000fcfc2:  8e d9                    movl     %ecx, %ds

----------------
IN: 
0x000fcfc4:  8e c1                    movl     %ecx, %es

----------------
IN: 
0x000fcfc6:  8e d1                    movl     %ecx, %ss

----------------
IN: 
0x000fcfc8:  8e e1                    movl     %ecx, %fs

----------------
IN: 
0x000fcfca:  8e e9                    movl     %ecx, %gs
0x000fcfcc:  66 ea d2 cf 28 00        ljmpw    $0x28:$0xcfd2

----------------
IN: 
0x000fcfd2:  0f 20 c1                 movl     %cr0, %ecx
0x000fcfd5:  66 83 e1 fe              andl     $0xfffffffe, %ecx
0x000fcfd9:  0f 22 c1                 movl     %ecx, %cr0

----------------
IN: 
0x000fcfdc:  ea e1 cf 00 f0           ljmpw    $0xf000:$0xcfe1

----------------
IN: 
0x000fcfe1:  2e 0f 01 1e 00 61        lidtw    %cs:0x6100
0x000fcfe7:  31 c9                    xorw     %cx, %cx
0x000fcfe9:  8e e1                    movw     %cx, %fs
0x000fcfeb:  8e e9                    movw     %cx, %gs
0x000fcfed:  8e c1                    movw     %cx, %es
0x000fcfef:  8e d9                    movw     %cx, %ds
0x000fcff1:  8e d1                    movw     %cx, %ss

----------------
IN: 
0x000fcff3:  66 ff e2                 jmpl     *%edx

----------------
IN: 
0x000f6136:  66 89 e9                 movl     %ebp, %ecx
0x000f6139:  66 c1 e5 04              shll     $4, %ebp
0x000f613d:  8e d1                    movw     %cx, %ss

----------------
IN: 
0x000f613f:  66 29 ec                 subl     %ebp, %esp

----------------
IN: 
0x000f6142:  8e d9                    movw     %cx, %ds
0x000f6144:  66 89 da                 movl     %ebx, %edx
0x000f6147:  66 89 f9                 movl     %edi, %ecx
0x000f614a:  66 e8 5e 85 00 00        calll    0xfe6ae

----------------
IN: 
0x000fe6ae:  66 57                    pushl    %edi
0x000fe6b0:  66 56                    pushl    %esi
0x000fe6b2:  66 53                    pushl    %ebx
0x000fe6b4:  66 53                    pushl    %ebx
0x000fe6b6:  66 89 c3                 movl     %eax, %ebx
0x000fe6b9:  67 66 89 14 24           movl     %edx, (%esp)
0x000fe6be:  66 89 cf                 movl     %ecx, %edi
0x000fe6c1:  66 e8 e1 88 ff ff        calll    0xf6fa8

----------------
IN: 
0x000f6fa8:  66 53                    pushl    %ebx
0x000f6faa:  66 83 ec 0c              subl     $0xc, %esp
0x000f6fae:  66 bb 80 dc 00 00        movl     $0xdc80, %ebx
0x000f6fb4:  66 0f b7 db              movzwl   %bx, %ebx
0x000f6fb8:  8e c3                    movw     %bx, %es
0x000f6fba:  26 8a 0e 1c f8           movb     %es:0xf81c, %cl
0x000f6fbf:  8e c3                    movw     %bx, %es
0x000f6fc1:  66 31 c0                 xorl     %eax, %eax
0x000f6fc4:  26 a2 1c f8              movb     %al, %es:0xf81c
0x000f6fc8:  8e c3                    movw     %bx, %es
0x000f6fca:  66 31 c0                 xorl     %eax, %eax
0x000f6fcd:  26 a3 20 f8              movw     %ax, %es:0xf820
0x000f6fd1:  80 f9 02                 cmpb     $2, %cl
0x000f6fd4:  74 6b                    je       0x7041

----------------
IN: 
0x000f6fd6:  8e c3                    movw     %bx, %es
0x000f6fd8:  26 a0 1e f8              movb     %es:0xf81e, %al
0x000f6fdc:  84 c0                    testb    %al, %al
0x000f6fde:  75 13                    jne      0x6ff3

----------------
IN: 
0x000f6ff3:  8e c3                    movw     %bx, %es
0x000f6ff5:  26 a1 2c f8              movw     %es:0xf82c, %ax
0x000f6ff9:  67 89 44 24 06           movw     %ax, 6(%esp)
0x000f6ffe:  8e c3                    movw     %bx, %es
0x000f7000:  26 66 a1 2e f8           movl     %es:0xf82e, %eax
0x000f7005:  67 66 89 44 24 08        movl     %eax, 8(%esp)
0x000f700b:  67 66 0f 01 54 24 06     lgdtl    6(%esp)
0x000f7012:  8e c3                    movw     %bx, %es
0x000f7014:  26 a1 22 f8              movw     %es:0xf822, %ax
0x000f7018:  8e e0                    movw     %ax, %fs
0x000f701a:  8e c3                    movw     %bx, %es
0x000f701c:  26 a1 24 f8              movw     %es:0xf824, %ax
0x000f7020:  8e e8                    movw     %ax, %gs
0x000f7022:  8e c3                    movw     %bx, %es
0x000f7024:  26 66 a1 28 f8           movl     %es:0xf828, %eax
0x000f7029:  66 25 00 00 00 60        andl     $0x60000000, %eax
0x000f702f:  74 10                    je       0x7041

----------------
IN: 
0x000f7041:  8e c3                    movw     %bx, %es
0x000f7043:  26 a0 1d f8              movb     %es:0xf81d, %al
0x000f7047:  84 c0                    testb    %al, %al
0x000f7049:  78 04                    js       0x704f

----------------
IN: 
0x000f704b:  e6 70                    outb     %al, $0x70
0x000f704d:  e4 71                    inb      $0x71, %al
0x000f704f:  88 c8                    movb     %cl, %al
0x000f7051:  66 83 c4 0c              addl     $0xc, %esp
0x000f7055:  66 5b                    popl     %ebx
0x000f7057:  66 c3                    retl     

----------------
IN: 
0x000fe6c7:  66 89 c6                 movl     %eax, %esi
0x000fe6ca:  67 66 8b 14 24           movl     (%esp), %edx
0x000fe6cf:  66 89 d8                 movl     %ebx, %eax
0x000fe6d2:  66 ff d7                 calll    *%edi

----------------
IN: 
0x000f860d:  66 e8 77 e4 ff ff        calll    0xf6a8a

----------------
IN: 
0x000f6a8a:  8c d2                    movw     %ss, %dx
0x000f6a8c:  66 0f b7 d2              movzwl   %dx, %edx
0x000f6a90:  66 31 c0                 xorl     %eax, %eax
0x000f6a93:  66 81 fa 80 dc 00 00     cmpl     $0xdc80, %edx
0x000f6a9a:  75 10                    jne      0x6aac

----------------
IN: 
0x000f6aac:  66 c3                    retl     

----------------
IN: 
0x000f8613:  66 85 c0                 testl    %eax, %eax
0x000f8616:  74 0f                    je       0x8627

----------------
IN: 
0x000f8627:  fb                       sti      

----------------
IN: 
0x000f8628:  90                       nop      

----------------
IN: 
0x000f8629:  f3 90                    nop      

----------------
IN: 
0x000f862b:  fa                       cli      
0x000f862c:  fc                       cld      
0x000f862d:  66 c3                    retl     

----------------
IN: 
0x000fe6d5:  66 89 c3                 movl     %eax, %ebx
0x000fe6d8:  66 89 f0                 movl     %esi, %eax
0x000fe6db:  66 0f b6 c0              movzbl   %al, %eax
0x000fe6df:  66 e8 f7 82 ff ff        calll    0xf69dc

----------------
IN: 
0x000f69dc:  66 56                    pushl    %esi
0x000f69de:  66 53                    pushl    %ebx
0x000f69e0:  66 83 ec 08              subl     $8, %esp
0x000f69e4:  66 89 c6                 movl     %eax, %esi
0x000f69e7:  3c 02                    cmpb     $2, %al
0x000f69e9:  74 60                    je       0x6a4b

----------------
IN: 
0x000f69eb:  0f 20 c0                 movl     %cr0, %eax
0x000f69ee:  a8 01                    testb    $1, %al
0x000f69f0:  74 07                    je       0x69f9

----------------
IN: 
0x000f69f9:  66 bb 80 dc 00 00        movl     $0xdc80, %ebx
0x000f69ff:  66 0f b7 db              movzwl   %bx, %ebx
0x000f6a03:  8e c3                    movw     %bx, %es
0x000f6a05:  26 66 a3 28 f8           movl     %eax, %es:0xf828
0x000f6a0a:  8c e0                    movw     %fs, %ax
0x000f6a0c:  8e c3                    movw     %bx, %es
0x000f6a0e:  26 a3 22 f8              movw     %ax, %es:0xf822
0x000f6a12:  8c e8                    movw     %gs, %ax
0x000f6a14:  8e c3                    movw     %bx, %es
0x000f6a16:  26 a3 24 f8              movw     %ax, %es:0xf824
0x000f6a1a:  67 66 0f 01 44 24 02     sgdtl    2(%esp)
0x000f6a21:  8e c3                    movw     %bx, %es
0x000f6a23:  67 8b 44 24 02           movw     2(%esp), %ax
0x000f6a28:  26 a3 2c f8              movw     %ax, %es:0xf82c
0x000f6a2c:  8e c3                    movw     %bx, %es
0x000f6a2e:  67 66 8b 44 24 04        movl     4(%esp), %eax
0x000f6a34:  26 66 a3 2e f8           movl     %eax, %es:0xf82e
0x000f6a39:  66 b8 01 00 00 00        movl     $1, %eax
0x000f6a3f:  66 e8 6f ff ff ff        calll    0xf69b4

----------------
IN: 
0x000f69b4:  66 53                    pushl    %ebx
0x000f69b6:  66 89 c3                 movl     %eax, %ebx
0x000f69b9:  e4 92                    inb      $-0x6e, %al
0x000f69bb:  88 c1                    movb     %al, %cl
0x000f69bd:  88 c2                    movb     %al, %dl
0x000f69bf:  d0 ea                    shrb     $1, %dl
0x000f69c1:  66 83 e2 01              andl     $1, %edx
0x000f69c5:  84 db                    testb    %bl, %bl
0x000f69c7:  0f 95 c0                 setne    %al
0x000f69ca:  38 c2                    cmpb     %al, %dl
0x000f69cc:  74 08                    je       0x69d6

----------------
IN: 
0x000f69d6:  88 d0                    movb     %dl, %al
0x000f69d8:  66 5b                    popl     %ebx
0x000f69da:  66 c3                    retl     

----------------
IN: 
0x000f6a45:  8e c3                    movw     %bx, %es
0x000f6a47:  26 a2 1e f8              movb     %al, %es:0xf81e
0x000f6a4b:  8c d0                    movw     %ss, %ax
0x000f6a4d:  66 ba 80 dc 00 00        movl     $0xdc80, %edx
0x000f6a53:  66 0f b7 d2              movzwl   %dx, %edx
0x000f6a57:  8e c2                    movw     %dx, %es
0x000f6a59:  26 a3 20 f8              movw     %ax, %es:0xf820
0x000f6a5d:  e4 70                    inb      $0x70, %al
0x000f6a5f:  88 c1                    movb     %al, %cl
0x000f6a61:  84 c0                    testb    %al, %al
0x000f6a63:  78 08                    js       0x6a6d

----------------
IN: 
0x000f6a6d:  8e c2                    movw     %dx, %es
0x000f6a6f:  26 88 0e 1d f8           movb     %cl, %es:0xf81d
0x000f6a74:  8e c2                    movw     %dx, %es
0x000f6a76:  66 89 f0                 movl     %esi, %eax
0x000f6a79:  26 a2 1c f8              movb     %al, %es:0xf81c
0x000f6a7d:  66 31 c0                 xorl     %eax, %eax
0x000f6a80:  66 83 c4 08              addl     $8, %esp
0x000f6a84:  66 5b                    popl     %ebx
0x000f6a86:  66 5e                    popl     %esi
0x000f6a88:  66 c3                    retl     

----------------
IN: 
0x000fe6e5:  66 89 d8                 movl     %ebx, %eax
0x000fe6e8:  66 5e                    popl     %esi
0x000fe6ea:  66 5b                    popl     %ebx
0x000fe6ec:  66 5e                    popl     %esi
0x000fe6ee:  66 5f                    popl     %edi
0x000fe6f0:  66 c3                    retl     

----------------
IN: 
0x000f6150:  66 ba 05 de 0e 00        movl     $0xede05, %edx
0x000f6156:  e9 19 6e                 jmp      0xcf72

----------------
IN: 
0x000fcf72:  2e 0f 01 1e f8 60        lidtw    %cs:0x60f8
0x000fcf78:  2e 0f 01 16 b8 60        lgdtw    %cs:0x60b8
0x000fcf7e:  0f 20 c1                 movl     %cr0, %ecx
0x000fcf81:  66 81 e1 ff ff ff 1f     andl     $0x1fffffff, %ecx
0x000fcf88:  66 83 c9 01              orl      $1, %ecx
0x000fcf8c:  0f 22 c1                 movl     %ecx, %cr0

----------------
IN: 
0x000fcf8f:  66 ea 97 cf 0f 00 08 00  ljmpl    $0x8:$0xfcf97

----------------
IN: 
0x000fcf97:  b9 10 00 00 00           movl     $0x10, %ecx
0x000fcf9c:  8e d9                    movl     %ecx, %ds

----------------
IN: 
0x000fcf9e:  8e c1                    movl     %ecx, %es

----------------
IN: 
0x000fcfa0:  8e d1                    movl     %ecx, %ss

----------------
IN: 
0x000fcfa2:  8e e1                    movl     %ecx, %fs

----------------
IN: 
0x000fcfa4:  8e e9                    movl     %ecx, %gs
0x000fcfa6:  ff e2                    jmpl     *%edx

----------------
IN: 
0x000ede05:  01 ec                    addl     %ebp, %esp
0x000ede07:  89 c6                    movl     %eax, %esi
0x000ede09:  89 f0                    movl     %esi, %eax
0x000ede0b:  5a                       popl     %edx
0x000ede0c:  5b                       popl     %ebx
0x000ede0d:  5e                       popl     %esi
0x000ede0e:  5f                       popl     %edi
0x000ede0f:  5d                       popl     %ebp
0x000ede10:  c3                       retl     

----------------
IN: 
0x000ede41:  b8 a8 60 0f 00           movl     $0xf60a8, %eax
0x000ede46:  e9 3a e2 ff ff           jmp      0xec085

----------------
IN: 
0x000ec085:  8b 50 04                 movl     4(%eax), %edx
0x000ec088:  8d 4a fc                 leal     -4(%edx), %ecx
0x000ec08b:  39 c8                    cmpl     %ecx, %eax
0x000ec08d:  74 12                    je       0xec0a1

----------------
IN: 
0x000ec0a1:  c3                       retl     

----------------
IN: 
0x000efd44:  89 35 00 00 01 00        movl     %esi, 0x10000
0x000efd4a:  89 3d 04 00 01 00        movl     %edi, 0x10004
0x000efd50:  a1 e8 51 0f 00           movl     0xf51e8, %eax
0x000efd55:  89 44 24 08              movl     %eax, 8(%esp)
0x000efd59:  89 5c 24 04              movl     %ebx, 4(%esp)
0x000efd5d:  c7 04 24 3d 2c 0f 00     movl     $0xf2c3d, (%esp)
0x000efd64:  e8 5c e5 ff ff           calll    0xee2c5

----------------
IN: 
0x000efd69:  83 c4 1c                 addl     $0x1c, %esp
0x000efd6c:  5b                       popl     %ebx
0x000efd6d:  5e                       popl     %esi
0x000efd6e:  5f                       popl     %edi
0x000efd6f:  c3                       retl     

----------------
IN: 
0x07fb6b8b:  81 3d e8 51 0f 00 ff 00  cmpl     $0xff, 0xf51e8
0x07fb6b93:  00 00
0x07fb6b95:  0f 87 20 04 00 00        ja       0x7fb6fbb

----------------
IN: 
0x07fb6b9b:  c7 05 a0 fc fb 07 24 50  movl     $0x52495024, 0x7fbfca0
0x07fb6ba3:  49 52
0x07fb6ba5:  8a 1d bf fc fb 07        movb     0x7fbfcbf, %bl
0x07fb6bab:  ba 80 00 00 00           movl     $0x80, %edx
0x07fb6bb0:  b8 a0 fc fb 07           movl     $0x7fbfca0, %eax
0x07fb6bb5:  e8 b5 64 13 f8           calll    0xed06f

----------------
IN: 
0x07fb6bba:  29 c3                    subl     %eax, %ebx
0x07fb6bbc:  88 1d bf fc fb 07        movb     %bl, 0x7fbfcbf
0x07fb6bc2:  b8 a0 fc fb 07           movl     $0x7fbfca0, %eax
0x07fb6bc7:  e8 5e 98 ff ff           calll    0x7fb042a

----------------
IN: 
0x07fb042a:  57                       pushl    %edi
0x07fb042b:  56                       pushl    %esi
0x07fb042c:  53                       pushl    %ebx
0x07fb042d:  83 ec 0c                 subl     $0xc, %esp
0x07fb0430:  89 c6                    movl     %eax, %esi
0x07fb0432:  81 38 24 50 49 52        cmpl     $0x52495024, (%eax)
0x07fb0438:  75 62                    jne      0x7fb049c

----------------
IN: 
0x07fb043a:  83 3d 68 5c 0f 00 00     cmpl     $0, 0xf5c68
0x07fb0441:  75 59                    jne      0x7fb049c

----------------
IN: 
0x07fb0443:  0f b7 58 06              movzwl   6(%eax), %ebx
0x07fb0447:  66 83 fb 1f              cmpw     $0x1f, %bx
0x07fb044b:  76 4f                    jbe      0x7fb049c

----------------
IN: 
0x07fb044d:  89 da                    movl     %ebx, %edx
0x07fb044f:  e8 1b cc 13 f8           calll    0xed06f

----------------
IN: 
0x07fb0454:  84 c0                    testb    %al, %al
0x07fb0456:  75 44                    jne      0x7fb049c

----------------
IN: 
0x07fb0458:  89 d8                    movl     %ebx, %eax
0x07fb045a:  e8 24 d4 ff ff           calll    0x7fad883

----------------
IN: 
0x07fad883:  b9 10 00 00 00           movl     $0x10, %ecx
0x07fad888:  89 c2                    movl     %eax, %edx
0x07fad88a:  b8 b8 fe fb 07           movl     $0x7fbfeb8, %eax
0x07fad88f:  e9 c1 ff ff ff           jmp      0x7fad855

----------------
IN: 
0x07fb045f:  89 c3                    movl     %eax, %ebx
0x07fb0461:  85 c0                    testl    %eax, %eax
0x07fb0463:  75 15                    jne      0x7fb047a

----------------
IN: 
0x07fb047a:  89 44 24 08              movl     %eax, 8(%esp)
0x07fb047e:  89 74 24 04              movl     %esi, 4(%esp)
0x07fb0482:  c7 04 24 29 2b 0f 00     movl     $0xf2b29, (%esp)
0x07fb0489:  e8 37 de 13 f8           calll    0xee2c5

----------------
IN: 
0x07fb048e:  0f b7 4e 06              movzwl   6(%esi), %ecx
0x07fb0492:  89 df                    movl     %ebx, %edi
0x07fb0494:  f3 a4                    rep movsb (%esi), %es:(%edi)

----------------
IN: 
0x07fb0494:  f3 a4                    rep movsb (%esi), %es:(%edi)

----------------
IN: 
0x07fb0496:  89 1d 68 5c 0f 00        movl     %ebx, 0xf5c68
0x07fb049c:  83 c4 0c                 addl     $0xc, %esp
0x07fb049f:  5b                       popl     %ebx
0x07fb04a0:  5e                       popl     %esi
0x07fb04a1:  5f                       popl     %edi
0x07fb04a2:  c3                       retl     

----------------
IN: 
0x07fb6bcc:  b8 00 80 00 00           movl     $0x8000, %eax
0x07fb6bd1:  e8 fd 6c ff ff           calll    0x7fad8d3

----------------
IN: 
0x07fb6bd6:  89 c5                    movl     %eax, %ebp
0x07fb6bd8:  85 c0                    testl    %eax, %eax
0x07fb6bda:  75 14                    jne      0x7fb6bf0

----------------
IN: 
0x07fb6bf0:  b9 2c 00 00 00           movl     $0x2c, %ecx
0x07fb6bf5:  31 d2                    xorl     %edx, %edx
0x07fb6bf7:  e8 c5 55 13 f8           calll    0xec1c1

----------------
IN: 
0x07fb6bfc:  c7 45 00 50 43 4d 50     movl     $0x504d4350, (%ebp)
0x07fb6c03:  c6 45 06 04              movb     $4, 6(%ebp)
0x07fb6c07:  c7 45 08 42 4f 43 48     movl     $0x48434f42, 8(%ebp)
0x07fb6c0e:  c7 45 0c 53 43 50 55     movl     $0x55504353, 0xc(%ebp)
0x07fb6c15:  8d 45 10                 leal     0x10(%ebp), %eax
0x07fb6c18:  be 37 3b 0f 00           movl     $0xf3b37, %esi
0x07fb6c1d:  b9 03 00 00 00           movl     $3, %ecx
0x07fb6c22:  89 c7                    movl     %eax, %edi
0x07fb6c24:  f3 a5                    rep movsl (%esi), %es:(%edi)

----------------
IN: 
0x07fb6c24:  f3 a5                    rep movsl (%esi), %es:(%edi)

----------------
IN: 
0x07fb6c26:  c7 45 24 00 00 e0 fe     movl     $0xfee00000, 0x24(%ebp)
0x07fb6c2d:  8d 44 24 78              leal     0x78(%esp), %eax
0x07fb6c31:  89 44 24 04              movl     %eax, 4(%esp)
0x07fb6c35:  8d 44 24 74              leal     0x74(%esp), %eax
0x07fb6c39:  89 04 24                 movl     %eax, (%esp)
0x07fb6c3c:  8d 4c 24 70              leal     0x70(%esp), %ecx
0x07fb6c40:  8d 54 24 6c              leal     0x6c(%esp), %edx
0x07fb6c44:  b8 01 00 00 00           movl     $1, %eax
0x07fb6c49:  e8 19 57 13 f8           calll    0xec367

----------------
IN: 
0x07fb6c4e:  83 7c 24 6c 00           cmpl     $0, 0x6c(%esp)
0x07fb6c53:  75 10                    jne      0x7fb6c65

----------------
IN: 
0x07fb6c65:  bf 01 00 00 00           movl     $1, %edi
0x07fb6c6a:  f6 44 24 7b 10           testb    $0x10, 0x7b(%esp)
0x07fb6c6f:  74 0c                    je       0x7fb6c7d

----------------
IN: 
0x07fb6c7d:  a1 30 00 e0 fe           movl     0xfee00030, %eax
0x07fb6c82:  88 44 24 18              movb     %al, 0x18(%esp)
0x07fb6c86:  8d 45 2c                 leal     0x2c(%ebp), %eax
0x07fb6c89:  89 44 24 20              movl     %eax, 0x20(%esp)
0x07fb6c8d:  89 c3                    movl     %eax, %ebx
0x07fb6c8f:  31 f6                    xorl     %esi, %esi
0x07fb6c91:  3b 35 e8 51 0f 00        cmpl     0xf51e8, %esi
0x07fb6c97:  73 4e                    jae      0x7fb6ce7

----------------
IN: 
0x07fb6c99:  b9 14 00 00 00           movl     $0x14, %ecx
0x07fb6c9e:  31 d2                    xorl     %edx, %edx
0x07fb6ca0:  89 d8                    movl     %ebx, %eax
0x07fb6ca2:  e8 1a 55 13 f8           calll    0xec1c1

----------------
IN: 
0x07fb6ca7:  c6 03 00                 movb     $0, (%ebx)
0x07fb6caa:  89 f0                    movl     %esi, %eax
0x07fb6cac:  88 43 01                 movb     %al, 1(%ebx)
0x07fb6caf:  8a 44 24 18              movb     0x18(%esp), %al
0x07fb6cb3:  88 43 02                 movb     %al, 2(%ebx)
0x07fb6cb6:  89 f0                    movl     %esi, %eax
0x07fb6cb8:  0f b6 c0                 movzbl   %al, %eax
0x07fb6cbb:  e8 aa 53 ff ff           calll    0x7fac06a

----------------
IN: 
0x07fac06a:  88 c2                    movb     %al, %dl
0x07fac06c:  c0 ea 05                 shrb     $5, %dl
0x07fac06f:  0f b6 d2                 movzbl   %dl, %edx
0x07fac072:  88 c1                    movb     %al, %cl
0x07fac074:  83 e1 1f                 andl     $0x1f, %ecx
0x07fac077:  8b 04 95 c4 51 0f 00     movl     0xf51c4(, %edx, 4), %eax
0x07fac07e:  d3 e8                    shrl     %cl, %eax
0x07fac080:  83 e0 01                 andl     $1, %eax
0x07fac083:  c3                       retl     

----------------
IN: 
0x07fb6cc0:  85 c0                    testl    %eax, %eax
0x07fb6cc2:  0f 95 c2                 setne    %dl
0x07fb6cc5:  83 fe 01                 cmpl     $1, %esi
0x07fb6cc8:  19 c0                    sbbl     %eax, %eax
0x07fb6cca:  83 e0 02                 andl     $2, %eax
0x07fb6ccd:  09 d0                    orl      %edx, %eax
0x07fb6ccf:  88 43 03                 movb     %al, 3(%ebx)
0x07fb6cd2:  8b 44 24 6c              movl     0x6c(%esp), %eax
0x07fb6cd6:  89 43 04                 movl     %eax, 4(%ebx)
0x07fb6cd9:  8b 44 24 78              movl     0x78(%esp), %eax
0x07fb6cdd:  89 43 08                 movl     %eax, 8(%ebx)
0x07fb6ce0:  83 c3 14                 addl     $0x14, %ebx
0x07fb6ce3:  01 fe                    addl     %edi, %esi
0x07fb6ce5:  eb aa                    jmp      0x7fb6c91

----------------
IN: 
0x07fb6c91:  3b 35 e8 51 0f 00        cmpl     0xf51e8, %esi
0x07fb6c97:  73 4e                    jae      0x7fb6ce7

----------------
IN: 
0x07fb6ce7:  89 de                    movl     %ebx, %esi
0x07fb6ce9:  89 df                    movl     %ebx, %edi
0x07fb6ceb:  2b 7c 24 20              subl     0x20(%esp), %edi
0x07fb6cef:  c1 ff 02                 sarl     $2, %edi
0x07fb6cf2:  69 ff cd cc cc cc        imull    $0xcccccccd, %edi, %edi
0x07fb6cf8:  83 3d 38 fe fb 07 00     cmpl     $0, 0x7fbfe38
0x07fb6cff:  74 26                    je       0x7fb6d27

----------------
IN: 
0x07fb6d01:  b9 08 00 00 00           movl     $8, %ecx
0x07fb6d06:  31 d2                    xorl     %edx, %edx
0x07fb6d08:  89 d8                    movl     %ebx, %eax
0x07fb6d0a:  e8 b2 54 13 f8           calll    0xec1c1

----------------
IN: 
0x07fb6d0f:  c6 03 01                 movb     $1, (%ebx)
0x07fb6d12:  c6 43 01 00              movb     $0, 1(%ebx)
0x07fb6d16:  c7 43 02 50 43 49 20     movl     $0x20494350, 2(%ebx)
0x07fb6d1d:  66 c7 43 06 20 20        movw     $0x2020, 6(%ebx)
0x07fb6d23:  83 c3 08                 addl     $8, %ebx
0x07fb6d26:  47                       incl     %edi
0x07fb6d27:  b9 08 00 00 00           movl     $8, %ecx
0x07fb6d2c:  31 d2                    xorl     %edx, %edx
0x07fb6d2e:  89 d8                    movl     %ebx, %eax
0x07fb6d30:  e8 8c 54 13 f8           calll    0xec1c1

----------------
IN: 
0x07fb6d35:  c6 03 01                 movb     $1, (%ebx)
0x07fb6d38:  89 d8                    movl     %ebx, %eax
0x07fb6d3a:  29 f0                    subl     %esi, %eax
0x07fb6d3c:  89 44 24 2c              movl     %eax, 0x2c(%esp)
0x07fb6d40:  c1 7c 24 2c 03           sarl     $3, 0x2c(%esp)
0x07fb6d45:  8b 74 24 2c              movl     0x2c(%esp), %esi
0x07fb6d49:  89 f0                    movl     %esi, %eax
0x07fb6d4b:  88 44 24 34              movb     %al, 0x34(%esp)
0x07fb6d4f:  88 43 01                 movb     %al, 1(%ebx)
0x07fb6d52:  c7 43 02 49 53 41 20     movl     $0x20415349, 2(%ebx)
0x07fb6d59:  66 c7 43 06 20 20        movw     $0x2020, 6(%ebx)
0x07fb6d5f:  8d 43 08                 leal     8(%ebx), %eax
0x07fb6d62:  b9 08 00 00 00           movl     $8, %ecx
0x07fb6d67:  31 d2                    xorl     %edx, %edx
0x07fb6d69:  e8 53 54 13 f8           calll    0xec1c1

----------------
IN: 
0x07fb6d6e:  c6 43 08 02              movb     $2, 8(%ebx)
0x07fb6d72:  c6 43 09 00              movb     $0, 9(%ebx)
0x07fb6d76:  c6 43 0a 11              movb     $0x11, 0xa(%ebx)
0x07fb6d7a:  c6 43 0b 01              movb     $1, 0xb(%ebx)
0x07fb6d7e:  c7 43 0c 00 00 c0 fe     movl     $0xfec00000, 0xc(%ebx)
0x07fb6d85:  8d 47 02                 leal     2(%edi), %eax
0x07fb6d88:  89 44 24 3c              movl     %eax, 0x3c(%esp)
0x07fb6d8c:  8d 43 10                 leal     0x10(%ebx), %eax
0x07fb6d8f:  89 44 24 40              movl     %eax, 0x40(%esp)
0x07fb6d93:  8b 3d 38 fe fb 07        movl     0x7fbfe38, %edi
0x07fb6d99:  8d 77 fc                 leal     -4(%edi), %esi
0x07fb6d9c:  89 c3                    movl     %eax, %ebx
0x07fb6d9e:  66 c7 44 24 24 00 00     movw     $0, 0x24(%esp)
0x07fb6da5:  83 c9 ff                 orl      $0xffffffff, %ecx
0x07fb6da8:  83 fe fc                 cmpl     $0xfc, %esi
0x07fb6dab:  74 0d                    je       0x7fb6dba

----------------
IN: 
0x07fb6dad:  8b 06                    movl     (%esi), %eax
0x07fb6daf:  66 89 44 24 18           movw     %ax, 0x18(%esp)
0x07fb6db4:  66 c1 e8 08              shrw     $8, %ax
0x07fb6db8:  74 17                    je       0x7fb6dd1

----------------
IN: 
0x07fb6dd1:  89 4c 24 50              movl     %ecx, 0x50(%esp)
0x07fb6dd5:  0f b7 7c 24 18           movzwl   0x18(%esp), %edi
0x07fb6dda:  ba 3d 00 00 00           movl     $0x3d, %edx
0x07fb6ddf:  89 f8                    movl     %edi, %eax
0x07fb6de1:  e8 c3 54 13 f8           calll    0xec2a9

----------------
IN: 
0x07fb6de6:  88 44 24 20              movb     %al, 0x20(%esp)
0x07fb6dea:  0f b6 c0                 movzbl   %al, %eax
0x07fb6ded:  89 44 24 44              movl     %eax, 0x44(%esp)
0x07fb6df1:  ba 3c 00 00 00           movl     $0x3c, %edx
0x07fb6df6:  89 f8                    movl     %edi, %eax
0x07fb6df8:  e8 ac 54 13 f8           calll    0xec2a9

----------------
IN: 
0x07fb6dfd:  88 44 24 4c              movb     %al, 0x4c(%esp)
0x07fb6e01:  8b 4c 24 50              movl     0x50(%esp), %ecx
0x07fb6e05:  89 cf                    movl     %ecx, %edi
0x07fb6e07:  83 7c 24 44 00           cmpl     $0, 0x44(%esp)
0x07fb6e0c:  74 7d                    je       0x7fb6e8b

----------------
IN: 
0x07fb6e8b:  8b 46 04                 movl     4(%esi), %eax
0x07fb6e8e:  8d 70 fc                 leal     -4(%eax), %esi
0x07fb6e91:  89 f9                    movl     %edi, %ecx
0x07fb6e93:  e9 10 ff ff ff           jmp      0x7fb6da8

----------------
IN: 
0x07fb6da8:  83 fe fc                 cmpl     $0xfc, %esi
0x07fb6dab:  74 0d                    je       0x7fb6dba

----------------
IN: 
0x07fb6e0e:  8b 7c 24 18              movl     0x18(%esp), %edi
0x07fb6e12:  81 e7 f8 ff 00 00        andl     $0xfff8, %edi
0x07fb6e18:  31 c0                    xorl     %eax, %eax
0x07fb6e1a:  39 f9                    cmpl     %edi, %ecx
0x07fb6e1c:  0f 94 c0                 sete     %al
0x07fb6e1f:  f7 d8                    negl     %eax
0x07fb6e21:  66 21 44 24 24           andw     %ax, 0x24(%esp)
0x07fb6e26:  0f b7 44 24 24           movzwl   0x24(%esp), %eax
0x07fb6e2b:  8b 4c 24 20              movl     0x20(%esp), %ecx
0x07fb6e2f:  0f a3 c8                 btl      %ecx, %eax
0x07fb6e32:  72 57                    jb       0x7fb6e8b

----------------
IN: 
0x07fb6e34:  b8 01 00 00 00           movl     $1, %eax
0x07fb6e39:  8a 4c 24 20              movb     0x20(%esp), %cl
0x07fb6e3d:  d3 e0                    shll     %cl, %eax
0x07fb6e3f:  66 09 44 24 24           orw      %ax, 0x24(%esp)
0x07fb6e44:  b9 08 00 00 00           movl     $8, %ecx
0x07fb6e49:  31 d2                    xorl     %edx, %edx
0x07fb6e4b:  89 d8                    movl     %ebx, %eax
0x07fb6e4d:  e8 6f 53 13 f8           calll    0xec1c1

----------------
IN: 
0x07fb6e52:  c6 03 03                 movb     $3, (%ebx)
0x07fb6e55:  c6 43 01 00              movb     $0, 1(%ebx)
0x07fb6e59:  66 c7 43 02 01 00        movw     $1, 2(%ebx)
0x07fb6e5f:  c6 43 04 00              movb     $0, 4(%ebx)
0x07fb6e63:  8a 4c 24 20              movb     0x20(%esp), %cl
0x07fb6e67:  8d 41 ff                 leal     -1(%ecx), %eax
0x07fb6e6a:  8b 54 24 18              movl     0x18(%esp), %edx
0x07fb6e6e:  66 c1 ea 03              shrw     $3, %dx
0x07fb6e72:  83 e2 1f                 andl     $0x1f, %edx
0x07fb6e75:  c1 e2 02                 shll     $2, %edx
0x07fb6e78:  09 d0                    orl      %edx, %eax
0x07fb6e7a:  88 43 05                 movb     %al, 5(%ebx)
0x07fb6e7d:  c6 43 06 00              movb     $0, 6(%ebx)
0x07fb6e81:  8a 44 24 4c              movb     0x4c(%esp), %al
0x07fb6e85:  88 43 07                 movb     %al, 7(%ebx)
0x07fb6e88:  83 c3 08                 addl     $8, %ebx
0x07fb6e8b:  8b 46 04                 movl     4(%esi), %eax
0x07fb6e8e:  8d 70 fc                 leal     -4(%eax), %esi
0x07fb6e91:  89 f9                    movl     %edi, %ecx
0x07fb6e93:  e9 10 ff ff ff           jmp      0x7fb6da8

----------------
IN: 
0x07fb6dba:  31 d2                    xorl     %edx, %edx
0x07fb6dbc:  31 c9                    xorl     %ecx, %ecx
0x07fb6dbe:  b8 0d 38 0f 00           movl     $0xf380d, %eax
0x07fb6dc3:  e8 b8 61 ff ff           calll    0x7facf80

----------------
IN: 
0x07fb6dc8:  89 c7                    movl     %eax, %edi
0x07fb6dca:  31 f6                    xorl     %esi, %esi
0x07fb6dcc:  e9 c7 00 00 00           jmp      0x7fb6e98

----------------
IN: 
0x07fb6e98:  b9 08 00 00 00           movl     $8, %ecx
0x07fb6e9d:  31 d2                    xorl     %edx, %edx
0x07fb6e9f:  89 d8                    movl     %ebx, %eax
0x07fb6ea1:  e8 1b 53 13 f8           calll    0xec1c1

----------------
IN: 
0x07fb6ea6:  b8 20 0e 00 00           movl     $0xe20, %eax
0x07fb6eab:  0f a3 f0                 btl      %esi, %eax
0x07fb6eae:  72 39                    jb       0x7fb6ee9

----------------
IN: 
0x07fb6eb0:  c6 03 03                 movb     $3, (%ebx)
0x07fb6eb3:  c6 43 01 00              movb     $0, 1(%ebx)
0x07fb6eb7:  66 c7 43 02 00 00        movw     $0, 2(%ebx)
0x07fb6ebd:  8a 44 24 34              movb     0x34(%esp), %al
0x07fb6ec1:  88 43 04                 movb     %al, 4(%ebx)
0x07fb6ec4:  89 f0                    movl     %esi, %eax
0x07fb6ec6:  88 43 05                 movb     %al, 5(%ebx)
0x07fb6ec9:  c6 43 06 00              movb     $0, 6(%ebx)
0x07fb6ecd:  88 43 07                 movb     %al, 7(%ebx)
0x07fb6ed0:  85 ff                    testl    %edi, %edi
0x07fb6ed2:  74 12                    je       0x7fb6ee6

----------------
IN: 
0x07fb6ed4:  85 f6                    testl    %esi, %esi
0x07fb6ed6:  75 06                    jne      0x7fb6ede

----------------
IN: 
0x07fb6ed8:  c6 43 07 02              movb     $2, 7(%ebx)
0x07fb6edc:  eb 08                    jmp      0x7fb6ee6

----------------
IN: 
0x07fb6ee6:  83 c3 08                 addl     $8, %ebx
0x07fb6ee9:  46                       incl     %esi
0x07fb6eea:  83 fe 10                 cmpl     $0x10, %esi
0x07fb6eed:  75 a9                    jne      0x7fb6e98

----------------
IN: 
0x07fb6ede:  83 fe 02                 cmpl     $2, %esi
0x07fb6ee1:  75 03                    jne      0x7fb6ee6

----------------
IN: 
0x07fb6ee3:  83 eb 08                 subl     $8, %ebx
0x07fb6ee6:  83 c3 08                 addl     $8, %ebx
0x07fb6ee9:  46                       incl     %esi
0x07fb6eea:  83 fe 10                 cmpl     $0x10, %esi
0x07fb6eed:  75 a9                    jne      0x7fb6e98

----------------
IN: 
0x07fb6ee9:  46                       incl     %esi
0x07fb6eea:  83 fe 10                 cmpl     $0x10, %esi
0x07fb6eed:  75 a9                    jne      0x7fb6e98

----------------
IN: 
0x07fb6eef:  c6 03 04                 movb     $4, (%ebx)
0x07fb6ef2:  c6 43 01 03              movb     $3, 1(%ebx)
0x07fb6ef6:  66 c7 43 02 00 00        movw     $0, 2(%ebx)
0x07fb6efc:  8b 7c 24 2c              movl     0x2c(%esp), %edi
0x07fb6f00:  89 f8                    movl     %edi, %eax
0x07fb6f02:  88 43 04                 movb     %al, 4(%ebx)
0x07fb6f05:  c6 43 05 00              movb     $0, 5(%ebx)
0x07fb6f09:  c6 43 06 00              movb     $0, 6(%ebx)
0x07fb6f0d:  c6 43 07 00              movb     $0, 7(%ebx)
0x07fb6f11:  c6 43 08 04              movb     $4, 8(%ebx)
0x07fb6f15:  c6 43 09 01              movb     $1, 9(%ebx)
0x07fb6f19:  66 c7 43 0a 00 00        movw     $0, 0xa(%ebx)
0x07fb6f1f:  88 43 0c                 movb     %al, 0xc(%ebx)
0x07fb6f22:  c6 43 0d 00              movb     $0, 0xd(%ebx)
0x07fb6f26:  c6 43 0e ff              movb     $0xff, 0xe(%ebx)
0x07fb6f2a:  c6 43 0f 01              movb     $1, 0xf(%ebx)
0x07fb6f2e:  83 c3 10                 addl     $0x10, %ebx
0x07fb6f31:  89 da                    movl     %ebx, %edx
0x07fb6f33:  29 ea                    subl     %ebp, %edx
0x07fb6f35:  2b 5c 24 40              subl     0x40(%esp), %ebx
0x07fb6f39:  c1 fb 03                 sarl     $3, %ebx
0x07fb6f3c:  03 5c 24 3c              addl     0x3c(%esp), %ebx
0x07fb6f40:  66 89 5d 22              movw     %bx, 0x22(%ebp)
0x07fb6f44:  66 89 55 04              movw     %dx, 4(%ebp)
0x07fb6f48:  89 e8                    movl     %ebp, %eax
0x07fb6f4a:  e8 20 61 13 f8           calll    0xed06f

----------------
IN: 
0x07fb6f4f:  28 45 07                 subb     %al, 7(%ebp)
0x07fb6f52:  b9 10 00 00 00           movl     $0x10, %ecx
0x07fb6f57:  31 d2                    xorl     %edx, %edx
0x07fb6f59:  8d 84 24 84 00 00 00     leal     0x84(%esp), %eax
0x07fb6f60:  e8 5c 52 13 f8           calll    0xec1c1

----------------
IN: 
0x07fb6f65:  c7 84 24 84 00 00 00 5f  movl     $0x5f504d5f, 0x84(%esp)
0x07fb6f6d:  4d 50 5f
0x07fb6f70:  89 ac 24 88 00 00 00     movl     %ebp, 0x88(%esp)
0x07fb6f77:  c6 84 24 8c 00 00 00 01  movb     $1, 0x8c(%esp)
0x07fb6f7f:  c6 84 24 8d 00 00 00 04  movb     $4, 0x8d(%esp)
0x07fb6f87:  8a 9c 24 8e 00 00 00     movb     0x8e(%esp), %bl
0x07fb6f8e:  ba 10 00 00 00           movl     $0x10, %edx
0x07fb6f93:  8d 84 24 84 00 00 00     leal     0x84(%esp), %eax
0x07fb6f9a:  e8 d0 60 13 f8           calll    0xed06f

----------------
IN: 
0x07fb6f9f:  29 c3                    subl     %eax, %ebx
0x07fb6fa1:  88 9c 24 8e 00 00 00     movb     %bl, 0x8e(%esp)
0x07fb6fa8:  8d 84 24 84 00 00 00     leal     0x84(%esp), %eax
0x07fb6faf:  e8 ef 94 ff ff           calll    0x7fb04a3

----------------
IN: 
0x07fb04a3:  55                       pushl    %ebp
0x07fb04a4:  57                       pushl    %edi
0x07fb04a5:  56                       pushl    %esi
0x07fb04a6:  53                       pushl    %ebx
0x07fb04a7:  83 ec 18                 subl     $0x18, %esp
0x07fb04aa:  89 c3                    movl     %eax, %ebx
0x07fb04ac:  8b 70 04                 movl     4(%eax), %esi
0x07fb04af:  85 f6                    testl    %esi, %esi
0x07fb04b1:  0f 84 a9 00 00 00        je       0x7fb0560

----------------
IN: 
0x07fb04b7:  ba 10 00 00 00           movl     $0x10, %edx
0x07fb04bc:  e8 ae cb 13 f8           calll    0xed06f

----------------
IN: 
0x07fb04c1:  84 c0                    testb    %al, %al
0x07fb04c3:  0f 85 97 00 00 00        jne      0x7fb0560

----------------
IN: 
0x07fb04c9:  0f b6 4b 08              movzbl   8(%ebx), %ecx
0x07fb04cd:  c1 e1 04                 shll     $4, %ecx
0x07fb04d0:  0f b7 46 04              movzwl   4(%esi), %eax
0x07fb04d4:  89 44 24 10              movl     %eax, 0x10(%esp)
0x07fb04d8:  01 c8                    addl     %ecx, %eax
0x07fb04da:  3d 58 02 00 00           cmpl     $0x258, %eax
0x07fb04df:  76 12                    jbe      0x7fb04f3

----------------
IN: 
0x07fb04f3:  89 4c 24 14              movl     %ecx, 0x14(%esp)
0x07fb04f7:  e8 87 d3 ff ff           calll    0x7fad883

----------------
IN: 
0x07fb04fc:  89 c5                    movl     %eax, %ebp
0x07fb04fe:  85 c0                    testl    %eax, %eax
0x07fb0500:  8b 4c 24 14              movl     0x14(%esp), %ecx
0x07fb0504:  75 16                    jne      0x7fb051c

----------------
IN: 
0x07fb051c:  89 4c 24 14              movl     %ecx, 0x14(%esp)
0x07fb0520:  89 44 24 0c              movl     %eax, 0xc(%esp)
0x07fb0524:  8b 43 04                 movl     4(%ebx), %eax
0x07fb0527:  89 44 24 08              movl     %eax, 8(%esp)
0x07fb052b:  89 5c 24 04              movl     %ebx, 4(%esp)
0x07fb052f:  c7 04 24 78 2b 0f 00     movl     $0xf2b78, (%esp)
0x07fb0536:  e8 8a dd 13 f8           calll    0xee2c5

----------------
IN: 
0x07fb053b:  89 ef                    movl     %ebp, %edi
0x07fb053d:  89 de                    movl     %ebx, %esi
0x07fb053f:  8b 4c 24 14              movl     0x14(%esp), %ecx
0x07fb0543:  f3 a4                    rep movsb (%esi), %es:(%edi)

----------------
IN: 
0x07fb0543:  f3 a4                    rep movsb (%esi), %es:(%edi)

----------------
IN: 
0x07fb0545:  89 7d 04                 movl     %edi, 4(%ebp)
0x07fb0548:  ba 10 00 00 00           movl     $0x10, %edx
0x07fb054d:  89 e8                    movl     %ebp, %eax
0x07fb054f:  e8 1b cb 13 f8           calll    0xed06f

----------------
IN: 
0x07fb0554:  28 45 0a                 subb     %al, 0xa(%ebp)
0x07fb0557:  8b 73 04                 movl     4(%ebx), %esi
0x07fb055a:  8b 4c 24 10              movl     0x10(%esp), %ecx
0x07fb055e:  f3 a4                    rep movsb (%esi), %es:(%edi)

----------------
IN: 
0x07fb055e:  f3 a4                    rep movsb (%esi), %es:(%edi)

----------------
IN: 
0x07fb0560:  83 c4 18                 addl     $0x18, %esp
0x07fb0563:  5b                       popl     %ebx
0x07fb0564:  5e                       popl     %esi
0x07fb0565:  5f                       popl     %edi
0x07fb0566:  5d                       popl     %ebp
0x07fb0567:  c3                       retl     

----------------
IN: 
0x07fb6fb4:  89 e8                    movl     %ebp, %eax
0x07fb6fb6:  e8 79 63 ff ff           calll    0x7fad334

----------------
IN: 
0x07fb6fbb:  b8 44 3b 0f 00           movl     $0xf3b44, %eax
0x07fb6fc0:  e8 86 5f ff ff           calll    0x7facf4b

----------------
IN: 
0x07fb6fc5:  89 c7                    movl     %eax, %edi
0x07fb6fc7:  b8 5d 3b 0f 00           movl     $0xf3b5d, %eax
0x07fb6fcc:  e8 7a 5f ff ff           calll    0x7facf4b

----------------
IN: 
0x07fb6fd1:  89 c3                    movl     %eax, %ebx
0x07fb6fd3:  85 c0                    testl    %eax, %eax
0x07fb6fd5:  0f 84 a7 02 00 00        je       0x7fb7282

----------------
IN: 
0x07fb6fdb:  85 ff                    testl    %edi, %edi
0x07fb6fdd:  0f 84 9f 02 00 00        je       0x7fb7282

----------------
IN: 
0x07fb6fe3:  83 bf 84 00 00 00 1f     cmpl     $0x1f, 0x84(%edi)
0x07fb6fea:  0f 85 92 02 00 00        jne      0x7fb7282

----------------
IN: 
0x07fb6ff0:  8d b4 24 84 00 00 00     leal     0x84(%esp), %esi
0x07fb6ff7:  b9 1f 00 00 00           movl     $0x1f, %ecx
0x07fb6ffc:  89 f2                    movl     %esi, %edx
0x07fb6ffe:  89 f8                    movl     %edi, %eax
0x07fb7000:  ff 97 88 00 00 00        calll    *0x88(%edi)

----------------
IN: 
0x07fb7006:  8b 83 84 00 00 00        movl     0x84(%ebx), %eax
0x07fb700c:  0f b7 94 24 9a 00 00 00  movzwl   0x9a(%esp), %edx
0x07fb7014:  39 d0                    cmpl     %edx, %eax
0x07fb7016:  0f 85 66 02 00 00        jne      0x7fb7282

----------------
IN: 
0x07fb701c:  e8 40 68 ff ff           calll    0x7fad861

----------------
IN: 
0x07fb7021:  89 44 24 20              movl     %eax, 0x20(%esp)
0x07fb7025:  85 c0                    testl    %eax, %eax
0x07fb7027:  75 13                    jne      0x7fb703c

----------------
IN: 
0x07fb703c:  8b 8b 84 00 00 00        movl     0x84(%ebx), %ecx
0x07fb7042:  8b 7c 24 20              movl     0x20(%esp), %edi
0x07fb7046:  89 fa                    movl     %edi, %edx
0x07fb7048:  89 d8                    movl     %ebx, %eax
0x07fb704a:  ff 93 88 00 00 00        calll    *0x88(%ebx)

----------------
IN: 
0x07fb7050:  89 bc 24 9c 00 00 00     movl     %edi, 0x9c(%esp)
0x07fb7057:  31 d2                    xorl     %edx, %edx
0x07fb7059:  89 f0                    movl     %esi, %eax
0x07fb705b:  e8 6b 4e ff ff           calll    0x7fabecb

----------------
IN: 
0x07fabecb:  85 c0                    testl    %eax, %eax
0x07fabecd:  74 53                    je       0x7fabf22

----------------
IN: 
0x07fabecf:  53                       pushl    %ebx
0x07fabed0:  8b 48 18                 movl     0x18(%eax), %ecx
0x07fabed3:  0f b7 58 16              movzwl   0x16(%eax), %ebx
0x07fabed7:  01 cb                    addl     %ecx, %ebx
0x07fabed9:  85 d2                    testl    %edx, %edx
0x07fabedb:  74 24                    je       0x7fabf01

----------------
IN: 
0x07fabf01:  31 c0                    xorl     %eax, %eax
0x07fabf03:  39 d9                    cmpl     %ebx, %ecx
0x07fabf05:  73 20                    jae      0x7fabf27

----------------
IN: 
0x07fabf07:  8d 41 04                 leal     4(%ecx), %eax
0x07fabf0a:  39 c3                    cmpl     %eax, %ebx
0x07fabf0c:  76 17                    jbe      0x7fabf25

----------------
IN: 
0x07fabf0e:  0f b6 41 01              movzbl   1(%ecx), %eax
0x07fabf12:  01 c8                    addl     %ecx, %eax
0x07fabf14:  39 c3                    cmpl     %eax, %ebx
0x07fabf16:  0f 97 c0                 seta     %al
0x07fabf19:  0f b6 c0                 movzbl   %al, %eax
0x07fabf1c:  f7 d8                    negl     %eax
0x07fabf1e:  21 c8                    andl     %ecx, %eax
0x07fabf20:  eb 05                    jmp      0x7fabf27

----------------
IN: 
0x07fabf27:  5b                       popl     %ebx
0x07fabf28:  c3                       retl     

----------------
IN: 
0x07fb7060:  85 c0                    testl    %eax, %eax
0x07fb7062:  74 09                    je       0x7fb706d

----------------
IN: 
0x07fb7064:  80 38 00                 cmpb     $0, (%eax)
0x07fb7067:  74 0b                    je       0x7fb7074

----------------
IN: 
0x07fb7069:  89 c2                    movl     %eax, %edx
0x07fb706b:  eb ec                    jmp      0x7fb7059

----------------
IN: 
0x07fb7059:  89 f0                    movl     %esi, %eax
0x07fb705b:  e8 6b 4e ff ff           calll    0x7fabecb

----------------
IN: 
0x07fabedd:  8d 42 04                 leal     4(%edx), %eax
0x07fabee0:  39 c3                    cmpl     %eax, %ebx
0x07fabee2:  72 41                    jb       0x7fabf25

----------------
IN: 
0x07fabee4:  0f b6 42 01              movzbl   1(%edx), %eax
0x07fabee8:  8d 4c 02 02              leal     2(%edx, %eax), %ecx
0x07fabeec:  39 d9                    cmpl     %ebx, %ecx
0x07fabeee:  73 35                    jae      0x7fabf25

----------------
IN: 
0x07fabef0:  80 79 ff 00              cmpb     $0, -1(%ecx)
0x07fabef4:  74 03                    je       0x7fabef9

----------------
IN: 
0x07fabef6:  41                       incl     %ecx
0x07fabef7:  eb f3                    jmp      0x7fabeec

----------------
IN: 
0x07fabeec:  39 d9                    cmpl     %ebx, %ecx
0x07fabeee:  73 35                    jae      0x7fabf25

----------------
IN: 
0x07fabef9:  80 79 fe 00              cmpb     $0, -2(%ecx)
0x07fabefd:  75 f7                    jne      0x7fabef6

----------------
IN: 
0x07fabeff:  eb 06                    jmp      0x7fabf07

----------------
IN: 
0x07fabf25:  31 c0                    xorl     %eax, %eax
0x07fabf27:  5b                       popl     %ebx
0x07fabf28:  c3                       retl     

----------------
IN: 
0x07fb706d:  be 01 00 00 00           movl     $1, %esi
0x07fb7072:  eb 02                    jmp      0x7fb7076

----------------
IN: 
0x07fb7076:  66 8b 84 24 9a 00 00 00  movw     0x9a(%esp), %ax
0x07fb707e:  66 89 44 24 24           movw     %ax, 0x24(%esp)
0x07fb7083:  66 85 f6                 testw    %si, %si
0x07fb7086:  74 51                    je       0x7fb70d9

----------------
IN: 
0x07fb7088:  b8 76 3b 0f 00           movl     $0xf3b76, %eax
0x07fb708d:  e8 00 51 13 f8           calll    0xec192

----------------
IN: 
0x07fb7092:  89 c7                    movl     %eax, %edi
0x07fb7094:  b8 58 51 0f 00           movl     $0xf5158, %eax
0x07fb7099:  e8 f4 50 13 f8           calll    0xec192

----------------
IN: 
0x07fb709e:  89 c3                    movl     %eax, %ebx
0x07fb70a0:  b8 7e 3b 0f 00           movl     $0xf3b7e, %eax
0x07fb70a5:  e8 e8 50 13 f8           calll    0xec192

----------------
IN: 
0x07fb70aa:  8d 5c 1f 1c              leal     0x1c(%edi, %ebx), %ebx
0x07fb70ae:  01 d8                    addl     %ebx, %eax
0x07fb70b0:  8b 7c 24 24              movl     0x24(%esp), %edi
0x07fb70b4:  8d 14 38                 leal     (%eax, %edi), %edx
0x07fb70b7:  66 89 94 24 9a 00 00 00  movw     %dx, 0x9a(%esp)
0x07fb70bf:  66 3b 84 24 8c 00 00 00  cmpw     0x8c(%esp), %ax
0x07fb70c7:  76 08                    jbe      0x7fb70d1

----------------
IN: 
0x07fb70c9:  66 89 84 24 8c 00 00 00  movw     %ax, 0x8c(%esp)
0x07fb70d1:  66 ff 84 24 a0 00 00 00  incw     0xa0(%esp)
0x07fb70d9:  0f b7 84 24 9a 00 00 00  movzwl   0x9a(%esp), %eax
0x07fb70e1:  66 3d 58 02              cmpw     $0x258, %ax
0x07fb70e5:  76 07                    jbe      0x7fb70ee

----------------
IN: 
0x07fb70ee:  e8 90 67 ff ff           calll    0x7fad883

----------------
IN: 
0x07fb70f3:  89 c3                    movl     %eax, %ebx
0x07fb70f5:  85 c0                    testl    %eax, %eax
0x07fb70f7:  75 1d                    jne      0x7fb7116

----------------
IN: 
0x07fb7116:  89 84 24 9c 00 00 00     movl     %eax, 0x9c(%esp)
0x07fb711d:  66 85 f6                 testw    %si, %si
0x07fb7120:  0f 84 ed 00 00 00        je       0x7fb7213

----------------
IN: 
0x07fb7126:  8d 68 18                 leal     0x18(%eax), %ebp
0x07fb7129:  c6 00 00                 movb     $0, (%eax)
0x07fb712c:  c6 40 01 18              movb     $0x18, 1(%eax)
0x07fb7130:  66 c7 40 02 00 00        movw     $0, 2(%eax)
0x07fb7136:  b8 76 3b 0f 00           movl     $0xf3b76, %eax
0x07fb713b:  e8 52 50 13 f8           calll    0xec192

----------------
IN: 
0x07fb7140:  8d 48 01                 leal     1(%eax), %ecx
0x07fb7143:  83 f9 01                 cmpl     $1, %ecx
0x07fb7146:  7e 19                    jle      0x7fb7161

----------------
IN: 
0x07fb7148:  be 76 3b 0f 00           movl     $0xf3b76, %esi
0x07fb714d:  89 ef                    movl     %ebp, %edi
0x07fb714f:  f3 a4                    rep movsb (%esi), %es:(%edi)

----------------
IN: 
0x07fb714f:  f3 a4                    rep movsb (%esi), %es:(%edi)

----------------
IN: 
0x07fb7151:  89 fd                    movl     %edi, %ebp
0x07fb7153:  c6 43 04 01              movb     $1, 4(%ebx)
0x07fb7157:  c7 44 24 18 01 00 00 00  movl     $1, 0x18(%esp)
0x07fb715f:  eb 0c                    jmp      0x7fb716d

----------------
IN: 
0x07fb716d:  b8 58 51 0f 00           movl     $0xf5158, %eax
0x07fb7172:  e8 1b 50 13 f8           calll    0xec192

----------------
IN: 
0x07fb7177:  8d 48 01                 leal     1(%eax), %ecx
0x07fb717a:  83 f9 01                 cmpl     $1, %ecx
0x07fb717d:  7e 18                    jle      0x7fb7197

----------------
IN: 
0x07fb717f:  be 58 51 0f 00           movl     $0xf5158, %esi
0x07fb7184:  89 ef                    movl     %ebp, %edi
0x07fb7186:  f3 a4                    rep movsb (%esi), %es:(%edi)

----------------
IN: 
0x07fb7186:  f3 a4                    rep movsb (%esi), %es:(%edi)

----------------
IN: 
0x07fb7188:  89 fd                    movl     %edi, %ebp
0x07fb718a:  ff 44 24 18              incl     0x18(%esp)
0x07fb718e:  8a 44 24 18              movb     0x18(%esp), %al
0x07fb7192:  88 43 05                 movb     %al, 5(%ebx)
0x07fb7195:  eb 04                    jmp      0x7fb719b

----------------
IN: 
0x07fb719b:  66 c7 43 06 00 e8        movw     $0xe800, 6(%ebx)
0x07fb71a1:  b8 7e 3b 0f 00           movl     $0xf3b7e, %eax
0x07fb71a6:  e8 e7 4f 13 f8           calll    0xec192

----------------
IN: 
0x07fb71ab:  8d 48 01                 leal     1(%eax), %ecx
0x07fb71ae:  83 f9 01                 cmpl     $1, %ecx
0x07fb71b1:  7e 18                    jle      0x7fb71cb

----------------
IN: 
0x07fb71b3:  be 7e 3b 0f 00           movl     $0xf3b7e, %esi
0x07fb71b8:  89 ef                    movl     %ebp, %edi
0x07fb71ba:  f3 a4                    rep movsb (%esi), %es:(%edi)

----------------
IN: 
0x07fb71ba:  f3 a4                    rep movsb (%esi), %es:(%edi)

----------------
IN: 
0x07fb71bc:  89 fd                    movl     %edi, %ebp
0x07fb71be:  ff 44 24 18              incl     0x18(%esp)
0x07fb71c2:  8a 44 24 18              movb     0x18(%esp), %al
0x07fb71c6:  88 43 08                 movb     %al, 8(%ebx)
0x07fb71c9:  eb 04                    jmp      0x7fb71cf

----------------
IN: 
0x07fb71cf:  c6 43 09 00              movb     $0, 9(%ebx)
0x07fb71d3:  8d 43 0a                 leal     0xa(%ebx), %eax
0x07fb71d6:  b9 08 00 00 00           movl     $8, %ecx
0x07fb71db:  31 d2                    xorl     %edx, %edx
0x07fb71dd:  e8 df 4f 13 f8           calll    0xec1c1

----------------
IN: 
0x07fb71e2:  c6 43 0a 08              movb     $8, 0xa(%ebx)
0x07fb71e6:  c6 43 12 00              movb     $0, 0x12(%ebx)
0x07fb71ea:  c6 43 13 04              movb     $4, 0x13(%ebx)
0x07fb71ee:  c6 43 14 00              movb     $0, 0x14(%ebx)
0x07fb71f2:  c6 43 15 00              movb     $0, 0x15(%ebx)
0x07fb71f6:  c6 43 16 ff              movb     $0xff, 0x16(%ebx)
0x07fb71fa:  c6 43 17 ff              movb     $0xff, 0x17(%ebx)
0x07fb71fe:  c6 45 00 00              movb     $0, (%ebp)
0x07fb7202:  8d 5d 01                 leal     1(%ebp), %ebx
0x07fb7205:  83 7c 24 18 00           cmpl     $0, 0x18(%esp)
0x07fb720a:  75 07                    jne      0x7fb7213

----------------
IN: 
0x07fb7213:  0f b7 4c 24 24           movzwl   0x24(%esp), %ecx
0x07fb7218:  89 df                    movl     %ebx, %edi
0x07fb721a:  8b 74 24 20              movl     0x20(%esp), %esi
0x07fb721e:  f3 a4                    rep movsb (%esi), %es:(%edi)

----------------
IN: 
0x07fb721e:  f3 a4                    rep movsb (%esi), %es:(%edi)

----------------
IN: 
0x07fb7220:  8b 44 24 20              movl     0x20(%esp), %eax
0x07fb7224:  e8 0b 61 ff ff           calll    0x7fad334

----------------
IN: 
0x07fb7229:  8a 9c 24 88 00 00 00     movb     0x88(%esp), %bl
0x07fb7230:  ba 10 00 00 00           movl     $0x10, %edx
0x07fb7235:  8d 84 24 84 00 00 00     leal     0x84(%esp), %eax
0x07fb723c:  e8 2e 5e 13 f8           calll    0xed06f

----------------
IN: 
0x07fb7241:  29 c3                    subl     %eax, %ebx
0x07fb7243:  88 9c 24 88 00 00 00     movb     %bl, 0x88(%esp)
0x07fb724a:  8a 9c 24 99 00 00 00     movb     0x99(%esp), %bl
0x07fb7251:  0f b6 94 24 89 00 00 00  movzbl   0x89(%esp), %edx
0x07fb7259:  83 ea 10                 subl     $0x10, %edx
0x07fb725c:  8d 84 24 94 00 00 00     leal     0x94(%esp), %eax
0x07fb7263:  e8 07 5e 13 f8           calll    0xed06f

----------------
IN: 
0x07fb7268:  29 c3                    subl     %eax, %ebx
0x07fb726a:  88 9c 24 99 00 00 00     movb     %bl, 0x99(%esp)
0x07fb7271:  8d 84 24 84 00 00 00     leal     0x84(%esp), %eax
0x07fb7278:  e8 54 93 ff ff           calll    0x7fb05d1

----------------
IN: 
0x07fb05d1:  83 3d 44 ff fb 07 00     cmpl     $0, 0x7fbff44
0x07fb05d8:  0f 85 92 00 00 00        jne      0x7fb0670

----------------
IN: 
0x07fb05de:  57                       pushl    %edi
0x07fb05df:  56                       pushl    %esi
0x07fb05e0:  53                       pushl    %ebx
0x07fb05e1:  83 ec 0c                 subl     $0xc, %esp
0x07fb05e4:  89 c6                    movl     %eax, %esi
0x07fb05e6:  81 38 5f 53 4d 5f        cmpl     $0x5f4d535f, (%eax)
0x07fb05ec:  75 7c                    jne      0x7fb066a

----------------
IN: 
0x07fb05ee:  ba 10 00 00 00           movl     $0x10, %edx
0x07fb05f3:  e8 77 ca 13 f8           calll    0xed06f

----------------
IN: 
0x07fb05f8:  84 c0                    testb    %al, %al
0x07fb05fa:  75 6e                    jne      0x7fb066a

----------------
IN: 
0x07fb05fc:  8d 5e 10                 leal     0x10(%esi), %ebx
0x07fb05ff:  b9 05 00 00 00           movl     $5, %ecx
0x07fb0604:  ba bb 2b 0f 00           movl     $0xf2bbb, %edx
0x07fb0609:  89 d8                    movl     %ebx, %eax
0x07fb060b:  e8 7e af ff ff           calll    0x7fab58e

----------------
IN: 
0x07fb0610:  85 c0                    testl    %eax, %eax
0x07fb0612:  75 56                    jne      0x7fb066a

----------------
IN: 
0x07fb0614:  0f b6 7e 05              movzbl   5(%esi), %edi
0x07fb0618:  8d 57 f0                 leal     -0x10(%edi), %edx
0x07fb061b:  89 d8                    movl     %ebx, %eax
0x07fb061d:  e8 4d ca 13 f8           calll    0xed06f

----------------
IN: 
0x07fb0622:  84 c0                    testb    %al, %al
0x07fb0624:  75 44                    jne      0x7fb066a

----------------
IN: 
0x07fb0626:  89 f8                    movl     %edi, %eax
0x07fb0628:  e8 56 d2 ff ff           calll    0x7fad883

----------------
IN: 
0x07fb062d:  89 c3                    movl     %eax, %ebx
0x07fb062f:  85 c0                    testl    %eax, %eax
0x07fb0631:  75 15                    jne      0x7fb0648

----------------
IN: 
0x07fb0648:  89 44 24 08              movl     %eax, 8(%esp)
0x07fb064c:  89 74 24 04              movl     %esi, 4(%esp)
0x07fb0650:  c7 04 24 c1 2b 0f 00     movl     $0xf2bc1, (%esp)
0x07fb0657:  e8 69 dc 13 f8           calll    0xee2c5

----------------
IN: 
0x07fb065c:  0f b6 4e 05              movzbl   5(%esi), %ecx
0x07fb0660:  89 df                    movl     %ebx, %edi
0x07fb0662:  f3 a4                    rep movsb (%esi), %es:(%edi)

----------------
IN: 
0x07fb0662:  f3 a4                    rep movsb (%esi), %es:(%edi)

----------------
IN: 
0x07fb0664:  89 1d 44 ff fb 07        movl     %ebx, 0x7fbff44
0x07fb066a:  83 c4 0c                 addl     $0xc, %esp
0x07fb066d:  5b                       popl     %ebx
0x07fb066e:  5e                       popl     %esi
0x07fb066f:  5f                       popl     %edi
0x07fb0670:  c3                       retl     

----------------
IN: 
0x07fb727d:  e9 c4 0b 00 00           jmp      0x7fb7e46

----------------
IN: 
0x07fb7e46:  8d 54 24 78              leal     0x78(%esp), %edx
0x07fb7e4a:  b8 94 3b 0f 00           movl     $0xf3b94, %eax
0x07fb7e4f:  e8 f3 5c ff ff           calll    0x7fadb47

----------------
IN: 
0x07fb7e54:  89 44 24 20              movl     %eax, 0x20(%esp)
0x07fb7e58:  85 c0                    testl    %eax, %eax
0x07fb7e5a:  0f 84 61 04 00 00        je       0x7fb82c1

----------------
IN: 
0x07fb7e60:  8b 44 24 78              movl     0x78(%esp), %eax
0x07fb7e64:  a8 7f                    testb    $0x7f, %al
0x07fb7e66:  74 14                    je       0x7fb7e7c

----------------
IN: 
0x07fb7e7c:  c1 e8 07                 shrl     $7, %eax
0x07fb7e7f:  8d 04 c5 04 00 00 00     leal     4(, %eax, 8), %eax
0x07fb7e86:  e8 48 5a ff ff           calll    0x7fad8d3

----------------
IN: 
0x07fb7e8b:  89 44 24 18              movl     %eax, 0x18(%esp)
0x07fb7e8f:  85 c0                    testl    %eax, %eax
0x07fb7e91:  75 11                    jne      0x7fb7ea4

----------------
IN: 
0x07fb7ea4:  8b 44 24 18              movl     0x18(%esp), %eax
0x07fb7ea8:  c7 00 00 00 00 00        movl     $0, (%eax)
0x07fb7eae:  8b 44 24 20              movl     0x20(%esp), %eax
0x07fb7eb2:  8d 68 04                 leal     4(%eax), %ebp
0x07fb7eb5:  c7 44 24 24 00 00 00 00  movl     $0, 0x24(%esp)
0x07fb7ebd:  8b 44 24 24              movl     0x24(%esp), %eax
0x07fb7ec1:  3b 44 24 78              cmpl     0x78(%esp), %eax
0x07fb7ec5:  0f 8d d9 03 00 00        jge      0x7fb82a4

----------------
IN: 
0x07fb7ecb:  8b 45 fc                 movl     -4(%ebp), %eax
0x07fb7ece:  83 f8 02                 cmpl     $2, %eax
0x07fb7ed1:  0f 84 f5 00 00 00        je       0x7fb7fcc

----------------
IN: 
0x07fb7ed7:  77 08                    ja       0x7fb7ee1

----------------
IN: 
0x07fb7ed9:  48                       decl     %eax
0x07fb7eda:  74 1c                    je       0x7fb7ef8

----------------
IN: 
0x07fb7ef8:  8b 44 24 18              movl     0x18(%esp), %eax
0x07fb7efc:  8b 10                    movl     (%eax), %edx
0x07fb7efe:  8b 7d 38                 movl     0x38(%ebp), %edi
0x07fb7f01:  8d 47 ff                 leal     -1(%edi), %eax
0x07fb7f04:  85 f8                    testl    %edi, %eax
0x07fb7f06:  0f 85 b1 00 00 00        jne      0x7fb7fbd

----------------
IN: 
0x07fb7f0c:  8a 45 3c                 movb     0x3c(%ebp), %al
0x07fb7f0f:  3c 01                    cmpb     $1, %al
0x07fb7f11:  74 0f                    je       0x7fb7f22

----------------
IN: 
0x07fb7f13:  3c 02                    cmpb     $2, %al
0x07fb7f15:  0f 85 a2 00 00 00        jne      0x7fb7fbd

----------------
IN: 
0x07fb7f1b:  bb b8 fe fb 07           movl     $0x7fbfeb8, %ebx
0x07fb7f20:  eb 05                    jmp      0x7fb7f27

----------------
IN: 
0x07fb7f27:  83 ff 0f                 cmpl     $0xf, %edi
0x07fb7f2a:  77 05                    ja       0x7fb7f31

----------------
IN: 
0x07fb7f31:  80 7d 37 00              cmpb     $0, 0x37(%ebp)
0x07fb7f35:  0f 85 82 00 00 00        jne      0x7fb7fbd

----------------
IN: 
0x07fb7f3b:  8b 44 24 18              movl     0x18(%esp), %eax
0x07fb7f3f:  8d 34 d0                 leal     (%eax, %edx, 8), %esi
0x07fb7f42:  8d 46 04                 leal     4(%esi), %eax
0x07fb7f45:  89 44 24 2c              movl     %eax, 0x2c(%esp)
0x07fb7f49:  89 e8                    movl     %ebp, %eax
0x07fb7f4b:  e8 fb 4f ff ff           calll    0x7facf4b

----------------
IN: 
0x07fb7f50:  89 46 04                 movl     %eax, 4(%esi)
0x07fb7f53:  85 c0                    testl    %eax, %eax
0x07fb7f55:  0f 84 3c 03 00 00        je       0x7fb8297

----------------
IN: 
0x07fb7f5b:  8b 90 84 00 00 00        movl     0x84(%eax), %edx
0x07fb7f61:  85 d2                    testl    %edx, %edx
0x07fb7f63:  0f 84 2e 03 00 00        je       0x7fb8297

----------------
IN: 
0x07fb7f69:  89 f9                    movl     %edi, %ecx
0x07fb7f6b:  89 d8                    movl     %ebx, %eax
0x07fb7f6d:  e8 e3 58 ff ff           calll    0x7fad855

----------------
IN: 
0x07fb7f72:  89 c3                    movl     %eax, %ebx
0x07fb7f74:  ba f0 df fb 07           movl     $0x7fbdff0, %edx
0x07fb7f79:  b8 57 00 00 00           movl     $0x57, %eax
0x07fb7f7e:  85 db                    testl    %ebx, %ebx
0x07fb7f80:  0f 84 a6 02 00 00        je       0x7fb822c

----------------
IN: 
0x07fb7f86:  8b 7e 04                 movl     4(%esi), %edi
0x07fb7f89:  8b 8f 84 00 00 00        movl     0x84(%edi), %ecx
0x07fb7f8f:  89 da                    movl     %ebx, %edx
0x07fb7f91:  89 f8                    movl     %edi, %eax
0x07fb7f93:  ff 97 88 00 00 00        calll    *0x88(%edi)

----------------
IN: 
0x07fb7f99:  8b 56 04                 movl     4(%esi), %edx
0x07fb7f9c:  3b 82 84 00 00 00        cmpl     0x84(%edx), %eax
0x07fb7fa2:  75 12                    jne      0x7fb7fb6

----------------
IN: 
0x07fb7fa4:  8b 44 24 2c              movl     0x2c(%esp), %eax
0x07fb7fa8:  89 58 04                 movl     %ebx, 4(%eax)
0x07fb7fab:  8b 44 24 18              movl     0x18(%esp), %eax
0x07fb7faf:  ff 00                    incl     (%eax)
0x07fb7fb1:  e9 e1 02 00 00           jmp      0x7fb8297

----------------
IN: 
0x07fb8297:  83 6c 24 24 80           subl     $-0x80, 0x24(%esp)
0x07fb829c:  83 ed 80                 subl     $-0x80, %ebp
0x07fb829f:  e9 19 fc ff ff           jmp      0x7fb7ebd

----------------
IN: 
0x07fb7ebd:  8b 44 24 24              movl     0x24(%esp), %eax
0x07fb7ec1:  3b 44 24 78              cmpl     0x78(%esp), %eax
0x07fb7ec5:  0f 8d d9 03 00 00        jge      0x7fb82a4

----------------
IN: 
0x07fb7f22:  bb bc fe fb 07           movl     $0x7fbfebc, %ebx
0x07fb7f27:  83 ff 0f                 cmpl     $0xf, %edi
0x07fb7f2a:  77 05                    ja       0x7fb7f31

----------------
IN: 
0x07fb7ee1:  83 f8 03                 cmpl     $3, %eax
0x07fb7ee4:  0f 84 97 01 00 00        je       0x7fb8081

----------------
IN: 
0x07fb8081:  8b 7d 38                 movl     0x38(%ebp), %edi
0x07fb8084:  8b 75 3c                 movl     0x3c(%ebp), %esi
0x07fb8087:  8b 5d 40                 movl     0x40(%ebp), %ebx
0x07fb808a:  8b 54 24 18              movl     0x18(%esp), %edx
0x07fb808e:  89 e8                    movl     %ebp, %eax
0x07fb8090:  e8 ba 40 ff ff           calll    0x7fac14f

----------------
IN: 
0x07fac14f:  55                       pushl    %ebp
0x07fac150:  57                       pushl    %edi
0x07fac151:  56                       pushl    %esi
0x07fac152:  53                       pushl    %ebx
0x07fac153:  89 c7                    movl     %eax, %edi
0x07fac155:  80 78 37 00              cmpb     $0, 0x37(%eax)
0x07fac159:  75 25                    jne      0x7fac180

----------------
IN: 
0x07fac15b:  89 d6                    movl     %edx, %esi
0x07fac15d:  8b 2a                    movl     (%edx), %ebp
0x07fac15f:  31 db                    xorl     %ebx, %ebx
0x07fac161:  39 eb                    cmpl     %ebp, %ebx
0x07fac163:  7d 1b                    jge      0x7fac180

----------------
IN: 
0x07fac165:  8b 44 de 04              movl     4(%esi, %ebx, 8), %eax
0x07fac169:  83 c0 04                 addl     $4, %eax
0x07fac16c:  89 fa                    movl     %edi, %edx
0x07fac16e:  e8 2e 00 14 f8           calll    0xec1a1

----------------
IN: 
0x000ec1b8:  41                       incl     %ecx
0x000ec1b9:  84 db                    testb    %bl, %bl
0x000ec1bb:  75 e7                    jne      0xec1a4

----------------
IN: 
0x000ec1a4:  8a 1c 08                 movb     (%eax, %ecx), %bl
0x000ec1a7:  3a 1c 0a                 cmpb     (%edx, %ecx), %bl
0x000ec1aa:  74 0c                    je       0xec1b8

----------------
IN: 
0x07fac173:  85 c0                    testl    %eax, %eax
0x07fac175:  75 06                    jne      0x7fac17d

----------------
IN: 
0x07fac17d:  43                       incl     %ebx
0x07fac17e:  eb e1                    jmp      0x7fac161

----------------
IN: 
0x07fac161:  39 eb                    cmpl     %ebp, %ebx
0x07fac163:  7d 1b                    jge      0x7fac180

----------------
IN: 
0x000ec1bd:  31 c0                    xorl     %eax, %eax
0x000ec1bf:  5b                       popl     %ebx
0x000ec1c0:  c3                       retl     

----------------
IN: 
0x07fac177:  8d 44 de 04              leal     4(%esi, %ebx, 8), %eax
0x07fac17b:  eb 05                    jmp      0x7fac182

----------------
IN: 
0x07fac182:  5b                       popl     %ebx
0x07fac183:  5e                       popl     %esi
0x07fac184:  5f                       popl     %edi
0x07fac185:  5d                       popl     %ebp
0x07fac186:  c3                       retl     

----------------
IN: 
0x07fb8095:  85 c0                    testl    %eax, %eax
0x07fb8097:  74 30                    je       0x7fb80c9

----------------
IN: 
0x07fb8099:  8b 50 04                 movl     4(%eax), %edx
0x07fb809c:  85 d2                    testl    %edx, %edx
0x07fb809e:  74 29                    je       0x7fb80c9

----------------
IN: 
0x07fb80a0:  8b 00                    movl     (%eax), %eax
0x07fb80a2:  8b 80 84 00 00 00        movl     0x84(%eax), %eax
0x07fb80a8:  39 c7                    cmpl     %eax, %edi
0x07fb80aa:  73 1d                    jae      0x7fb80c9

----------------
IN: 
0x07fb80ac:  89 d9                    movl     %ebx, %ecx
0x07fb80ae:  01 f1                    addl     %esi, %ecx
0x07fb80b0:  72 17                    jb       0x7fb80c9

----------------
IN: 
0x07fb80b2:  39 c1                    cmpl     %eax, %ecx
0x07fb80b4:  77 13                    ja       0x7fb80c9

----------------
IN: 
0x07fb80b6:  01 d7                    addl     %edx, %edi
0x07fb80b8:  8d 04 32                 leal     (%edx, %esi), %eax
0x07fb80bb:  89 da                    movl     %ebx, %edx
0x07fb80bd:  e8 ad 4f 13 f8           calll    0xed06f

----------------
IN: 
0x07fb80c2:  28 07                    subb     %al, (%edi)
0x07fb80c4:  e9 ce 01 00 00           jmp      0x7fb8297

----------------
IN: 
0x07fb7fcc:  8b 7d 70                 movl     0x70(%ebp), %edi
0x07fb7fcf:  c7 84 24 84 00 00 00 00  movl     $0, 0x84(%esp)
0x07fb7fd7:  00 00 00
0x07fb7fda:  c7 84 24 88 00 00 00 00  movl     $0, 0x88(%esp)
0x07fb7fe2:  00 00 00
0x07fb7fe5:  8b 5c 24 18              movl     0x18(%esp), %ebx
0x07fb7fe9:  89 da                    movl     %ebx, %edx
0x07fb7feb:  89 e8                    movl     %ebp, %eax
0x07fb7fed:  e8 5d 41 ff ff           calll    0x7fac14f

----------------
IN: 
0x07fb7ff2:  89 c6                    movl     %eax, %esi
0x07fb7ff4:  8d 45 38                 leal     0x38(%ebp), %eax
0x07fb7ff7:  89 da                    movl     %ebx, %edx
0x07fb7ff9:  e8 51 41 ff ff           calll    0x7fac14f

----------------
IN: 
0x07fb7ffe:  85 c0                    testl    %eax, %eax
0x07fb8000:  74 70                    je       0x7fb8072

----------------
IN: 
0x07fb8002:  85 f6                    testl    %esi, %esi
0x07fb8004:  74 6c                    je       0x7fb8072

----------------
IN: 
0x07fb8006:  8b 4e 04                 movl     4(%esi), %ecx
0x07fb8009:  85 c9                    testl    %ecx, %ecx
0x07fb800b:  74 65                    je       0x7fb8072

----------------
IN: 
0x07fb800d:  8b 58 04                 movl     4(%eax), %ebx
0x07fb8010:  85 db                    testl    %ebx, %ebx
0x07fb8012:  74 5e                    je       0x7fb8072

----------------
IN: 
0x07fb8014:  8a 45 74                 movb     0x74(%ebp), %al
0x07fb8017:  88 44 24 2c              movb     %al, 0x2c(%esp)
0x07fb801b:  0f b6 d0                 movzbl   %al, %edx
0x07fb801e:  89 d0                    movl     %edx, %eax
0x07fb8020:  01 f8                    addl     %edi, %eax
0x07fb8022:  72 4e                    jb       0x7fb8072

----------------
IN: 
0x07fb8024:  8b 36                    movl     (%esi), %esi
0x07fb8026:  3b 86 84 00 00 00        cmpl     0x84(%esi), %eax
0x07fb802c:  77 44                    ja       0x7fb8072

----------------
IN: 
0x07fb802e:  8a 44 24 2c              movb     0x2c(%esp), %al
0x07fb8032:  48                       decl     %eax
0x07fb8033:  3c 07                    cmpb     $7, %al
0x07fb8035:  77 3b                    ja       0x7fb8072

----------------
IN: 
0x07fb8037:  8d 42 ff                 leal     -1(%edx), %eax
0x07fb803a:  85 d0                    testl    %edx, %eax
0x07fb803c:  75 34                    jne      0x7fb8072

----------------
IN: 
0x07fb803e:  8d 04 39                 leal     (%ecx, %edi), %eax
0x07fb8041:  8d bc 24 84 00 00 00     leal     0x84(%esp), %edi
0x07fb8048:  89 c6                    movl     %eax, %esi
0x07fb804a:  89 d1                    movl     %edx, %ecx
0x07fb804c:  f3 a4                    rep movsb (%esi), %es:(%edi)

----------------
IN: 
0x07fb804c:  f3 a4                    rep movsb (%esi), %es:(%edi)

----------------
IN: 
0x07fb804e:  89 d9                    movl     %ebx, %ecx
0x07fb8050:  31 db                    xorl     %ebx, %ebx
0x07fb8052:  01 8c 24 84 00 00 00     addl     %ecx, 0x84(%esp)
0x07fb8059:  11 9c 24 88 00 00 00     adcl     %ebx, 0x88(%esp)
0x07fb8060:  89 c7                    movl     %eax, %edi
0x07fb8062:  8d b4 24 84 00 00 00     leal     0x84(%esp), %esi
0x07fb8069:  89 d1                    movl     %edx, %ecx
0x07fb806b:  f3 a4                    rep movsb (%esi), %es:(%edi)

----------------
IN: 
0x07fb806b:  f3 a4                    rep movsb (%esi), %es:(%edi)

----------------
IN: 
0x07fb806d:  e9 25 02 00 00           jmp      0x7fb8297

----------------
IN: 
0x07fb7edc:  e9 b6 03 00 00           jmp      0x7fb8297

----------------
IN: 
0x07fb82a4:  8b 44 24 18              movl     0x18(%esp), %eax
0x07fb82a8:  e8 87 50 ff ff           calll    0x7fad334

----------------
IN: 
0x07fb82ad:  8b 44 24 20              movl     0x20(%esp), %eax
0x07fb82b1:  e8 7e 50 ff ff           calll    0x7fad334

----------------
IN: 
0x07fb82b6:  eb 11                    jmp      0x7fb82c9

----------------
IN: 
0x07fb82c9:  be 60 5c 0f 00           movl     $0xf5c60, %esi
0x07fb82ce:  bb 6f 54 0f 00           movl     $0xf546f, %ebx
0x07fb82d3:  83 e3 f0                 andl     $0xfffffff0, %ebx
0x07fb82d6:  89 f7                    movl     %esi, %edi
0x07fb82d8:  83 e7 f0                 andl     $0xfffffff0, %edi
0x07fb82db:  39 fb                    cmpl     %edi, %ebx
0x07fb82dd:  77 14                    ja       0x7fb82f3

----------------
IN: 
0x07fb82df:  89 f2                    movl     %esi, %edx
0x07fb82e1:  29 da                    subl     %ebx, %edx
0x07fb82e3:  89 d8                    movl     %ebx, %eax
0x07fb82e5:  e8 be 3f ff ff           calll    0x7fac2a8

----------------
IN: 
0x07fac2a8:  57                       pushl    %edi
0x07fac2a9:  56                       pushl    %esi
0x07fac2aa:  53                       pushl    %ebx
0x07fac2ab:  89 c3                    movl     %eax, %ebx
0x07fac2ad:  81 78 04 50 54 52 20     cmpl     $0x20525450, 4(%eax)
0x07fac2b4:  75 42                    jne      0x7fac2f8

----------------
IN: 
0x07fac2f8:  83 c8 ff                 orl      $0xffffffff, %eax
0x07fac2fb:  5b                       popl     %ebx
0x07fac2fc:  5e                       popl     %esi
0x07fac2fd:  5f                       popl     %edi
0x07fac2fe:  c3                       retl     

----------------
IN: 
0x07fb82ea:  85 c0                    testl    %eax, %eax
0x07fb82ec:  79 07                    jns      0x7fb82f5

----------------
IN: 
0x07fb82ee:  83 c3 10                 addl     $0x10, %ebx
0x07fb82f1:  eb e8                    jmp      0x7fb82db

----------------
IN: 
0x07fb82db:  39 fb                    cmpl     %edi, %ebx
0x07fb82dd:  77 14                    ja       0x7fb82f3

----------------
IN: 
0x07fac2b6:  81 38 52 53 44 20        cmpl     $0x20445352, (%eax)
0x07fac2bc:  75 3a                    jne      0x7fac2f8

----------------
IN: 
0x07fac2be:  89 d7                    movl     %edx, %edi
0x07fac2c0:  83 fa 13                 cmpl     $0x13, %edx
0x07fac2c3:  76 33                    jbe      0x7fac2f8

----------------
IN: 
0x07fac2c5:  ba 14 00 00 00           movl     $0x14, %edx
0x07fac2ca:  e8 a0 0d 14 f8           calll    0xed06f

----------------
IN: 
0x07fac2cf:  84 c0                    testb    %al, %al
0x07fac2d1:  75 25                    jne      0x7fac2f8

----------------
IN: 
0x07fac2d3:  80 7b 0f 01              cmpb     $1, 0xf(%ebx)
0x07fac2d7:  76 16                    jbe      0x7fac2ef

----------------
IN: 
0x07fac2ef:  be 14 00 00 00           movl     $0x14, %esi
0x07fac2f4:  89 f0                    movl     %esi, %eax
0x07fac2f6:  eb 03                    jmp      0x7fac2fb

----------------
IN: 
0x07fac2fb:  5b                       popl     %ebx
0x07fac2fc:  5e                       popl     %esi
0x07fac2fd:  5f                       popl     %edi
0x07fac2fe:  c3                       retl     

----------------
IN: 
0x07fb82f5:  89 1d 88 53 0f 00        movl     %ebx, 0xf5388
0x07fb82fb:  85 db                    testl    %ebx, %ebx
0x07fb82fd:  0f 85 79 0a 00 00        jne      0x7fb8d7c

----------------
IN: 
0x07fb8d7c:  81 c4 a4 00 00 00        addl     $0xa4, %esp
0x07fb8d82:  5b                       popl     %ebx
0x07fb8d83:  5e                       popl     %esi
0x07fb8d84:  5f                       popl     %edi
0x07fb8d85:  5d                       popl     %ebp
0x07fb8d86:  c3                       retl     

----------------
IN: 
0x07fbbe44:  66 83 3d 80 5f 0f 00 40  cmpw     $0x40, 0xf5f80
0x07fbbe4c:  0f 85 19 01 00 00        jne      0x7fbbf6b

----------------
IN: 
0x07fbbf6b:  b0 34                    movb     $0x34, %al
0x07fbbf6d:  e6 43                    outb     %al, $0x43
0x07fbbf6f:  31 c0                    xorl     %eax, %eax
0x07fbbf71:  e6 40                    outb     %al, $0x40
0x07fbbf73:  e6 40                    outb     %al, $0x40
0x07fbbf75:  b1 8a                    movb     $0x8a, %cl
0x07fbbf77:  88 c8                    movb     %cl, %al
0x07fbbf79:  e6 70                    outb     %al, $0x70
0x07fbbf7b:  b0 26                    movb     $0x26, %al
0x07fbbf7d:  e6 71                    outb     %al, $0x71
0x07fbbf7f:  b0 8b                    movb     $0x8b, %al
0x07fbbf81:  e6 70                    outb     %al, $0x70
0x07fbbf83:  e4 71                    inb      $0x71, %al
0x07fbbf85:  83 e0 01                 andl     $1, %eax
0x07fbbf88:  83 c8 02                 orl      $2, %eax
0x07fbbf8b:  e6 71                    outb     %al, $0x71
0x07fbbf8d:  b0 8c                    movb     $0x8c, %al
0x07fbbf8f:  e6 70                    outb     %al, $0x70
0x07fbbf91:  e4 71                    inb      $0x71, %al
0x07fbbf93:  b0 8d                    movb     $0x8d, %al
0x07fbbf95:  e6 70                    outb     %al, $0x70
0x07fbbf97:  e4 71                    inb      $0x71, %al
0x07fbbf99:  88 c8                    movb     %cl, %al
0x07fbbf9b:  e6 70                    outb     %al, $0x70
0x07fbbf9d:  e4 71                    inb      $0x71, %al
0x07fbbf9f:  84 c0                    testb    %al, %al
0x07fbbfa1:  79 28                    jns      0x7fbbfcb

----------------
IN: 
0x07fbbfcb:  b0 80                    movb     $0x80, %al
0x07fbbfcd:  e6 70                    outb     %al, $0x70
0x07fbbfcf:  e4 71                    inb      $0x71, %al
0x07fbbfd1:  88 c2                    movb     %al, %dl
0x07fbbfd3:  b0 82                    movb     $0x82, %al
0x07fbbfd5:  e6 70                    outb     %al, $0x70
0x07fbbfd7:  e4 71                    inb      $0x71, %al
0x07fbbfd9:  88 c3                    movb     %al, %bl
0x07fbbfdb:  b0 84                    movb     $0x84, %al
0x07fbbfdd:  e6 70                    outb     %al, $0x70
0x07fbbfdf:  e4 71                    inb      $0x71, %al
0x07fbbfe1:  89 c6                    movl     %eax, %esi
0x07fbbfe3:  83 e6 0f                 andl     $0xf, %esi
0x07fbbfe6:  c0 e8 04                 shrb     $4, %al
0x07fbbfe9:  0f b6 c8                 movzbl   %al, %ecx
0x07fbbfec:  6b c9 0a                 imull    $0xa, %ecx, %ecx
0x07fbbfef:  01 f1                    addl     %esi, %ecx
0x07fbbff1:  6b c9 3c                 imull    $0x3c, %ecx, %ecx
0x07fbbff4:  89 d8                    movl     %ebx, %eax
0x07fbbff6:  83 e0 0f                 andl     $0xf, %eax
0x07fbbff9:  c0 eb 04                 shrb     $4, %bl
0x07fbbffc:  0f b6 db                 movzbl   %bl, %ebx
0x07fbbfff:  6b db 0a                 imull    $0xa, %ebx, %ebx
0x07fbc002:  01 c3                    addl     %eax, %ebx
0x07fbc004:  01 d9                    addl     %ebx, %ecx
0x07fbc006:  6b c9 3c                 imull    $0x3c, %ecx, %ecx
0x07fbc009:  89 d0                    movl     %edx, %eax
0x07fbc00b:  83 e0 0f                 andl     $0xf, %eax
0x07fbc00e:  c0 ea 04                 shrb     $4, %dl
0x07fbc011:  0f b6 d2                 movzbl   %dl, %edx
0x07fbc014:  6b d2 0a                 imull    $0xa, %edx, %edx
0x07fbc017:  01 d0                    addl     %edx, %eax
0x07fbc019:  01 c8                    addl     %ecx, %eax
0x07fbc01b:  69 c0 e8 03 00 00        imull    $0x3e8, %eax, %eax
0x07fbc021:  ba 99 9e 36 00           movl     $0x369e99, %edx
0x07fbc026:  f7 e2                    mull     %edx
0x07fbc028:  05 ff ff 00 00           addl     $0xffff, %eax
0x07fbc02d:  83 d2 00                 adcl     $0, %edx
0x07fbc030:  0f ac d0 10              shrdl    $0x10, %edx, %eax
0x07fbc034:  c1 ea 10                 shrl     $0x10, %edx
0x07fbc037:  05 b7 0b 00 00           addl     $0xbb7, %eax
0x07fbc03c:  b9 b8 0b 00 00           movl     $0xbb8, %ecx
0x07fbc041:  31 d2                    xorl     %edx, %edx
0x07fbc043:  f7 f1                    divl     %ecx
0x07fbc045:  b9 b0 00 18 00           movl     $0x1800b0, %ecx
0x07fbc04a:  31 d2                    xorl     %edx, %edx
0x07fbc04c:  f7 f1                    divl     %ecx
0x07fbc04e:  89 15 6c 04 00 00        movl     %edx, 0x46c
0x07fbc054:  b0 b2                    movb     $0xb2, %al
0x07fbc056:  e6 70                    outb     %al, $0x70
0x07fbc058:  e4 71                    inb      $0x71, %al
0x07fbc05a:  a2 b8 b7 0e 00           movb     %al, 0xeb7b8
0x07fbc05f:  b8 01 00 00 00           movl     $1, %eax
0x07fbc064:  e8 b7 0a ff ff           calll    0x7facb20

----------------
IN: 
0x07fbc069:  b8 a5 fe 0f 00           movl     $0xffea5, %eax
0x07fbc06e:  66 a3 20 00 00 00        movw     %ax, 0x20
0x07fbc074:  66 c7 05 22 00 00 00 00  movw     $0xf000, 0x22
0x07fbc07c:  f0
0x07fbc07d:  b8 00 01 00 00           movl     $0x100, %eax
0x07fbc082:  e8 99 0a ff ff           calll    0x7facb20

----------------
IN: 
0x07fbc087:  b8 57 d4 0f 00           movl     $0xfd457, %eax
0x07fbc08c:  66 a3 c0 01 00 00        movw     %ax, 0x1c0
0x07fbc092:  66 c7 05 c2 01 00 00 00  movw     $0xf000, 0x1c2
0x07fbc09a:  f0
0x07fbc09b:  b8 54 50 4d 32           movl     $0x324d5054, %eax
0x07fbc0a0:  e8 3f 03 13 f8           calll    0xec3e4

----------------
IN: 
0x000ec3e4:  8b 15 88 53 0f 00        movl     0xf5388, %edx
0x000ec3ea:  85 d2                    testl    %edx, %edx
0x000ec3ec:  74 40                    je       0xec42e

----------------
IN: 
0x000ec3ee:  81 7a 04 50 54 52 20     cmpl     $0x20525450, 4(%edx)
0x000ec3f5:  75 37                    jne      0xec42e

----------------
IN: 
0x000ec3f7:  81 3a 52 53 44 20        cmpl     $0x20445352, (%edx)
0x000ec3fd:  75 2f                    jne      0xec42e

----------------
IN: 
0x000ec3ff:  8b 52 10                 movl     0x10(%edx), %edx
0x000ec402:  85 d2                    testl    %edx, %edx
0x000ec404:  74 28                    je       0xec42e

----------------
IN: 
0x000ec406:  81 3a 52 53 44 54        cmpl     $0x54445352, (%edx)
0x000ec40c:  75 20                    jne      0xec42e

----------------
IN: 
0x000ec40e:  53                       pushl    %ebx
0x000ec40f:  8b 5a 04                 movl     4(%edx), %ebx
0x000ec412:  01 d3                    addl     %edx, %ebx
0x000ec414:  83 c2 24                 addl     $0x24, %edx
0x000ec417:  39 d3                    cmpl     %edx, %ebx
0x000ec419:  76 0f                    jbe      0xec42a

----------------
IN: 
0x000ec41b:  8b 0a                    movl     (%edx), %ecx
0x000ec41d:  85 c9                    testl    %ecx, %ecx
0x000ec41f:  74 04                    je       0xec425

----------------
IN: 
0x000ec421:  39 01                    cmpl     %eax, (%ecx)
0x000ec423:  74 0c                    je       0xec431

----------------
IN: 
0x000ec425:  83 c2 04                 addl     $4, %edx
0x000ec428:  eb ed                    jmp      0xec417

----------------
IN: 
0x000ec417:  39 d3                    cmpl     %edx, %ebx
0x000ec419:  76 0f                    jbe      0xec42a

----------------
IN: 
0x000ec42a:  31 c0                    xorl     %eax, %eax
0x000ec42c:  eb 05                    jmp      0xec433

----------------
IN: 
0x000ec433:  5b                       popl     %ebx
0x000ec434:  c3                       retl     

----------------
IN: 
0x07fbc0a5:  85 c0                    testl    %eax, %eax
0x07fbc0a7:  74 2d                    je       0x7fbc0d6

----------------
IN: 
0x07fbc0d6:  b8 54 43 50 41           movl     $0x41504354, %eax
0x07fbc0db:  e8 04 03 13 f8           calll    0xec3e4

----------------
IN: 
0x07fbc0e0:  85 c0                    testl    %eax, %eax
0x07fbc0e2:  0f 84 f2 03 00 00        je       0x7fbc4da

----------------
IN: 
0x07fbc4da:  e8 8e fb 12 f8           calll    0xec06d

----------------
IN: 
0x000ec06d:  31 c0                    xorl     %eax, %eax
0x000ec06f:  80 3d 58 54 0f 00 02     cmpb     $2, 0xf5458
0x000ec076:  75 0c                    jne      0xec084

----------------
IN: 
0x000ec084:  c3                       retl     

----------------
IN: 
0x07fbc4df:  85 c0                    testl    %eax, %eax
0x07fbc4e1:  74 05                    je       0x7fbc4e8

----------------
IN: 
0x07fbc4e8:  c7 04 24 5c 45 0f 00     movl     $0xf455c, (%esp)
0x07fbc4ef:  e8 d1 1d 13 f8           calll    0xee2c5

----------------
IN: 
0x07fbc4f4:  ba 01 00 00 00           movl     $1, %edx
0x07fbc4f9:  31 c9                    xorl     %ecx, %ecx
0x07fbc4fb:  b8 75 45 0f 00           movl     $0xf4575, %eax
0x07fbc500:  e8 7b 0a ff ff           calll    0x7facf80

----------------
IN: 
0x07fbc505:  a3 4c 54 0f 00           movl     %eax, 0xf544c
0x07fbc50a:  ba 01 00 00 00           movl     $1, %edx
0x07fbc50f:  31 c9                    xorl     %ecx, %ecx
0x07fbc511:  b8 8d 45 0f 00           movl     $0xf458d, %eax
0x07fbc516:  e8 65 0a ff ff           calll    0x7facf80

----------------
IN: 
0x07fbc51b:  a3 48 54 0f 00           movl     %eax, 0xf5448
0x07fbc520:  ba 02 00 00 00           movl     $2, %edx
0x07fbc525:  31 c9                    xorl     %ecx, %ecx
0x07fbc527:  b8 a4 45 0f 00           movl     $0xf45a4, %eax
0x07fbc52c:  e8 4f 0a ff ff           calll    0x7facf80

----------------
IN: 
0x07fbc531:  a3 5c ff fb 07           movl     %eax, 0x7fbff5c
0x07fbc536:  ba 01 00 00 00           movl     $1, %edx
0x07fbc53b:  31 c9                    xorl     %ecx, %ecx
0x07fbc53d:  b8 bb 45 0f 00           movl     $0xf45bb, %eax
0x07fbc542:  e8 39 0a ff ff           calll    0x7facf80

----------------
IN: 
0x07fbc547:  a3 44 54 0f 00           movl     %eax, 0xf5444
0x07fbc54c:  e8 05 fe 12 f8           calll    0xec356

----------------
IN: 
0x000ec356:  a1 50 54 0f 00           movl     0xf5450, %eax
0x000ec35b:  8b 40 0c                 movl     0xc(%eax), %eax
0x000ec35e:  83 e8 10                 subl     $0x10, %eax
0x000ec361:  25 00 f8 ff ff           andl     $0xfffff800, %eax
0x000ec366:  c3                       retl     

----------------
IN: 
0x07fbc551:  8d 88 00 00 f4 ff        leal     -0xc0000(%eax), %ecx
0x07fbc557:  31 d2                    xorl     %edx, %edx
0x07fbc559:  b8 00 00 0c 00           movl     $0xc0000, %eax
0x07fbc55e:  e8 5e fc 12 f8           calll    0xec1c1

----------------
IN: 
0x07fbc563:  a1 38 fe fb 07           movl     0x7fbfe38, %eax
0x07fbc568:  8d 58 fc                 leal     -4(%eax), %ebx
0x07fbc56b:  83 fb fc                 cmpl     $0xfc, %ebx
0x07fbc56e:  0f 84 ca 12 00 00        je       0x7fbd83e

----------------
IN: 
0x07fbc574:  89 d8                    movl     %ebx, %eax
0x07fbc576:  e8 a1 fd fe ff           calll    0x7fac31c

----------------
IN: 
0x07fbc57b:  85 c0                    testl    %eax, %eax
0x07fbc57d:  75 08                    jne      0x7fbc587

----------------
IN: 
0x07fbc57f:  8b 5b 04                 movl     4(%ebx), %ebx
0x07fbc582:  83 eb 04                 subl     $4, %ebx
0x07fbc585:  eb e4                    jmp      0x7fbc56b

----------------
IN: 
0x07fbc56b:  83 fb fc                 cmpl     $0xfc, %ebx
0x07fbc56e:  0f 84 ca 12 00 00        je       0x7fbd83e

----------------
IN: 
0x07fbc587:  ba d0 45 0f 00           movl     $0xf45d0, %edx
0x07fbc58c:  b8 93 25 0f 00           movl     $0xf2593, %eax
0x07fbc591:  e8 0b fc 12 f8           calll    0xec1a1

----------------
IN: 
0x07fbc596:  85 c0                    testl    %eax, %eax
0x07fbc598:  75 29                    jne      0x7fbc5c3

----------------
IN: 
0x07fbc5c3:  ba e1 45 0f 00           movl     $0xf45e1, %edx
0x07fbc5c8:  b8 93 25 0f 00           movl     $0xf2593, %eax
0x07fbc5cd:  e8 cf fb 12 f8           calll    0xec1a1

----------------
IN: 
0x07fbc5d2:  85 c0                    testl    %eax, %eax
0x07fbc5d4:  75 17                    jne      0x7fbc5ed

----------------
IN: 
0x07fbc5ed:  ba ec 45 0f 00           movl     $0xf45ec, %edx
0x07fbc5f2:  b8 93 25 0f 00           movl     $0xf2593, %eax
0x07fbc5f7:  e8 a5 fb 12 f8           calll    0xec1a1

----------------
IN: 
0x07fbc5fc:  85 c0                    testl    %eax, %eax
0x07fbc5fe:  75 29                    jne      0x7fbc629

----------------
IN: 
0x07fbc629:  ba f9 45 0f 00           movl     $0xf45f9, %edx
0x07fbc62e:  b8 93 25 0f 00           movl     $0xf2593, %eax
0x07fbc633:  e8 69 fb 12 f8           calll    0xec1a1

----------------
IN: 
0x07fbc638:  85 c0                    testl    %eax, %eax
0x07fbc63a:  75 29                    jne      0x7fbc665

----------------
IN: 
0x07fbc665:  66 8b 43 10              movw     0x10(%ebx), %ax
0x07fbc669:  66 3d 06 11              cmpw     $0x1106, %ax
0x07fbc66d:  0f 85 eb 00 00 00        jne      0x7fbc75e

----------------
IN: 
0x07fbc75e:  66 3d 86 80              cmpw     $0x8086, %ax
0x07fbc762:  75 18                    jne      0x7fbc77c

----------------
IN: 
0x07fbc77c:  31 c9                    xorl     %ecx, %ecx
0x07fbc77e:  ba 01 00 00 00           movl     $1, %edx
0x07fbc783:  89 d8                    movl     %ebx, %eax
0x07fbc785:  e8 4b 5c ff ff           calll    0x7fb23d5

----------------
IN: 
0x07fb23d5:  55                       pushl    %ebp
0x07fb23d6:  57                       pushl    %edi
0x07fb23d7:  56                       pushl    %esi
0x07fb23d8:  53                       pushl    %ebx
0x07fb23d9:  83 ec 28                 subl     $0x28, %esp
0x07fb23dc:  89 c3                    movl     %eax, %ebx
0x07fb23de:  89 d7                    movl     %edx, %edi
0x07fb23e0:  89 ce                    movl     %ecx, %esi
0x07fb23e2:  0f b7 40 12              movzwl   0x12(%eax), %eax
0x07fb23e6:  89 44 24 10              movl     %eax, 0x10(%esp)
0x07fb23ea:  0f b7 43 10              movzwl   0x10(%ebx), %eax
0x07fb23ee:  89 44 24 0c              movl     %eax, 0xc(%esp)
0x07fb23f2:  c7 44 24 08 19 32 0f 00  movl     $0xf3219, 8(%esp)
0x07fb23fa:  c7 44 24 04 11 00 00 00  movl     $0x11, 4(%esp)
0x07fb2402:  8d 6c 24 17              leal     0x17(%esp), %ebp
0x07fb2406:  89 2c 24                 movl     %ebp, (%esp)
0x07fb2409:  e8 7c f9 ff ff           calll    0x7fb1d8a

----------------
IN: 
0x07fb1d8a:  53                       pushl    %ebx
0x07fb1d8b:  83 ec 0c                 subl     $0xc, %esp
0x07fb1d8e:  8b 5c 24 14              movl     0x14(%esp), %ebx
0x07fb1d92:  8b 54 24 18              movl     0x18(%esp), %edx
0x07fb1d96:  31 c0                    xorl     %eax, %eax
0x07fb1d98:  85 d2                    testl    %edx, %edx
0x07fb1d9a:  74 34                    je       0x7fb1dd0

----------------
IN: 
0x07fb1d9c:  c7 04 24 80 b5 fa 07     movl     $0x7fab580, (%esp)
0x07fb1da3:  89 5c 24 04              movl     %ebx, 4(%esp)
0x07fb1da7:  01 da                    addl     %ebx, %edx
0x07fb1da9:  89 54 24 08              movl     %edx, 8(%esp)
0x07fb1dad:  8d 4c 24 20              leal     0x20(%esp), %ecx
0x07fb1db1:  8b 54 24 1c              movl     0x1c(%esp), %edx
0x07fb1db5:  89 e0                    movl     %esp, %eax
0x07fb1db7:  e8 5e bd 13 f8           calll    0xedb1a

----------------
IN: 
0x07fab580:  8b 48 04                 movl     4(%eax), %ecx
0x07fab583:  3b 48 08                 cmpl     8(%eax), %ecx
0x07fab586:  73 05                    jae      0x7fab58d

----------------
IN: 
0x07fab588:  88 11                    movb     %dl, (%ecx)
0x07fab58a:  ff 40 04                 incl     4(%eax)
0x07fab58d:  c3                       retl     

----------------
IN: 
0x07fb1dbc:  8b 44 24 04              movl     4(%esp), %eax
0x07fb1dc0:  8b 54 24 08              movl     8(%esp), %edx
0x07fb1dc4:  39 d0                    cmpl     %edx, %eax
0x07fb1dc6:  72 03                    jb       0x7fb1dcb

----------------
IN: 
0x07fb1dcb:  c6 00 00                 movb     $0, (%eax)
0x07fb1dce:  29 d8                    subl     %ebx, %eax
0x07fb1dd0:  83 c4 0c                 addl     $0xc, %esp
0x07fb1dd3:  5b                       popl     %ebx
0x07fb1dd4:  c3                       retl     

----------------
IN: 
0x07fb240e:  89 e8                    movl     %ebp, %eax
0x07fb2410:  e8 36 ab ff ff           calll    0x7facf4b

----------------
IN: 
0x07fb2415:  85 c0                    testl    %eax, %eax
0x07fb2417:  74 07                    je       0x7fb2420

----------------
IN: 
0x07fb2420:  83 3d 5c ff fb 07 01     cmpl     $1, 0x7fbff5c
0x07fb2427:  7f 06                    jg       0x7fb242f

----------------
IN: 
0x07fb242f:  89 d8                    movl     %ebx, %eax
0x07fb2431:  e8 0a c7 ff ff           calll    0x7faeb40

----------------
IN: 
0x07faeb40:  55                       pushl    %ebp
0x07faeb41:  57                       pushl    %edi
0x07faeb42:  56                       pushl    %esi
0x07faeb43:  53                       pushl    %ebx
0x07faeb44:  83 ec 10                 subl     $0x10, %esp
0x07faeb47:  89 c5                    movl     %eax, %ebp
0x07faeb49:  f6 40 18 7f              testb    $0x7f, 0x18(%eax)
0x07faeb4d:  0f 85 31 01 00 00        jne      0x7faec84

----------------
IN: 
0x07faeb53:  0f b7 38                 movzwl   (%eax), %edi
0x07faeb56:  ba 30 00 00 00           movl     $0x30, %edx
0x07faeb5b:  89 f8                    movl     %edi, %eax
0x07faeb5d:  e8 f7 d6 13 f8           calll    0xec259

----------------
IN: 
0x07faeb62:  89 c6                    movl     %eax, %esi
0x07faeb64:  b9 fe ff ff ff           movl     $0xfffffffe, %ecx
0x07faeb69:  ba 30 00 00 00           movl     $0x30, %edx
0x07faeb6e:  89 f8                    movl     %edi, %eax
0x07faeb70:  e8 57 d6 13 f8           calll    0xec1cc

----------------
IN: 
0x07faeb75:  ba 30 00 00 00           movl     $0x30, %edx
0x07faeb7a:  89 f8                    movl     %edi, %eax
0x07faeb7c:  e8 d8 d6 13 f8           calll    0xec259

----------------
IN: 
0x07faeb81:  83 e6 fe                 andl     $0xfffffffe, %esi
0x07faeb84:  8d 50 ff                 leal     -1(%eax), %edx
0x07faeb87:  83 fa fd                 cmpl     $0xfd, %edx
0x07faeb8a:  0f 87 e6 00 00 00        ja       0x7faec76

----------------
IN: 
0x07faeb90:  39 c6                    cmpl     %eax, %esi
0x07faeb92:  0f 84 de 00 00 00        je       0x7faec76

----------------
IN: 
0x07faeb98:  8d 86 00 00 40 00        leal     0x400000(%esi), %eax
0x07faeb9e:  3d ff ff 3f 01           cmpl     $0x13fffff, %eax
0x07faeba3:  0f 86 cd 00 00 00        jbe      0x7faec76

----------------
IN: 
0x07faeba9:  89 f1                    movl     %esi, %ecx
0x07faebab:  83 c9 01                 orl      $1, %ecx
0x07faebae:  ba 30 00 00 00           movl     $0x30, %edx
0x07faebb3:  89 f8                    movl     %edi, %eax
0x07faebb5:  e8 12 d6 13 f8           calll    0xec1cc

----------------
IN: 
0x07faebba:  89 f2                    movl     %esi, %edx
0x07faebbc:  66 81 3a 55 aa           cmpw     $0xaa55, (%edx)
0x07faebc1:  0f 85 af 00 00 00        jne      0x7faec76

----------------
IN: 
0x07faebc7:  66 8b 42 18              movw     0x18(%edx), %ax
0x07faebcb:  0f b7 d8                 movzwl   %ax, %ebx
0x07faebce:  01 d3                    addl     %edx, %ebx
0x07faebd0:  81 3b 50 43 49 52        cmpl     $0x52494350, (%ebx)
0x07faebd6:  0f 85 9a 00 00 00        jne      0x7faec76

----------------
IN: 
0x07faebdc:  a8 03                    testb    $3, %al
0x07faebde:  74 24                    je       0x7faec04

----------------
IN: 
0x07faec04:  85 db                    testl    %ebx, %ebx
0x07faec06:  74 6e                    je       0x7faec76

----------------
IN: 
0x07faec08:  8b 45 10                 movl     0x10(%ebp), %eax
0x07faec0b:  66 39 43 04              cmpw     %ax, 4(%ebx)
0x07faec0f:  75 10                    jne      0x7faec21

----------------
IN: 
0x07faec11:  66 8b 45 12              movw     0x12(%ebp), %ax
0x07faec15:  66 39 43 06              cmpw     %ax, 6(%ebx)
0x07faec19:  75 06                    jne      0x7faec21

----------------
IN: 
0x07faec1b:  80 7b 14 00              cmpb     $0, 0x14(%ebx)
0x07faec1f:  74 11                    je       0x7faec32

----------------
IN: 
0x07faec32:  0f b6 6a 02              movzbl   2(%edx), %ebp
0x07faec36:  89 54 24 0c              movl     %edx, 0xc(%esp)
0x07faec3a:  c1 e5 09                 shll     $9, %ebp
0x07faec3d:  89 e8                    movl     %ebp, %eax
0x07faec3f:  e8 0e cd ff ff           calll    0x7fab952

----------------
IN: 
0x07fab952:  56                       pushl    %esi
0x07fab953:  53                       pushl    %ebx
0x07fab954:  8b 35 98 fe fb 07        movl     0x7fbfe98, %esi
0x07fab95a:  8d 9c 06 ff 07 00 00     leal     0x7ff(%esi, %eax), %ebx
0x07fab961:  81 e3 00 f8 ff ff        andl     $0xfffff800, %ebx
0x07fab967:  e8 ea 09 14 f8           calll    0xec356

----------------
IN: 
0x07fab96c:  39 c3                    cmpl     %eax, %ebx
0x07fab96e:  77 1c                    ja       0x7fab98c

----------------
IN: 
0x07fab970:  a1 50 54 0f 00           movl     0xf5450, %eax
0x07fab975:  81 fb 00 c8 0d 00        cmpl     $0xdc800, %ebx
0x07fab97b:  73 05                    jae      0x7fab982

----------------
IN: 
0x07fab97d:  bb 00 c8 0d 00           movl     $0xdc800, %ebx
0x07fab982:  83 c3 10                 addl     $0x10, %ebx
0x07fab985:  89 58 08                 movl     %ebx, 8(%eax)
0x07fab988:  89 f0                    movl     %esi, %eax
0x07fab98a:  eb 02                    jmp      0x7fab98e

----------------
IN: 
0x07fab98e:  5b                       popl     %ebx
0x07fab98f:  5e                       popl     %esi
0x07fab990:  c3                       retl     

----------------
IN: 
0x07faec44:  89 c3                    movl     %eax, %ebx
0x07faec46:  85 c0                    testl    %eax, %eax
0x07faec48:  8b 54 24 0c              movl     0xc(%esp), %edx
0x07faec4c:  75 11                    jne      0x7faec5f

----------------
IN: 
0x07faec5f:  89 e9                    movl     %ebp, %ecx
0x07faec61:  e8 6e e5 ff ff           calll    0x7fad1d4

----------------
IN: 
0x07fad1d4:  55                       pushl    %ebp
0x07fad1d5:  57                       pushl    %edi
0x07fad1d6:  56                       pushl    %esi
0x07fad1d7:  53                       pushl    %ebx
0x07fad1d8:  89 c5                    movl     %eax, %ebp
0x07fad1da:  89 d6                    movl     %edx, %esi
0x07fad1dc:  89 cb                    movl     %ecx, %ebx
0x07fad1de:  e8 2e 0c 14 f8           calll    0xede11

----------------
IN: 
0x000f704f:  88 c8                    movb     %cl, %al
0x000f7051:  66 83 c4 0c              addl     $0xc, %esp
0x000f7055:  66 5b                    popl     %ebx
0x000f7057:  66 c3                    retl     

Servicing hardware INT=0x08
----------------
IN: 
0x000ffea5:  66 68 f4 c4 00 00        pushl    $0xc4f4
0x000ffeab:  e9 68 d4                 jmp      0xd316

----------------
IN: 
0x000fd316:  fa                       cli      
0x000fd317:  fc                       cld      
0x000fd318:  1e                       pushw    %ds
0x000fd319:  66 50                    pushl    %eax
0x000fd31b:  66 b8 80 dc 00 00        movl     $0xdc80, %eax
0x000fd321:  8e d8                    movw     %ax, %ds
0x000fd323:  66 a1 10 f0              movl     0xf010, %eax
0x000fd327:  66 83 e8 28              subl     $0x28, %eax
0x000fd32b:  67 66 8f 40 1c           popl     0x1c(%eax)
0x000fd330:  67 8f 00                 popw     (%eax)
0x000fd333:  67 66 89 78 04           movl     %edi, 4(%eax)
0x000fd338:  67 66 89 70 08           movl     %esi, 8(%eax)
0x000fd33d:  67 66 89 68 0c           movl     %ebp, 0xc(%eax)
0x000fd342:  67 66 89 58 10           movl     %ebx, 0x10(%eax)
0x000fd347:  67 66 89 50 14           movl     %edx, 0x14(%eax)
0x000fd34c:  67 66 89 48 18           movl     %ecx, 0x18(%eax)
0x000fd351:  67 8c 40 02              movw     %es, 2(%eax)
0x000fd355:  66 59                    popl     %ecx
0x000fd357:  67 66 89 60 20           movl     %esp, 0x20(%eax)
0x000fd35c:  67 8c 50 24              movw     %ss, 0x24(%eax)
0x000fd360:  8c da                    movw     %ds, %dx
0x000fd362:  8e d2                    movw     %dx, %ss

----------------
IN: 
0x000fd364:  66 89 c4                 movl     %eax, %esp

----------------
IN: 
0x000fd367:  66 ff d1                 calll    *%ecx

----------------
IN: 
0x000fc4f4:  66 55                    pushl    %ebp
0x000fc4f6:  66 57                    pushl    %edi
0x000fc4f8:  66 56                    pushl    %esi
0x000fc4fa:  66 53                    pushl    %ebx
0x000fc4fc:  66 83 ec 34              subl     $0x34, %esp
0x000fc500:  66 b8 40 00 00 00        movl     $0x40, %eax
0x000fc506:  8e c0                    movw     %ax, %es
0x000fc508:  26 66 8b 16 6c 00        movl     %es:0x6c, %edx
0x000fc50e:  66 42                    incl     %edx
0x000fc510:  66 81 fa af 00 18 00     cmpl     $0x1800af, %edx
0x000fc517:  76 15                    jbe      0xc52e

----------------
IN: 
0x000fc52e:  66 b8 40 00 00 00        movl     $0x40, %eax
0x000fc534:  8e c0                    movw     %ax, %es
0x000fc536:  26 66 89 16 6c 00        movl     %edx, %es:0x6c
0x000fc53c:  8e c0                    movw     %ax, %es
0x000fc53e:  26 8a 16 40 00           movb     %es:0x40, %dl
0x000fc543:  84 d2                    testb    %dl, %dl
0x000fc545:  74 1c                    je       0xc563

----------------
IN: 
0x000fc563:  2e 66 8b 2e 78 5f        movl     %cs:0x5f78, %ebp
0x000fc569:  66 85 ed                 testl    %ebp, %ebp
0x000fc56c:  0f 84 29 01              je       0xc699

----------------
IN: 
0x000fc699:  2e 66 8b 36 74 5f        movl     %cs:0x5f74, %esi
0x000fc69f:  66 85 f6                 testl    %esi, %esi
0x000fc6a2:  74 68                    je       0xc70c

----------------
IN: 
0x000fc70c:  66 b8 80 dc 00 00        movl     $0xdc80, %eax
0x000fc712:  66 0f b7 c0              movzwl   %ax, %eax
0x000fc716:  66 89 c3                 movl     %eax, %ebx
0x000fc719:  8e c0                    movw     %ax, %es
0x000fc71b:  26 8b 36 d4 ef           movw     %es:0xefd4, %si
0x000fc720:  85 f6                    testw    %si, %si
0x000fc722:  0f 84 64 01              je       0xc88a

----------------
IN: 
0x000fc88a:  66 b9 26 00 00 00        movl     $0x26, %ecx
0x000fc890:  66 31 d2                 xorl     %edx, %edx
0x000fc893:  67 66 8d 44 24 0e        leal     0xe(%esp), %eax
0x000fc899:  66 e8 50 1b 00 00        calll    0xfe3ef

----------------
IN: 
0x000fe3ef:  66 85 c9                 testl    %ecx, %ecx
0x000fe3f2:  74 08                    je       0xe3fc

----------------
IN: 
0x000fe3f4:  66 49                    decl     %ecx
0x000fe3f6:  67 88 14 08              movb     %dl, (%eax, %ecx)
0x000fe3fa:  eb f3                    jmp      0xe3ef

----------------
IN: 
0x000fe3fc:  66 c3                    retl     

----------------
IN: 
0x000fc89f:  67 c7 44 24 32 00 02     movw     $0x200, 0x32(%esp)
0x000fc8a6:  66 ba 82 e9 00 00        movl     $0xe982, %edx
0x000fc8ac:  66 0f b7 d2              movzwl   %dx, %edx
0x000fc8b0:  67 66 8d 44 24 0e        leal     0xe(%esp), %eax
0x000fc8b6:  66 e8 10 b6 ff ff        calll    0xf7ecc

----------------
IN: 
0x000f7ecc:  67 89 50 20              movw     %dx, 0x20(%eax)
0x000f7ed0:  67 8c 48 22              movw     %cs, 0x22(%eax)
0x000f7ed4:  8c d2                    movw     %ss, %dx
0x000f7ed6:  66 0f b7 d2              movzwl   %dx, %edx
0x000f7eda:  e9 ae ff                 jmp      0x7e8b

----------------
IN: 
0x000f7e8b:  66 57                    pushl    %edi
0x000f7e8d:  66 56                    pushl    %esi
0x000f7e8f:  66 53                    pushl    %ebx
0x000f7e91:  66 89 c3                 movl     %eax, %ebx
0x000f7e94:  66 89 d6                 movl     %edx, %esi
0x000f7e97:  66 e8 ed eb ff ff        calll    0xf6a8a

----------------
IN: 
0x000f6a9c:  66 89 e0                 movl     %esp, %eax
0x000f6a9f:  66 3d 18 f0 00 00        cmpl     $0xf018, %eax
0x000f6aa5:  0f 97 c0                 seta     %al
0x000f6aa8:  66 0f b6 c0              movzbl   %al, %eax
0x000f6aac:  66 c3                    retl     

----------------
IN: 
0x000f7e9d:  66 85 c0                 testl    %eax, %eax
0x000f7ea0:  74 16                    je       0x7eb8

----------------
IN: 
0x000f7ea2:  66 0f b7 d6              movzwl   %si, %edx
0x000f7ea6:  66 b9 8b 7e 00 00        movl     $0x7e8b, %ecx
0x000f7eac:  66 89 d8                 movl     %ebx, %eax
0x000f7eaf:  66 5b                    popl     %ebx
0x000f7eb1:  66 5e                    popl     %esi
0x000f7eb3:  66 5f                    popl     %edi
0x000f7eb5:  e9 52 ee                 jmp      0x6d0a

----------------
IN: 
0x000f6d0a:  66 57                    pushl    %edi
0x000f6d0c:  66 56                    pushl    %esi
0x000f6d0e:  66 53                    pushl    %ebx
0x000f6d10:  66 53                    pushl    %ebx
0x000f6d12:  66 89 c3                 movl     %eax, %ebx
0x000f6d15:  67 66 89 14 24           movl     %edx, (%esp)
0x000f6d1a:  66 89 ce                 movl     %ecx, %esi
0x000f6d1d:  66 e8 67 fd ff ff        calll    0xf6a8a

----------------
IN: 
0x000f6d23:  66 85 c0                 testl    %eax, %eax
0x000f6d26:  67 66 8b 14 24           movl     (%esp), %edx
0x000f6d2b:  66 89 d8                 movl     %ebx, %eax
0x000f6d2e:  75 05                    jne      0x6d35

----------------
IN: 
0x000f6d35:  66 89 f1                 movl     %esi, %ecx
0x000f6d38:  66 8b 36 10 f0           movl     0xf010, %esi
0x000f6d3d:  8c d3                    movw     %ss, %bx
0x000f6d3f:  66 89 26 10 f0           movl     %esp, 0xf010
0x000f6d44:  67 66 8b 7e fc           movl     -4(%esi), %edi
0x000f6d49:  8e d7                    movw     %di, %ss

----------------
IN: 
0x000f6d4b:  67 8b 66 f8              movw     -8(%esi), %sp

----------------
IN: 
0x000f6d4f:  8e df                    movw     %di, %ds
0x000f6d51:  66 ff d1                 calll    *%ecx

----------------
IN: 
0x000f7eb8:  66 89 d8                 movl     %ebx, %eax
0x000f7ebb:  66 89 f2                 movl     %esi, %edx
0x000f7ebe:  66 e8 32 51 00 00        calll    0xfcff6

----------------
IN: 
0x000fcff6:  66 55                    pushl    %ebp
0x000fcff8:  66 50                    pushl    %eax
0x000fcffa:  66 52                    pushl    %edx
0x000fcffc:  8e da                    movw     %dx, %ds
0x000fcffe:  0e                       pushw    %cs
0x000fcfff:  68 38 d0                 pushw    $0xd038
0x000fd002:  67 ff 70 24              pushw    0x24(%eax)
0x000fd006:  67 66 ff 70 20           pushl    0x20(%eax)
0x000fd00b:  67 66 8b 78 04           movl     4(%eax), %edi
0x000fd010:  67 66 8b 70 08           movl     8(%eax), %esi
0x000fd015:  67 66 8b 68 0c           movl     0xc(%eax), %ebp
0x000fd01a:  67 66 8b 58 10           movl     0x10(%eax), %ebx
0x000fd01f:  67 66 8b 50 14           movl     0x14(%eax), %edx
0x000fd024:  67 66 8b 48 18           movl     0x18(%eax), %ecx
0x000fd029:  67 8e 40 02              movw     2(%eax), %es
0x000fd02d:  67 66 ff 70 1c           pushl    0x1c(%eax)
0x000fd032:  67 8e 18                 movw     (%eax), %ds
0x000fd035:  66 58                    popl     %eax
0x000fd037:  cf                       iretw    

----------------
IN: 
0x000fe982:  cd 1c                    int      $0x1c

----------------
IN: 
0x000fff53:  cf                       iretw    

----------------
IN: 
0x000fe984:  cb                       lretw    

----------------
IN: 
0x000fd038:  9c                       pushfw   
0x000fd039:  fa                       cli      
0x000fd03a:  fc                       cld      
0x000fd03b:  1e                       pushw    %ds
0x000fd03c:  66 50                    pushl    %eax
0x000fd03e:  67 8e 5c 24 08           movw     8(%esp), %ds
0x000fd043:  67 66 8b 44 24 0c        movl     0xc(%esp), %eax
0x000fd049:  67 66 8f 40 1c           popl     0x1c(%eax)
0x000fd04e:  67 8f 00                 popw     (%eax)
0x000fd051:  67 66 89 78 04           movl     %edi, 4(%eax)
0x000fd056:  67 66 89 70 08           movl     %esi, 8(%eax)
0x000fd05b:  67 66 89 68 0c           movl     %ebp, 0xc(%eax)
0x000fd060:  67 66 89 58 10           movl     %ebx, 0x10(%eax)
0x000fd065:  67 66 89 50 14           movl     %edx, 0x14(%eax)
0x000fd06a:  67 66 89 48 18           movl     %ecx, 0x18(%eax)
0x000fd06f:  67 8c 40 02              movw     %es, 2(%eax)
0x000fd073:  67 8f 40 24              popw     0x24(%eax)
0x000fd077:  8c d1                    movw     %ss, %cx
0x000fd079:  8e d9                    movw     %cx, %ds
0x000fd07b:  66 5a                    popl     %edx
0x000fd07d:  66 58                    popl     %eax
0x000fd07f:  66 5d                    popl     %ebp
0x000fd081:  66 c3                    retl     

----------------
IN: 
0x000f7ec4:  66 5b                    popl     %ebx
0x000f7ec6:  66 5e                    popl     %esi
0x000f7ec8:  66 5f                    popl     %edi
0x000f7eca:  66 c3                    retl     

----------------
IN: 
0x000f6d54:  8e db                    movw     %bx, %ds
0x000f6d56:  8e d3                    movw     %bx, %ss

----------------
IN: 
0x000f6d58:  66 8b 26 10 f0           movl     0xf010, %esp

----------------
IN: 
0x000f6d5d:  66 89 36 10 f0           movl     %esi, 0xf010
0x000f6d62:  66 5a                    popl     %edx
0x000f6d64:  66 5b                    popl     %ebx
0x000f6d66:  66 5e                    popl     %esi
0x000f6d68:  66 5f                    popl     %edi
0x000f6d6a:  66 c3                    retl     

----------------
IN: 
0x000fc8bc:  b0 20                    movb     $0x20, %al
0x000fc8be:  e6 20                    outb     %al, $0x20
0x000fc8c0:  66 83 c4 34              addl     $0x34, %esp
0x000fc8c4:  66 5b                    popl     %ebx
0x000fc8c6:  66 5e                    popl     %esi
0x000fc8c8:  66 5f                    popl     %edi
0x000fc8ca:  66 5d                    popl     %ebp
0x000fc8cc:  66 c3                    retl     

----------------
IN: 
0x000fd36a:  66 89 e0                 movl     %esp, %eax
0x000fd36d:  67 8e 50 24              movw     0x24(%eax), %ss

----------------
IN: 
0x000fd371:  67 66 8b 60 20           movl     0x20(%eax), %esp

----------------
IN: 
0x000fd376:  67 66 8b 78 04           movl     4(%eax), %edi
0x000fd37b:  67 66 8b 70 08           movl     8(%eax), %esi
0x000fd380:  67 66 8b 68 0c           movl     0xc(%eax), %ebp
0x000fd385:  67 66 8b 58 10           movl     0x10(%eax), %ebx
0x000fd38a:  67 66 8b 50 14           movl     0x14(%eax), %edx
0x000fd38f:  67 66 8b 48 18           movl     0x18(%eax), %ecx
0x000fd394:  67 8e 40 02              movw     2(%eax), %es
0x000fd398:  67 66 ff 70 1c           pushl    0x1c(%eax)
0x000fd39d:  67 8e 18                 movw     (%eax), %ds
0x000fd3a0:  66 58                    popl     %eax
0x000fd3a2:  cf                       iretw    

----------------
IN: 
0x07fad1e3:  83 fb 03                 cmpl     $3, %ebx
0x07fad1e6:  76 23                    jbe      0x7fad20b

----------------
IN: 
0x07fad1e8:  89 d9                    movl     %ebx, %ecx
0x07fad1ea:  81 fb 00 08 00 00        cmpl     $0x800, %ebx
0x07fad1f0:  76 05                    jbe      0x7fad1f7

----------------
IN: 
0x07fad1f2:  b9 00 08 00 00           movl     $0x800, %ecx
0x07fad1f7:  c1 e9 02                 shrl     $2, %ecx
0x07fad1fa:  8d 04 8d 00 00 00 00     leal     (, %ecx, 4), %eax
0x07fad201:  29 c3                    subl     %eax, %ebx
0x07fad203:  89 ef                    movl     %ebp, %edi
0x07fad205:  f3 a5                    rep movsl (%esi), %es:(%edi)

----------------
IN: 
0x07fad205:  f3 a5                    rep movsl (%esi), %es:(%edi)

----------------
IN: 
0x07fad207:  89 fd                    movl     %edi, %ebp
0x07fad209:  eb d3                    jmp      0x7fad1de

----------------
IN: 
0x07fad1de:  e8 2e 0c 14 f8           calll    0xede11

----------------
IN: 
0x07fad1f7:  c1 e9 02                 shrl     $2, %ecx
0x07fad1fa:  8d 04 8d 00 00 00 00     leal     (, %ecx, 4), %eax
0x07fad201:  29 c3                    subl     %eax, %ebx
0x07fad203:  89 ef                    movl     %ebp, %edi
0x07fad205:  f3 a5                    rep movsl (%esi), %es:(%edi)

----------------
IN: 
0x07fad20b:  85 db                    testl    %ebx, %ebx
0x07fad20d:  74 06                    je       0x7fad215

----------------
IN: 
0x07fad215:  5b                       popl     %ebx
0x07fad216:  5e                       popl     %esi
0x07fad217:  5f                       popl     %edi
0x07fad218:  5d                       popl     %ebp
0x07fad219:  c3                       retl     

----------------
IN: 
0x07faec66:  89 f1                    movl     %esi, %ecx
0x07faec68:  ba 30 00 00 00           movl     $0x30, %edx
0x07faec6d:  89 f8                    movl     %edi, %eax
0x07faec6f:  e8 58 d5 13 f8           calll    0xec1cc

----------------
IN: 
0x07faec74:  eb 10                    jmp      0x7faec86

----------------
IN: 
0x07faec86:  89 d8                    movl     %ebx, %eax
0x07faec88:  83 c4 10                 addl     $0x10, %esp
0x07faec8b:  5b                       popl     %ebx
0x07faec8c:  5e                       popl     %esi
0x07faec8d:  5f                       popl     %edi
0x07faec8e:  5d                       popl     %ebp
0x07faec8f:  c3                       retl     

----------------
IN: 
0x07fb2436:  85 c0                    testl    %eax, %eax
0x07fb2438:  74 22                    je       0x7fb245c

----------------
IN: 
0x07fb243a:  85 f6                    testl    %esi, %esi
0x07fb243c:  74 14                    je       0x7fb2452

----------------
IN: 
0x07fb2452:  0f b7 13                 movzwl   (%ebx), %edx
0x07fb2455:  89 f9                    movl     %edi, %ecx
0x07fb2457:  e8 34 c8 ff ff           calll    0x7faec90

----------------
IN: 
0x07faec90:  55                       pushl    %ebp
0x07faec91:  57                       pushl    %edi
0x07faec92:  56                       pushl    %esi
0x07faec93:  53                       pushl    %ebx
0x07faec94:  83 ec 2c                 subl     $0x2c, %esp
0x07faec97:  89 c7                    movl     %eax, %edi
0x07faec99:  66 81 38 55 aa           cmpw     $0xaa55, (%eax)
0x07faec9e:  0f 85 ea 00 00 00        jne      0x7faed8e

----------------
IN: 
0x07faeca4:  89 d6                    movl     %edx, %esi
0x07faeca6:  89 cd                    movl     %ecx, %ebp
0x07faeca8:  e8 0f 0c 14 f8           calll    0xef8bc

----------------
IN: 
0x000ef8bc:  56                       pushl    %esi
0x000ef8bd:  53                       pushl    %ebx
0x000ef8be:  83 ec 10                 subl     $0x10, %esp
0x000ef8c1:  89 c6                    movl     %eax, %esi
0x000ef8c3:  0f b6 58 02              movzbl   2(%eax), %ebx
0x000ef8c7:  31 d2                    xorl     %edx, %edx
0x000ef8c9:  84 db                    testb    %bl, %bl
0x000ef8cb:  74 3a                    je       0xef907

----------------
IN: 
0x000ef8cd:  c1 e3 09                 shll     $9, %ebx
0x000ef8d0:  89 da                    movl     %ebx, %edx
0x000ef8d2:  e8 98 d7 ff ff           calll    0xed06f

----------------
IN: 
0x000ef8d7:  ba 01 00 00 00           movl     $1, %edx
0x000ef8dc:  84 c0                    testb    %al, %al
0x000ef8de:  74 27                    je       0xef907

----------------
IN: 
0x000ef907:  89 d0                    movl     %edx, %eax
0x000ef909:  83 c4 10                 addl     $0x10, %esp
0x000ef90c:  5b                       popl     %ebx
0x000ef90d:  5e                       popl     %esi
0x000ef90e:  c3                       retl     

----------------
IN: 
0x07faecad:  85 c0                    testl    %eax, %eax
0x07faecaf:  0f 84 d9 00 00 00        je       0x7faed8e

----------------
IN: 
0x07faecb5:  0f b6 47 02              movzbl   2(%edi), %eax
0x07faecb9:  c1 e0 09                 shll     $9, %eax
0x07faecbc:  e8 91 cc ff ff           calll    0x7fab952

----------------
IN: 
0x07faecc1:  89 c3                    movl     %eax, %ebx
0x07faecc3:  ba b0 e3 fb 07           movl     $0x7fbe3b0, %edx
0x07faecc8:  b8 83 00 00 00           movl     $0x83, %eax
0x07faeccd:  85 db                    testl    %ebx, %ebx
0x07faeccf:  0f 84 b4 00 00 00        je       0x7faed89

----------------
IN: 
0x07faecd5:  39 fb                    cmpl     %edi, %ebx
0x07faecd7:  74 10                    je       0x7faece9

----------------
IN: 
0x07faece9:  0f b6 57 02              movzbl   2(%edi), %edx
0x07faeced:  80 3d 81 b7 0e 00 00     cmpb     $0, 0xeb781
0x07faecf4:  74 53                    je       0x7faed49

----------------
IN: 
0x07faed49:  85 ed                    testl    %ebp, %ebp
0x07faed4b:  75 12                    jne      0x7faed5f

----------------
IN: 
0x07faed5f:  0f b7 ce                 movzwl   %si, %ecx
0x07faed62:  ba 03 00 00 00           movl     $3, %edx
0x07faed67:  89 d8                    movl     %ebx, %eax
0x07faed69:  e8 b5 0a 14 f8           calll    0xef823

----------------
IN: 
0x000ef823:  57                       pushl    %edi
0x000ef824:  56                       pushl    %esi
0x000ef825:  53                       pushl    %ebx
0x000ef826:  83 ec 34                 subl     $0x34, %esp
0x000ef829:  89 c3                    movl     %eax, %ebx
0x000ef82b:  89 d6                    movl     %edx, %esi
0x000ef82d:  89 cf                    movl     %ecx, %edi
0x000ef82f:  c1 eb 04                 shrl     $4, %ebx
0x000ef832:  0f b7 c2                 movzwl   %dx, %eax
0x000ef835:  89 44 24 08              movl     %eax, 8(%esp)
0x000ef839:  0f b7 c3                 movzwl   %bx, %eax
0x000ef83c:  89 44 24 04              movl     %eax, 4(%esp)
0x000ef840:  c7 04 24 a6 24 0f 00     movl     $0xf24a6, (%esp)
0x000ef847:  e8 79 ea ff ff           calll    0xee2c5

----------------
IN: 
0x000ef84c:  b9 26 00 00 00           movl     $0x26, %ecx
0x000ef851:  31 d2                    xorl     %edx, %edx
0x000ef853:  8d 44 24 0e              leal     0xe(%esp), %eax
0x000ef857:  e8 65 c9 ff ff           calll    0xec1c1

----------------
IN: 
0x000ef85c:  66 c7 44 24 32 00 02     movw     $0x200, 0x32(%esp)
0x000ef863:  66 89 7c 24 2a           movw     %di, 0x2a(%esp)
0x000ef868:  66 c7 44 24 1e ff ff     movw     $0xffff, 0x1e(%esp)
0x000ef86f:  66 c7 44 24 22 ff ff     movw     $0xffff, 0x22(%esp)
0x000ef876:  66 c7 44 24 10 00 f0     movw     $0xf000, 0x10(%esp)
0x000ef87d:  b8 b0 5f 0f 00           movl     $0xf5fb0, %eax
0x000ef882:  66 89 44 24 12           movw     %ax, 0x12(%esp)
0x000ef887:  66 89 74 24 2e           movw     %si, 0x2e(%esp)
0x000ef88c:  66 89 5c 24 30           movw     %bx, 0x30(%esp)
0x000ef891:  e8 d1 df ff ff           calll    0xed867

----------------
IN: 
0x000ed867:  e8 01 e8 ff ff           calll    0xec06d

----------------
IN: 
0x000ed86c:  85 c0                    testl    %eax, %eax
0x000ed86e:  74 31                    je       0xed8a1

----------------
IN: 
0x000ed8a1:  c3                       retl     

----------------
IN: 
0x000ef896:  b8 01 00 00 00           movl     $1, %eax
0x000ef89b:  e8 ec e7 ff ff           calll    0xee08c

----------------
IN: 
0x000ef8a0:  b9 8b 7e 0f 00           movl     $0xf7e8b, %ecx
0x000ef8a5:  31 d2                    xorl     %edx, %edx
0x000ef8a7:  8d 44 24 0e              leal     0xe(%esp), %eax
0x000ef8ab:  e8 e4 e4 ff ff           calll    0xedd94

----------------
IN: 
0x000c0003:  e9 bd 54                 jmp      0x54c3

----------------
IN: 
0x000c54c3:  fa                       cli      
0x000c54c4:  fc                       cld      
0x000c54c5:  66 50                    pushl    %eax
0x000c54c7:  66 51                    pushl    %ecx
0x000c54c9:  66 52                    pushl    %edx
0x000c54cb:  66 53                    pushl    %ebx
0x000c54cd:  66 55                    pushl    %ebp
0x000c54cf:  66 56                    pushl    %esi
0x000c54d1:  66 57                    pushl    %edi
0x000c54d3:  06                       pushw    %es
0x000c54d4:  1e                       pushw    %ds
0x000c54d5:  8c d0                    movw     %ss, %ax
0x000c54d7:  8e d8                    movw     %ax, %ds
0x000c54d9:  66 89 e3                 movl     %esp, %ebx
0x000c54dc:  66 0f b7 e4              movzwl   %sp, %esp
0x000c54e0:  66 89 e0                 movl     %esp, %eax
0x000c54e3:  50                       pushw    %ax
0x000c54e4:  e8 ec e0                 callw    0x35d3

----------------
IN: 
0x000c35d3:  66 55                    pushl    %ebp
0x000c35d5:  66 89 e5                 movl     %esp, %ebp
0x000c35d8:  66 57                    pushl    %edi
0x000c35da:  66 56                    pushl    %esi
0x000c35dc:  66 53                    pushl    %ebx
0x000c35de:  66 83 ec 14              subl     $0x14, %esp
0x000c35e2:  66 89 c3                 movl     %eax, %ebx
0x000c35e5:  66 68 04 96 00 00        pushl    $0x9604
0x000c35eb:  66 68 ac 56 00 00        pushl    $0x56ac
0x000c35f1:  50                       pushw    %ax
0x000c35f2:  e8 f8 f5                 callw    0x2bed

----------------
IN: 
0x000c2bed:  66 55                    pushl    %ebp
0x000c2bef:  66 89 e5                 movl     %esp, %ebp
0x000c2bf2:  66 57                    pushl    %edi
0x000c2bf4:  66 56                    pushl    %esi
0x000c2bf6:  66 53                    pushl    %ebx
0x000c2bf8:  66 83 ec 08              subl     $8, %esp
0x000c2bfc:  66 89 eb                 movl     %ebp, %ebx
0x000c2bff:  9c                       pushfw   
0x000c2c00:  66 83 c3 0c              addl     $0xc, %ebx
0x000c2c04:  9d                       popfw    

----------------
IN: 
0x000c2c05:  67 66 8b 45 08           movl     8(%ebp), %eax
0x000c2c0a:  2e 67 8a 00              movb     %cs:0(%eax), %al
0x000c2c0e:  84 c0                    testb    %al, %al
0x000c2c10:  0f 84 07 02              je       0x2e1b

----------------
IN: 
0x000c2c14:  3c 25                    cmpb     $0x25, %al
0x000c2c16:  74 08                    je       0x2c20

----------------
IN: 
0x000c2c18:  2e 8b 16 32 96           movw     %cs:0x9632, %dx
0x000c2c1d:  e9 df 01                 jmp      0x2dff

----------------
IN: 
0x000c2dff:  ee                       outb     %al, %dx
0x000c2e00:  67 66 8b 7d 08           movl     8(%ebp), %edi
0x000c2e05:  eb 03                    jmp      0x2e0a

----------------
IN: 
0x000c2e0a:  66 89 f8                 movl     %edi, %eax
0x000c2e0d:  9c                       pushfw   
0x000c2e0e:  66 83 c0 01              addl     $1, %eax
0x000c2e12:  9d                       popfw    

----------------
IN: 
0x000c2e13:  67 66 89 45 08           movl     %eax, 8(%ebp)
0x000c2e18:  e9 ea fd                 jmp      0x2c05

----------------
IN: 
0x000c2c20:  67 66 8b 45 08           movl     8(%ebp), %eax
0x000c2c25:  66 89 c7                 movl     %eax, %edi
0x000c2c28:  9c                       pushfw   
0x000c2c29:  66 83 c7 01              addl     $1, %edi
0x000c2c2d:  9d                       popfw    

----------------
IN: 
0x000c2c2e:  67 c6 45 ef 20           movb     $0x20, -0x11(%ebp)
0x000c2c33:  66 31 d2                 xorl     %edx, %edx
0x000c2c36:  2e 67 8a 07              movb     %cs:0(%edi), %al
0x000c2c3a:  67 88 45 f0              movb     %al, -0x10(%ebp)
0x000c2c3e:  66 89 c6                 movl     %eax, %esi
0x000c2c41:  66 83 ee 30              subl     $0x30, %esi
0x000c2c45:  66 89 f1                 movl     %esi, %ecx
0x000c2c48:  80 f9 09                 cmpb     $9, %cl
0x000c2c4b:  77 2a                    ja       0x2c77

----------------
IN: 
0x000c2c77:  66 89 fe                 movl     %edi, %esi
0x000c2c7a:  66 31 c9                 xorl     %ecx, %ecx
0x000c2c7d:  3c 6c                    cmpb     $0x6c, %al
0x000c2c7f:  75 1a                    jne      0x2c9b

----------------
IN: 
0x000c2c9b:  3c 64                    cmpb     $0x64, %al
0x000c2c9d:  74 59                    je       0x2cf8

----------------
IN: 
0x000c2c9f:  7f 1d                    jg       0x2cbe

----------------
IN: 
0x000c2cbe:  3c 73                    cmpb     $0x73, %al
0x000c2cc0:  0f 84 15 01              je       0x2dd9

----------------
IN: 
0x000c2dd9:  66 89 de                 movl     %ebx, %esi
0x000c2ddc:  9c                       pushfw   
0x000c2ddd:  66 83 c6 04              addl     $4, %esi
0x000c2de1:  9d                       popfw    

----------------
IN: 
0x000c2de2:  67 66 8b 0b              movl     (%ebx), %ecx
0x000c2de6:  2e 67 8a 01              movb     %cs:0(%ecx), %al
0x000c2dea:  84 c0                    testb    %al, %al
0x000c2dec:  74 19                    je       0x2e07

----------------
IN: 
0x000c2dee:  2e 8b 16 32 96           movw     %cs:0x9632, %dx
0x000c2df3:  ee                       outb     %al, %dx
0x000c2df4:  66 41                    incl     %ecx
0x000c2df6:  eb ee                    jmp      0x2de6

----------------
IN: 
0x000c2de6:  2e 67 8a 01              movb     %cs:0(%ecx), %al
0x000c2dea:  84 c0                    testb    %al, %al
0x000c2dec:  74 19                    je       0x2e07

----------------
IN: 
0x000c2e07:  66 89 f3                 movl     %esi, %ebx
0x000c2e0a:  66 89 f8                 movl     %edi, %eax
0x000c2e0d:  9c                       pushfw   
0x000c2e0e:  66 83 c0 01              addl     $1, %eax
0x000c2e12:  9d                       popfw    

----------------
IN: 
0x000c2e1b:  66 58                    popl     %eax
0x000c2e1d:  66 5a                    popl     %edx
0x000c2e1f:  66 5b                    popl     %ebx
0x000c2e21:  66 5e                    popl     %esi
0x000c2e23:  66 5f                    popl     %edi
0x000c2e25:  66 5d                    popl     %ebp
0x000c2e27:  c2 02 00                 retw     $2

----------------
IN: 
0x000c35f5:  66 5f                    popl     %edi
0x000c35f7:  66 58                    popl     %eax
0x000c35f9:  66 68 b4 95 00 00        pushl    $0x95b4
0x000c35ff:  66 68 cb 56 00 00        pushl    $0x56cb
0x000c3605:  50                       pushw    %ax
0x000c3606:  e8 e4 f5                 callw    0x2bed

----------------
IN: 
0x000c3609:  66 58                    popl     %eax
0x000c360b:  66 5a                    popl     %edx
0x000c360d:  66 68 c0 59 00 00        pushl    $0x59c0
0x000c3613:  66 68 d9 56 00 00        pushl    $0x56d9
0x000c3619:  50                       pushw    %ax
0x000c361a:  e8 d0 f5                 callw    0x2bed

----------------
IN: 
0x000c361d:  66 59                    popl     %ecx
0x000c361f:  66 5e                    popl     %esi
0x000c3621:  66 89 d8                 movl     %ebx, %eax
0x000c3624:  50                       pushw    %ax
0x000c3625:  e8 02 f8                 callw    0x2e2a

----------------
IN: 
0x000c2e2a:  66 55                    pushl    %ebp
0x000c2e2c:  66 89 e5                 movl     %esp, %ebp
0x000c2e2f:  66 53                    pushl    %ebx
0x000c2e31:  66 89 c3                 movl     %eax, %ebx
0x000c2e34:  66 85 c0                 testl    %eax, %eax
0x000c2e37:  75 0e                    jne      0x2e47

----------------
IN: 
0x000c2e47:  8c d0                    movw     %ss, %ax
0x000c2e49:  66 0f b7 c0              movzwl   %ax, %eax
0x000c2e4d:  66 50                    pushl    %eax
0x000c2e4f:  67 66 0f b7 43 02        movzwl   2(%ebx), %eax
0x000c2e55:  66 50                    pushl    %eax
0x000c2e57:  67 66 0f b7 03           movzwl   (%ebx), %eax
0x000c2e5c:  66 50                    pushl    %eax
0x000c2e5e:  67 66 ff 73 14           pushl    0x14(%ebx)
0x000c2e63:  67 66 ff 73 18           pushl    0x18(%ebx)
0x000c2e68:  67 66 ff 73 10           pushl    0x10(%ebx)
0x000c2e6d:  67 66 ff 73 1c           pushl    0x1c(%ebx)
0x000c2e72:  66 68 eb 55 00 00        pushl    $0x55eb
0x000c2e78:  50                       pushw    %ax
0x000c2e79:  e8 71 fd                 callw    0x2bed

----------------
IN: 
0x000c2c4d:  3c 30                    cmpb     $0x30, %al
0x000c2c4f:  75 05                    jne      0x2c56

----------------
IN: 
0x000c2c51:  66 85 d2                 testl    %edx, %edx
0x000c2c54:  74 15                    je       0x2c6b

----------------
IN: 
0x000c2c6b:  67 c6 45 ef 30           movb     $0x30, -0x11(%ebp)
0x000c2c70:  66 31 d2                 xorl     %edx, %edx
0x000c2c73:  66 47                    incl     %edi
0x000c2c75:  eb bf                    jmp      0x2c36

----------------
IN: 
0x000c2c36:  2e 67 8a 07              movb     %cs:0(%edi), %al
0x000c2c3a:  67 88 45 f0              movb     %al, -0x10(%ebp)
0x000c2c3e:  66 89 c6                 movl     %eax, %esi
0x000c2c41:  66 83 ee 30              subl     $0x30, %esi
0x000c2c45:  66 89 f1                 movl     %esi, %ecx
0x000c2c48:  80 f9 09                 cmpb     $9, %cl
0x000c2c4b:  77 2a                    ja       0x2c77

----------------
IN: 
0x000c2c56:  66 6b d2 0a              imull    $0xa, %edx, %edx
0x000c2c5a:  67 66 0f be 4d f0        movsbl   -0x10(%ebp), %ecx
0x000c2c60:  9c                       pushfw   
0x000c2c61:  66 01 ca                 addl     %ecx, %edx
0x000c2c64:  66 83 c2 d0              addl     $-0x30, %edx
0x000c2c68:  9d                       popfw    

----------------
IN: 
0x000c2c69:  eb 08                    jmp      0x2c73

----------------
IN: 
0x000c2c73:  66 47                    incl     %edi
0x000c2c75:  eb bf                    jmp      0x2c36

----------------
IN: 
0x000c2cc4:  7f 27                    jg       0x2ced

----------------
IN: 
0x000c2ced:  3c 75                    cmpb     $0x75, %al
0x000c2cef:  74 2e                    je       0x2d1f

----------------
IN: 
0x000c2cf1:  3c 78                    cmpb     $0x78, %al
0x000c2cf3:  74 43                    je       0x2d38

----------------
IN: 
0x000c2d38:  67 66 8b 03              movl     (%ebx), %eax
0x000c2d3c:  67 66 89 45 f0           movl     %eax, -0x10(%ebp)
0x000c2d41:  84 c9                    testb    %cl, %cl
0x000c2d43:  67 66 0f be 4d ef        movsbl   -0x11(%ebp), %ecx
0x000c2d49:  74 2d                    je       0x2d78

----------------
IN: 
0x000c2d78:  66 89 de                 movl     %ebx, %esi
0x000c2d7b:  9c                       pushfw   
0x000c2d7c:  66 83 c6 04              addl     $4, %esi
0x000c2d80:  9d                       popfw    

----------------
IN: 
0x000c2d81:  67 66 8b 45 f0           movl     -0x10(%ebp), %eax
0x000c2d86:  50                       pushw    %ax
0x000c2d87:  e8 af e1                 callw    0xf39

----------------
IN: 
0x000c0f39:  66 55                    pushl    %ebp
0x000c0f3b:  66 89 e5                 movl     %esp, %ebp
0x000c0f3e:  66 57                    pushl    %edi
0x000c0f40:  66 56                    pushl    %esi
0x000c0f42:  66 53                    pushl    %ebx
0x000c0f44:  66 89 c7                 movl     %eax, %edi
0x000c0f47:  88 c8                    movb     %cl, %al
0x000c0f49:  66 89 f9                 movl     %edi, %ecx
0x000c0f4c:  66 bb 01 00 00 00        movl     $1, %ebx
0x000c0f52:  66 c1 e9 04              shrl     $4, %ecx
0x000c0f56:  74 04                    je       0xf5c

----------------
IN: 
0x000c0f58:  66 43                    incl     %ebx
0x000c0f5a:  eb f6                    jmp      0xf52

----------------
IN: 
0x000c0f52:  66 c1 e9 04              shrl     $4, %ecx
0x000c0f56:  74 04                    je       0xf5c

----------------
IN: 
0x000c0f5c:  66 89 d6                 movl     %edx, %esi
0x000c0f5f:  66 29 de                 subl     %ebx, %esi
0x000c0f62:  66 85 f6                 testl    %esi, %esi
0x000c0f65:  7e 0a                    jle      0xf71

----------------
IN: 
0x000c0f67:  2e 8b 16 32 96           movw     %cs:0x9632, %dx
0x000c0f6c:  ee                       outb     %al, %dx
0x000c0f6d:  66 4e                    decl     %esi
0x000c0f6f:  eb f1                    jmp      0xf62

----------------
IN: 
0x000c0f62:  66 85 f6                 testl    %esi, %esi
0x000c0f65:  7e 0a                    jle      0xf71

----------------
IN: 
0x000c0f71:  66 89 da                 movl     %ebx, %edx
0x000c0f74:  66 89 f8                 movl     %edi, %eax
0x000c0f77:  66 5b                    popl     %ebx
0x000c0f79:  66 5e                    popl     %esi
0x000c0f7b:  66 5f                    popl     %edi
0x000c0f7d:  66 5d                    popl     %ebp
0x000c0f7f:  e9 16 ff                 jmp      0xe98

----------------
IN: 
0x000c0e98:  66 55                    pushl    %ebp
0x000c0e9a:  66 89 e5                 movl     %esp, %ebp
0x000c0e9d:  66 53                    pushl    %ebx
0x000c0e9f:  66 89 c3                 movl     %eax, %ebx
0x000c0ea2:  66 83 fa 04              cmpl     $4, %edx
0x000c0ea6:  74 56                    je       0xefe

----------------
IN: 
0x000c0ea8:  7f 0e                    jg       0xeb8

----------------
IN: 
0x000c0eaa:  66 83 fa 02              cmpl     $2, %edx
0x000c0eae:  74 6c                    je       0xf1c

----------------
IN: 
0x000c0f1c:  66 89 d8                 movl     %ebx, %eax
0x000c0f1f:  66 c1 e8 04              shrl     $4, %eax
0x000c0f23:  66 83 e0 0f              andl     $0xf, %eax
0x000c0f27:  50                       pushw    %ax
0x000c0f28:  e8 45 ff                 callw    0xe70

----------------
IN: 
0x000c0e70:  66 55                    pushl    %ebp
0x000c0e72:  66 89 e5                 movl     %esp, %ebp
0x000c0e75:  66 89 c2                 movl     %eax, %edx
0x000c0e78:  9c                       pushfw   
0x000c0e79:  66 83 c0 57              addl     $0x57, %eax
0x000c0e7d:  9d                       popfw    

----------------
IN: 
0x000c0e7e:  66 83 fa 09              cmpl     $9, %edx
0x000c0e82:  77 09                    ja       0xe8d

----------------
IN: 
0x000c0e84:  66 89 d0                 movl     %edx, %eax
0x000c0e87:  9c                       pushfw   
0x000c0e88:  66 83 c0 30              addl     $0x30, %eax
0x000c0e8c:  9d                       popfw    

----------------
IN: 
0x000c0e8d:  2e 8b 16 32 96           movw     %cs:0x9632, %dx
0x000c0e92:  ee                       outb     %al, %dx
0x000c0e93:  66 5d                    popl     %ebp
0x000c0e95:  c2 02 00                 retw     $2

----------------
IN: 
0x000c0f2b:  66 89 d8                 movl     %ebx, %eax
0x000c0f2e:  66 83 e0 0f              andl     $0xf, %eax
0x000c0f32:  66 5b                    popl     %ebx
0x000c0f34:  66 5d                    popl     %ebp
0x000c0f36:  e9 37 ff                 jmp      0xe70

----------------
IN: 
0x000c2d8a:  eb 7b                    jmp      0x2e07

----------------
IN: 
0x000c0efe:  66 89 d8                 movl     %ebx, %eax
0x000c0f01:  66 c1 e8 0c              shrl     $0xc, %eax
0x000c0f05:  66 83 e0 0f              andl     $0xf, %eax
0x000c0f09:  50                       pushw    %ax
0x000c0f0a:  e8 63 ff                 callw    0xe70

----------------
IN: 
0x000c0f0d:  66 89 d8                 movl     %ebx, %eax
0x000c0f10:  66 c1 e8 08              shrl     $8, %eax
0x000c0f14:  66 83 e0 0f              andl     $0xf, %eax
0x000c0f18:  50                       pushw    %ax
0x000c0f19:  e8 54 ff                 callw    0xe70

----------------
IN: 
0x000c0eb0:  7f 5b                    jg       0xf0d

----------------
IN: 
0x000c0eb2:  66 4a                    decl     %edx
0x000c0eb4:  74 75                    je       0xf2b

----------------
IN: 
0x000c2e7c:  66 83 c4 20              addl     $0x20, %esp
0x000c2e80:  67 66 0f b7 43 24        movzwl   0x24(%ebx), %eax
0x000c2e86:  66 50                    pushl    %eax
0x000c2e88:  67 66 0f b7 43 20        movzwl   0x20(%ebx), %eax
0x000c2e8e:  66 50                    pushl    %eax
0x000c2e90:  67 66 0f b7 43 22        movzwl   0x22(%ebx), %eax
0x000c2e96:  66 50                    pushl    %eax
0x000c2e98:  66 89 d8                 movl     %ebx, %eax
0x000c2e9b:  9c                       pushfw   
0x000c2e9c:  66 83 c0 26              addl     $0x26, %eax
0x000c2ea0:  9d                       popfw    

----------------
IN: 
0x000c2ea1:  66 50                    pushl    %eax
0x000c2ea3:  67 66 ff 73 0c           pushl    0xc(%ebx)
0x000c2ea8:  67 66 ff 73 04           pushl    4(%ebx)
0x000c2ead:  67 66 ff 73 08           pushl    8(%ebx)
0x000c2eb2:  66 68 26 56 00 00        pushl    $0x5626
0x000c2eb8:  50                       pushw    %ax
0x000c2eb9:  e8 31 fd                 callw    0x2bed

----------------
IN: 
0x000c2ebc:  66 83 c4 20              addl     $0x20, %esp
0x000c2ec0:  67 66 8b 5d fc           movl     -4(%ebp), %ebx
0x000c2ec5:  66 89 ec                 movl     %ebp, %esp
0x000c2ec8:  66 5d                    popl     %ebp
0x000c2eca:  c2 02 00                 retw     $2

----------------
IN: 
0x000c3628:  2e 66 a1 90 95           movl     %cs:0x9590, %eax
0x000c362d:  66 85 c0                 testl    %eax, %eax
0x000c3630:  75 48                    jne      0x367a

----------------
IN: 
0x000c3632:  67 66 0f b7 5b 1c        movzwl   0x1c(%ebx), %ebx
0x000c3638:  66 89 d9                 movl     %ebx, %ecx
0x000c363b:  66 c1 e1 08              shll     $8, %ecx
0x000c363f:  66 81 c9 00 00 00 80     orl      $0x80000000, %ecx
0x000c3646:  66 ba f8 0c 00 00        movl     $0xcf8, %edx
0x000c364c:  66 89 c8                 movl     %ecx, %eax
0x000c364f:  66 ef                    outl     %eax, %dx
0x000c3651:  b2 fc                    movb     $0xfc, %dl
0x000c3653:  ed                       inw      %dx, %ax
0x000c3654:  2e 8b 36 a0 95           movw     %cs:0x95a0, %si
0x000c3659:  39 f0                    cmpw     %si, %ax
0x000c365b:  75 1d                    jne      0x367a

----------------
IN: 
0x000c365d:  b2 f8                    movb     $0xf8, %dl
0x000c365f:  66 89 c8                 movl     %ecx, %eax
0x000c3662:  66 ef                    outl     %eax, %dx
0x000c3664:  b2 fe                    movb     $0xfe, %dl
0x000c3666:  ed                       inw      %dx, %ax
0x000c3667:  2e 8b 0e a2 95           movw     %cs:0x95a2, %cx
0x000c366c:  39 c8                    cmpw     %cx, %ax
0x000c366e:  75 0a                    jne      0x367a

----------------
IN: 
0x000c3670:  8c c8                    movw     %cs, %ax
0x000c3672:  8e c0                    movw     %ax, %es
0x000c3674:  26 66 89 1e 94 95        movl     %ebx, %es:0x9594
0x000c367a:  66 ba c2 03 00 00        movl     $0x3c2, %edx
0x000c3680:  b0 c3                    movb     $0xc3, %al
0x000c3682:  ee                       outb     %al, %dx
0x000c3683:  b2 c4                    movb     $0xc4, %dl
0x000c3685:  66 b8 04 02 00 00        movl     $0x204, %eax
0x000c368b:  ef                       outw     %ax, %dx
0x000c368c:  66 31 db                 xorl     %ebx, %ebx
0x000c368f:  66 be ce 01 00 00        movl     $0x1ce, %esi
0x000c3695:  66 89 d8                 movl     %ebx, %eax
0x000c3698:  66 89 f2                 movl     %esi, %edx
0x000c369b:  ef                       outw     %ax, %dx
0x000c369c:  66 b9 cf 01 00 00        movl     $0x1cf, %ecx
0x000c36a2:  66 b8 c0 b0 ff ff        movl     $0xffffb0c0, %eax
0x000c36a8:  66 89 ca                 movl     %ecx, %edx
0x000c36ab:  ef                       outw     %ax, %dx
0x000c36ac:  66 89 d8                 movl     %ebx, %eax
0x000c36af:  66 89 f2                 movl     %esi, %edx
0x000c36b2:  ef                       outw     %ax, %dx
0x000c36b3:  66 89 ca                 movl     %ecx, %edx
0x000c36b6:  ed                       inw      %dx, %ax
0x000c36b7:  3d c0 b0                 cmpw     $0xb0c0, %ax
0x000c36ba:  74 0f                    je       0x36cb

----------------
IN: 
0x000c36cb:  66 ba ce 01 00 00        movl     $0x1ce, %edx
0x000c36d1:  66 31 c0                 xorl     %eax, %eax
0x000c36d4:  ef                       outw     %ax, %dx
0x000c36d5:  b2 cf                    movb     $0xcf, %dl
0x000c36d7:  66 b8 c5 b0 ff ff        movl     $0xffffb0c5, %eax
0x000c36dd:  ef                       outw     %ax, %dx
0x000c36de:  8c c8                    movw     %cs, %ax
0x000c36e0:  8e c0                    movw     %ax, %es
0x000c36e2:  66 b8 01 00 00 00        movl     $1, %eax
0x000c36e8:  26 66 a3 ec 59           movl     %eax, %es:0x59ec
0x000c36ed:  2e 66 a1 90 95           movl     %cs:0x9590, %eax
0x000c36f2:  66 85 c0                 testl    %eax, %eax
0x000c36f5:  0f 85 03 02              jne      0x38fc

----------------
IN: 
0x000c36f9:  2e 66 a1 94 95           movl     %cs:0x9594, %eax
0x000c36fe:  66 be 00 00 00 e0        movl     $0xe0000000, %esi
0x000c3704:  66 85 c0                 testl    %eax, %eax
0x000c3707:  78 7e                    js       0x3787

----------------
IN: 
0x000c3709:  66 0f b7 f8              movzwl   %ax, %edi
0x000c370d:  66 89 f9                 movl     %edi, %ecx
0x000c3710:  66 c1 e1 08              shll     $8, %ecx
0x000c3714:  66 81 c9 00 00 00 80     orl      $0x80000000, %ecx
0x000c371b:  66 89 c8                 movl     %ecx, %eax
0x000c371e:  66 ba f8 0c 00 00        movl     $0xcf8, %edx
0x000c3724:  66 ef                    outl     %eax, %dx
0x000c3726:  66 be fc 0c 00 00        movl     $0xcfc, %esi
0x000c372c:  66 89 f2                 movl     %esi, %edx
0x000c372f:  ed                       inw      %dx, %ax
0x000c3730:  66 31 db                 xorl     %ebx, %ebx
0x000c3733:  3d ad 15                 cmpw     $0x15ad, %ax
0x000c3736:  0f 94 c3                 sete     %bl
0x000c3739:  66 89 d8                 movl     %ebx, %eax
0x000c373c:  9c                       pushfw   
0x000c373d:  66 83 c0 04              addl     $4, %eax
0x000c3741:  9d                       popfw    

----------------
IN: 
0x000c3742:  66 c1 e0 02              shll     $2, %eax
0x000c3746:  66 09 c8                 orl      %ecx, %eax
0x000c3749:  b2 f8                    movb     $0xf8, %dl
0x000c374b:  66 ef                    outl     %eax, %dx
0x000c374d:  66 89 f2                 movl     %esi, %edx
0x000c3750:  66 ed                    inl      %dx, %eax
0x000c3752:  66 89 c6                 movl     %eax, %esi
0x000c3755:  66 83 e6 f0              andl     $0xfffffff0, %esi
0x000c3759:  66 53                    pushl    %ebx
0x000c375b:  66 89 f8                 movl     %edi, %eax
0x000c375e:  66 83 e0 07              andl     $7, %eax
0x000c3762:  66 50                    pushl    %eax
0x000c3764:  66 89 f8                 movl     %edi, %eax
0x000c3767:  c1 e8 03                 shrw     $3, %ax
0x000c376a:  66 83 e0 1f              andl     $0x1f, %eax
0x000c376e:  66 50                    pushl    %eax
0x000c3770:  66 89 f8                 movl     %edi, %eax
0x000c3773:  66 c1 e8 08              shrl     $8, %eax
0x000c3777:  66 50                    pushl    %eax
0x000c3779:  66 68 1d 57 00 00        pushl    $0x571d
0x000c377f:  50                       pushw    %ax
0x000c3780:  e8 6a f4                 callw    0x2bed

----------------
IN: 
0x000c2cf8:  67 66 8b 33              movl     (%ebx), %esi
0x000c2cfc:  84 c9                    testb    %cl, %cl
0x000c2cfe:  75 06                    jne      0x2d06

----------------
IN: 
0x000c2d00:  66 83 c3 04              addl     $4, %ebx
0x000c2d04:  eb 04                    jmp      0x2d0a

----------------
IN: 
0x000c2d0a:  66 85 f6                 testl    %esi, %esi
0x000c2d0d:  79 0b                    jns      0x2d1a

----------------
IN: 
0x000c2d1a:  66 89 f0                 movl     %esi, %eax
0x000c2d1d:  eb 12                    jmp      0x2d31

----------------
IN: 
0x000c2d31:  50                       pushw    %ax
0x000c2d32:  e8 67 fe                 callw    0x2b9c

----------------
IN: 
0x000c2b9c:  66 55                    pushl    %ebp
0x000c2b9e:  66 89 e5                 movl     %esp, %ebp
0x000c2ba1:  66 53                    pushl    %ebx
0x000c2ba3:  66 83 ec 0c              subl     $0xc, %esp
0x000c2ba7:  67 c6 45 fb 00           movb     $0, -5(%ebp)
0x000c2bac:  66 89 e9                 movl     %ebp, %ecx
0x000c2baf:  9c                       pushfw   
0x000c2bb0:  66 83 c1 fa              addl     $-6, %ecx
0x000c2bb4:  9d                       popfw    

----------------
IN: 
0x000c2bb5:  66 bb 0a 00 00 00        movl     $0xa, %ebx
0x000c2bbb:  66 31 d2                 xorl     %edx, %edx
0x000c2bbe:  66 f7 f3                 divl     %ebx
0x000c2bc1:  66 83 c2 30              addl     $0x30, %edx
0x000c2bc5:  67 88 11                 movb     %dl, (%ecx)
0x000c2bc8:  66 85 c0                 testl    %eax, %eax
0x000c2bcb:  74 04                    je       0x2bd1

----------------
IN: 
0x000c2bd1:  67 8a 01                 movb     (%ecx), %al
0x000c2bd4:  84 c0                    testb    %al, %al
0x000c2bd6:  74 0a                    je       0x2be2

----------------
IN: 
0x000c2bd8:  2e 8b 16 32 96           movw     %cs:0x9632, %dx
0x000c2bdd:  ee                       outb     %al, %dx
0x000c2bde:  66 41                    incl     %ecx
0x000c2be0:  eb ef                    jmp      0x2bd1

----------------
IN: 
0x000c2be2:  66 83 c4 0c              addl     $0xc, %esp
0x000c2be6:  66 5b                    popl     %ebx
0x000c2be8:  66 5d                    popl     %ebp
0x000c2bea:  c2 02 00                 retw     $2

----------------
IN: 
0x000c2d35:  e9 d2 00                 jmp      0x2e0a

----------------
IN: 
0x000c3783:  66 83 c4 14              addl     $0x14, %esp
0x000c3787:  8c c9                    movw     %cs, %cx
0x000c3789:  8e c1                    movw     %cx, %es
0x000c378b:  26 66 89 36 70 6f        movl     %esi, %es:0x6f70
0x000c3791:  66 bf ce 01 00 00        movl     $0x1ce, %edi
0x000c3797:  66 b8 0a 00 00 00        movl     $0xa, %eax
0x000c379d:  66 89 fa                 movl     %edi, %edx
0x000c37a0:  ef                       outw     %ax, %dx
0x000c37a1:  66 bb cf 01 00 00        movl     $0x1cf, %ebx
0x000c37a7:  66 89 da                 movl     %ebx, %edx
0x000c37aa:  ed                       inw      %dx, %ax
0x000c37ab:  66 c1 e0 10              shll     $0x10, %eax
0x000c37af:  66 89 c2                 movl     %eax, %edx
0x000c37b2:  67 66 89 45 f0           movl     %eax, -0x10(%ebp)
0x000c37b7:  8e c1                    movw     %cx, %es
0x000c37b9:  26 66 a3 78 6f           movl     %eax, %es:0x6f78
0x000c37be:  8e c1                    movw     %cx, %es
0x000c37c0:  66 b8 40 00 00 00        movl     $0x40, %eax
0x000c37c6:  26 a3 6c 6f              movw     %ax, %es:0x6f6c
0x000c37ca:  8e c1                    movw     %cx, %es
0x000c37cc:  66 b8 01 00 00 00        movl     $1, %eax
0x000c37d2:  26 66 a3 74 6f           movl     %eax, %es:0x6f74
0x000c37d7:  66 89 d0                 movl     %edx, %eax
0x000c37da:  66 c1 e8 14              shrl     $0x14, %eax
0x000c37de:  66 50                    pushl    %eax
0x000c37e0:  66 56                    pushl    %esi
0x000c37e2:  66 68 42 57 00 00        pushl    $0x5742
0x000c37e8:  50                       pushw    %ax
0x000c37e9:  e8 01 f4                 callw    0x2bed

----------------
IN: 
0x000c0eb8:  66 83 fa 06              cmpl     $6, %edx
0x000c0ebc:  74 22                    je       0xee0

----------------
IN: 
0x000c0ebe:  7c 2f                    jl       0xeef

----------------
IN: 
0x000c0ec0:  66 83 fa 07              cmpl     $7, %edx
0x000c0ec4:  74 0b                    je       0xed1

----------------
IN: 
0x000c0ec6:  66 89 d8                 movl     %ebx, %eax
0x000c0ec9:  66 c1 e8 1c              shrl     $0x1c, %eax
0x000c0ecd:  50                       pushw    %ax
0x000c0ece:  e8 9f ff                 callw    0xe70

----------------
IN: 
0x000c0ed1:  66 89 d8                 movl     %ebx, %eax
0x000c0ed4:  66 c1 e8 18              shrl     $0x18, %eax
0x000c0ed8:  66 83 e0 0f              andl     $0xf, %eax
0x000c0edc:  50                       pushw    %ax
0x000c0edd:  e8 90 ff                 callw    0xe70

----------------
IN: 
0x000c0ee0:  66 89 d8                 movl     %ebx, %eax
0x000c0ee3:  66 c1 e8 14              shrl     $0x14, %eax
0x000c0ee7:  66 83 e0 0f              andl     $0xf, %eax
0x000c0eeb:  50                       pushw    %ax
0x000c0eec:  e8 81 ff                 callw    0xe70

----------------
IN: 
0x000c0eef:  66 89 d8                 movl     %ebx, %eax
0x000c0ef2:  66 c1 e8 10              shrl     $0x10, %eax
0x000c0ef6:  66 83 e0 0f              andl     $0xf, %eax
0x000c0efa:  50                       pushw    %ax
0x000c0efb:  e8 72 ff                 callw    0xe70

----------------
IN: 
0x000c2bcd:  66 49                    decl     %ecx
0x000c2bcf:  eb ea                    jmp      0x2bbb

----------------
IN: 
0x000c2bbb:  66 31 d2                 xorl     %edx, %edx
0x000c2bbe:  66 f7 f3                 divl     %ebx
0x000c2bc1:  66 83 c2 30              addl     $0x30, %edx
0x000c2bc5:  67 88 11                 movb     %dl, (%ecx)
0x000c2bc8:  66 85 c0                 testl    %eax, %eax
0x000c2bcb:  74 04                    je       0x2bd1

----------------
IN: 
0x000c37ec:  66 83 c4 0c              addl     $0xc, %esp
0x000c37f0:  66 b9 04 00 00 00        movl     $4, %ecx
0x000c37f6:  66 89 c8                 movl     %ecx, %eax
0x000c37f9:  66 89 fa                 movl     %edi, %edx
0x000c37fc:  ef                       outw     %ax, %dx
0x000c37fd:  66 89 da                 movl     %ebx, %edx
0x000c3800:  ed                       inw      %dx, %ax
0x000c3801:  66 89 c6                 movl     %eax, %esi
0x000c3804:  66 89 c8                 movl     %ecx, %eax
0x000c3807:  66 89 fa                 movl     %edi, %edx
0x000c380a:  ef                       outw     %ax, %dx
0x000c380b:  66 89 f0                 movl     %esi, %eax
0x000c380e:  66 83 c8 02              orl      $2, %eax
0x000c3812:  66 89 da                 movl     %ebx, %edx
0x000c3815:  ef                       outw     %ax, %dx
0x000c3816:  66 b8 01 00 00 00        movl     $1, %eax
0x000c381c:  66 89 fa                 movl     %edi, %edx
0x000c381f:  ef                       outw     %ax, %dx
0x000c3820:  66 89 da                 movl     %ebx, %edx
0x000c3823:  ed                       inw      %dx, %ax
0x000c3824:  67 89 45 e8              movw     %ax, -0x18(%ebp)
0x000c3828:  66 b8 03 00 00 00        movl     $3, %eax
0x000c382e:  66 89 fa                 movl     %edi, %edx
0x000c3831:  ef                       outw     %ax, %dx
0x000c3832:  66 89 da                 movl     %ebx, %edx
0x000c3835:  ed                       inw      %dx, %ax
0x000c3836:  67 89 45 e6              movw     %ax, -0x1a(%ebp)
0x000c383a:  66 89 c8                 movl     %ecx, %eax
0x000c383d:  66 89 fa                 movl     %edi, %edx
0x000c3840:  ef                       outw     %ax, %dx
0x000c3841:  66 89 f0                 movl     %esi, %eax
0x000c3844:  66 89 da                 movl     %ebx, %edx
0x000c3847:  ef                       outw     %ax, %dx
0x000c3848:  66 be f0 59 00 00        movl     $0x59f0, %esi
0x000c384e:  2e 67 8b 7e 04           movw     %cs:4(%esi), %di
0x000c3853:  2e 67 8b 46 06           movw     %cs:6(%esi), %ax
0x000c3858:  67 89 45 e4              movw     %ax, -0x1c(%ebp)
0x000c385c:  2e 67 8a 46 08           movb     %cs:8(%esi), %al
0x000c3861:  67 88 45 e3              movb     %al, -0x1d(%ebp)
0x000c3865:  66 89 f3                 movl     %esi, %ebx
0x000c3868:  9c                       pushfw   
0x000c3869:  66 83 c3 02              addl     $2, %ebx
0x000c386d:  9d                       popfw    

----------------
IN: 
0x000c386e:  66 89 d8                 movl     %ebx, %eax
0x000c3871:  50                       pushw    %ax
0x000c3872:  e8 0d d7                 callw    0xf82

----------------
IN: 
0x000c0f82:  66 55                    pushl    %ebp
0x000c0f84:  66 89 e5                 movl     %esp, %ebp
0x000c0f87:  2e 67 8a 08              movb     %cs:0(%eax), %cl
0x000c0f8b:  84 c9                    testb    %cl, %cl
0x000c0f8d:  74 0d                    je       0xf9c

----------------
IN: 
0x000c0f8f:  66 ba 01 00 00 00        movl     $1, %edx
0x000c0f95:  80 f9 03                 cmpb     $3, %cl
0x000c0f98:  74 20                    je       0xfba

----------------
IN: 
0x000c0f9a:  eb 08                    jmp      0xfa4

----------------
IN: 
0x000c0fa4:  2e 67 8a 50 06           movb     %cs:6(%eax), %dl
0x000c0fa9:  80 fa 08                 cmpb     $8, %dl
0x000c0fac:  66 0f b6 d2              movzbl   %dl, %edx
0x000c0fb0:  76 08                    jbe      0xfba

----------------
IN: 
0x000c0fba:  66 89 d0                 movl     %edx, %eax
0x000c0fbd:  66 5d                    popl     %ebp
0x000c0fbf:  c2 02 00                 retw     $2

----------------
IN: 
0x000c3875:  67 66 89 45 ec           movl     %eax, -0x14(%ebp)
0x000c387a:  66 89 d8                 movl     %ebx, %eax
0x000c387d:  50                       pushw    %ax
0x000c387e:  e8 a8 d0                 callw    0x929

----------------
IN: 
0x000c0929:  66 55                    pushl    %ebp
0x000c092b:  66 89 e5                 movl     %esp, %ebp
0x000c092e:  2e 67 8a 10              movb     %cs:0(%eax), %dl
0x000c0932:  80 fa 01                 cmpb     $1, %dl
0x000c0935:  74 1f                    je       0x956

----------------
IN: 
0x000c0937:  72 15                    jb       0x94e

----------------
IN: 
0x000c0939:  66 31 c0                 xorl     %eax, %eax
0x000c093c:  80 fa 03                 cmpb     $3, %dl
0x000c093f:  0f 94 c0                 sete     %al
0x000c0942:  9c                       pushfw   
0x000c0943:  66 6b c0 03              imull    $3, %eax, %eax
0x000c0947:  66 83 c0 01              addl     $1, %eax
0x000c094b:  9d                       popfw    

----------------
IN: 
0x000c094c:  eb 1c                    jmp      0x96a

----------------
IN: 
0x000c096a:  66 5d                    popl     %ebp
0x000c096c:  c2 02 00                 retw     $2

----------------
IN: 
0x000c3881:  66 89 c1                 movl     %eax, %ecx
0x000c3884:  67 3b 7d e8              cmpw     -0x18(%ebp), %di
0x000c3888:  77 3f                    ja       0x38c9

----------------
IN: 
0x000c388a:  67 66 0f b6 5d e3        movzbl   -0x1d(%ebp), %ebx
0x000c3890:  67 3b 5d e6              cmpw     -0x1a(%ebp), %bx
0x000c3894:  77 33                    ja       0x38c9

----------------
IN: 
0x000c3896:  67 66 0f b7 5d e4        movzwl   -0x1c(%ebp), %ebx
0x000c389c:  66 0f b7 d7              movzwl   %di, %edx
0x000c38a0:  67 66 0f af 55 ec        imull    -0x14(%ebp), %edx
0x000c38a6:  66 89 d0                 movl     %edx, %eax
0x000c38a9:  9c                       pushfw   
0x000c38aa:  66 83 c0 07              addl     $7, %eax
0x000c38ae:  9d                       popfw    

----------------
IN: 
0x000c38af:  66 bf 08 00 00 00        movl     $8, %edi
0x000c38b5:  66 99                    cltd     
0x000c38b7:  66 f7 ff                 idivl    %edi
0x000c38ba:  66 0f af d8              imull    %eax, %ebx
0x000c38be:  66 0f af d9              imull    %ecx, %ebx
0x000c38c2:  67 66 3b 5d f0           cmpl     -0x10(%ebp), %ebx
0x000c38c7:  76 24                    jbe      0x38ed

----------------
IN: 
0x000c38ed:  66 83 c6 0e              addl     $0xe, %esi
0x000c38f1:  66 81 fe c4 5d 00 00     cmpl     $0x5dc4, %esi
0x000c38f8:  0f 82 52 ff              jb       0x384e

----------------
IN: 
0x000c384e:  2e 67 8b 7e 04           movw     %cs:4(%esi), %di
0x000c3853:  2e 67 8b 46 06           movw     %cs:6(%esi), %ax
0x000c3858:  67 89 45 e4              movw     %ax, -0x1c(%ebp)
0x000c385c:  2e 67 8a 46 08           movb     %cs:8(%esi), %al
0x000c3861:  67 88 45 e3              movb     %al, -0x1d(%ebp)
0x000c3865:  66 89 f3                 movl     %esi, %ebx
0x000c3868:  9c                       pushfw   
0x000c3869:  66 83 c3 02              addl     $2, %ebx
0x000c386d:  9d                       popfw    

----------------
IN: 
0x000c0fb2:  66 83 c2 07              addl     $7, %edx
0x000c0fb6:  66 83 e2 f8              andl     $0xfffffff8, %edx
0x000c0fba:  66 89 d0                 movl     %edx, %eax
0x000c0fbd:  66 5d                    popl     %ebp
0x000c0fbf:  c2 02 00                 retw     $2

----------------
IN: 
0x000c38fc:  2e 66 a1 90 95           movl     %cs:0x9590, %eax
0x000c3901:  66 85 c0                 testl    %eax, %eax
0x000c3904:  0f 85 c4 03              jne      0x3ccc

----------------
IN: 
0x000c3908:  b0 40                    movb     $0x40, %al
0x000c390a:  8e c0                    movw     %ax, %es
0x000c390c:  26 8b 16 10 00           movw     %es:0x10, %dx
0x000c3911:  8e c0                    movw     %ax, %es
0x000c3913:  66 83 e2 cf              andl     $0xffffffcf, %edx
0x000c3917:  66 83 ca 20              orl      $0x20, %edx
0x000c391b:  26 89 16 10 00           movw     %dx, %es:0x10
0x000c3920:  8e c0                    movw     %ax, %es
0x000c3922:  b2 51                    movb     $0x51, %dl
0x000c3924:  26 88 16 89 00           movb     %dl, %es:0x89
0x000c3929:  8e c0                    movw     %ax, %es
0x000c392b:  b2 08                    movb     $8, %dl
0x000c392d:  26 88 16 8a 00           movb     %dl, %es:0x8a
0x000c3932:  8e c0                    movw     %ax, %es
0x000c3934:  66 31 d2                 xorl     %edx, %edx
0x000c3937:  26 88 16 65 00           movb     %dl, %es:0x65
0x000c393c:  8e c0                    movw     %ax, %es
0x000c393e:  26 88 16 66 00           movb     %dl, %es:0x66
0x000c3943:  8c c9                    movw     %cs, %cx
0x000c3945:  66 c1 e1 10              shll     $0x10, %ecx
0x000c3949:  66 ba 04 65 00 00        movl     $0x6504, %edx
0x000c394f:  66 0f b7 d2              movzwl   %dx, %edx
0x000c3953:  66 09 ca                 orl      %ecx, %edx
0x000c3956:  8e c0                    movw     %ax, %es
0x000c3958:  26 66 89 16 a8 00        movl     %edx, %es:0xa8
0x000c395e:  8c ca                    movw     %cs, %dx
0x000c3960:  66 89 d1                 movl     %edx, %ecx
0x000c3963:  66 c1 e1 10              shll     $0x10, %ecx
0x000c3967:  66 b8 c4 5d 00 00        movl     $0x5dc4, %eax
0x000c396d:  66 0f b7 c0              movzwl   %ax, %eax
0x000c3971:  66 09 c8                 orl      %ecx, %eax
0x000c3974:  8e c2                    movw     %dx, %es
0x000c3976:  26 66 a3 04 65           movl     %eax, %es:0x6504
0x000c397b:  67 66 c7 45 f0 c4 5d 00  movl     $0x5dc4, -0x10(%ebp)
0x000c3983:  00
0x000c3984:  67 66 c7 45 ec 00 00 00  movl     $0, -0x14(%ebp)
0x000c398c:  00
0x000c398d:  67 66 83 7d ec 1d        cmpl     $0x1d, -0x14(%ebp)
0x000c3993:  0f 84 88 01              je       0x3b1f

----------------
IN: 
0x000c3997:  67 66 8b 45 ec           movl     -0x14(%ebp), %eax
0x000c399c:  2e 67 8a 90 cc 59 00 00  movb     %cs:0x59cc(%eax), %dl
0x000c39a4:  66 0f b6 d2              movzbl   %dl, %edx
0x000c39a8:  66 b8 20 65 00 00        movl     $0x6520, %eax
0x000c39ae:  66 85 d2                 testl    %edx, %edx
0x000c39b1:  0f 84 5c 01              je       0x3b11

----------------
IN: 
0x000c3b11:  67 66 ff 45 ec           incl     -0x14(%ebp)
0x000c3b16:  67 66 83 45 f0 40        addl     $0x40, -0x10(%ebp)
0x000c3b1c:  e9 6e fe                 jmp      0x398d

----------------
IN: 
0x000c398d:  67 66 83 7d ec 1d        cmpl     $0x1d, -0x14(%ebp)
0x000c3993:  0f 84 88 01              je       0x3b1f

----------------
IN: 
0x000c39b5:  66 3d e0 67 00 00        cmpl     $0x67e0, %eax
0x000c39bb:  0f 84 52 01              je       0x3b11

----------------
IN: 
0x000c39bf:  66 89 c3                 movl     %eax, %ebx
0x000c39c2:  2e 67 8b 08              movw     %cs:0(%eax), %cx
0x000c39c6:  9c                       pushfw   
0x000c39c7:  66 83 c0 2c              addl     $0x2c, %eax
0x000c39cb:  9d                       popfw    

----------------
IN: 
0x000c39cc:  66 0f b7 c9              movzwl   %cx, %ecx
0x000c39d0:  66 39 d1                 cmpl     %edx, %ecx
0x000c39d3:  75 e0                    jne      0x39b5

----------------
IN: 
0x000c39d5:  66 83 fb fe              cmpl     $0xfe, %ebx
0x000c39d9:  0f 84 34 01              je       0x3b11

----------------
IN: 
0x000c39dd:  2e 67 8b 73 04           movw     %cs:4(%ebx), %si
0x000c39e2:  66 0f b7 c6              movzwl   %si, %eax
0x000c39e6:  67 66 89 45 e8           movl     %eax, -0x18(%ebp)
0x000c39eb:  2e 67 8b 43 06           movw     %cs:6(%ebx), %ax
0x000c39f0:  67 89 45 e4              movw     %ax, -0x1c(%ebp)
0x000c39f4:  66 0f b7 c8              movzwl   %ax, %ecx
0x000c39f8:  2e 67 8a 53 02           movb     %cs:2(%ebx), %dl
0x000c39fd:  67 88 55 e3              movb     %dl, -0x1d(%ebp)
0x000c3a01:  2e 67 8a 43 0a           movb     %cs:0xa(%ebx), %al
0x000c3a06:  67 88 45 e6              movb     %al, -0x1a(%ebp)
0x000c3a0a:  84 d2                    testb    %dl, %dl
0x000c3a0c:  75 18                    jne      0x3a26

----------------
IN: 
0x000c3a26:  2e 67 8a 43 09           movb     %cs:9(%ebx), %al
0x000c3a2b:  8c ce                    movw     %cs, %si
0x000c3a2d:  8e c6                    movw     %si, %es
0x000c3a2f:  66 0f b6 f8              movzbl   %al, %edi
0x000c3a33:  67 66 8b 45 e8           movl     -0x18(%ebp), %eax
0x000c3a38:  66 99                    cltd     
0x000c3a3a:  66 f7 ff                 idivl    %edi
0x000c3a3d:  67 66 8b 7d f0           movl     -0x10(%ebp), %edi
0x000c3a42:  26 67 88 07              movb     %al, %es:0(%edi)
0x000c3a46:  8e c6                    movw     %si, %es
0x000c3a48:  67 66 0f b6 75 e6        movzbl   -0x1a(%ebp), %esi
0x000c3a4e:  66 89 c8                 movl     %ecx, %eax
0x000c3a51:  66 99                    cltd     
0x000c3a53:  66 f7 fe                 idivl    %esi
0x000c3a56:  66 48                    decl     %eax
0x000c3a58:  26 67 88 47 01           movb     %al, %es:1(%edi)
0x000c3a5d:  8c ce                    movw     %cs, %si
0x000c3a5f:  8e c6                    movw     %si, %es
0x000c3a61:  67 66 8b 7d f0           movl     -0x10(%ebp), %edi
0x000c3a66:  67 8a 45 e6              movb     -0x1a(%ebp), %al
0x000c3a6a:  26 67 88 47 02           movb     %al, %es:2(%edi)
0x000c3a6f:  67 66 0f b6 45 e3        movzbl   -0x1d(%ebp), %eax
0x000c3a75:  67 66 8b 55 e8           movl     -0x18(%ebp), %edx
0x000c3a7a:  50                       pushw    %ax
0x000c3a7b:  e8 a4 c5                 callw    0x22

----------------
IN: 
0x000c0022:  66 55                    pushl    %ebp
0x000c0024:  66 89 e5                 movl     %esp, %ebp
0x000c0027:  66 53                    pushl    %ebx
0x000c0029:  84 c0                    testb    %al, %al
0x000c002b:  74 24                    je       0x51

----------------
IN: 
0x000c002d:  66 bb 00 40 00 00        movl     $0x4000, %ebx
0x000c0033:  fe c8                    decb     %al
0x000c0035:  74 30                    je       0x67

----------------
IN: 
0x000c0067:  66 89 d8                 movl     %ebx, %eax
0x000c006a:  66 5b                    popl     %ebx
0x000c006c:  66 5d                    popl     %ebp
0x000c006e:  c2 02 00                 retw     $2

----------------
IN: 
0x000c3a7e:  66 89 f2                 movl     %esi, %edx
0x000c3a81:  8e c6                    movw     %si, %es
0x000c3a83:  26 67 89 47 03           movw     %ax, %es:3(%edi)
0x000c3a88:  2e 67 66 8b 73 18        movl     %cs:0x18(%ebx), %esi
0x000c3a8e:  8e c2                    movw     %dx, %es
0x000c3a90:  66 83 c7 05              addl     $5, %edi
0x000c3a94:  66 b9 04 00 00 00        movl     $4, %ecx
0x000c3a9a:  8c d8                    movw     %ds, %ax
0x000c3a9c:  8e da                    movw     %dx, %ds
0x000c3a9e:  f3 a4                    rep movsb (%si), %es:(%di)

----------------
IN: 
0x000c3a9e:  f3 a4                    rep movsb (%si), %es:(%di)

----------------
IN: 
0x000c3aa0:  8e d8                    movw     %ax, %ds
0x000c3aa2:  2e 67 8a 43 1c           movb     %cs:0x1c(%ebx), %al
0x000c3aa7:  8c ca                    movw     %cs, %dx
0x000c3aa9:  8e c2                    movw     %dx, %es
0x000c3aab:  67 66 8b 7d f0           movl     -0x10(%ebp), %edi
0x000c3ab0:  26 67 88 47 09           movb     %al, %es:9(%edi)
0x000c3ab5:  2e 67 66 8b 73 20        movl     %cs:0x20(%ebx), %esi
0x000c3abb:  8e c2                    movw     %dx, %es
0x000c3abd:  66 83 c7 0a              addl     $0xa, %edi
0x000c3ac1:  66 b9 19 00 00 00        movl     $0x19, %ecx
0x000c3ac7:  8c d8                    movw     %ds, %ax
0x000c3ac9:  8e da                    movw     %dx, %ds
0x000c3acb:  f3 a4                    rep movsb (%si), %es:(%di)

----------------
IN: 
0x000c3acb:  f3 a4                    rep movsb (%si), %es:(%di)

----------------
IN: 
0x000c3acd:  8e d8                    movw     %ax, %ds
0x000c3acf:  2e 67 66 8b 73 24        movl     %cs:0x24(%ebx), %esi
0x000c3ad5:  8c ca                    movw     %cs, %dx
0x000c3ad7:  8e c2                    movw     %dx, %es
0x000c3ad9:  67 66 8b 7d f0           movl     -0x10(%ebp), %edi
0x000c3ade:  66 83 c7 23              addl     $0x23, %edi
0x000c3ae2:  66 b9 14 00 00 00        movl     $0x14, %ecx
0x000c3ae8:  8c d8                    movw     %ds, %ax
0x000c3aea:  8e da                    movw     %dx, %ds
0x000c3aec:  f3 a4                    rep movsb (%si), %es:(%di)

----------------
IN: 
0x000c3aec:  f3 a4                    rep movsb (%si), %es:(%di)

----------------
IN: 
0x000c3aee:  8e d8                    movw     %ax, %ds
0x000c3af0:  2e 67 66 8b 73 28        movl     %cs:0x28(%ebx), %esi
0x000c3af6:  8c ca                    movw     %cs, %dx
0x000c3af8:  8e c2                    movw     %dx, %es
0x000c3afa:  67 66 8b 7d f0           movl     -0x10(%ebp), %edi
0x000c3aff:  66 83 c7 37              addl     $0x37, %edi
0x000c3b03:  66 b9 09 00 00 00        movl     $9, %ecx
0x000c3b09:  8c d8                    movw     %ds, %ax
0x000c3b0b:  8e da                    movw     %dx, %ds
0x000c3b0d:  f3 a4                    rep movsb (%si), %es:(%di)

----------------
IN: 
0x000c3b0d:  f3 a4                    rep movsb (%si), %es:(%di)

----------------
IN: 
0x000c3b0f:  8e d8                    movw     %ax, %ds
0x000c3b11:  67 66 ff 45 ec           incl     -0x14(%ebp)
0x000c3b16:  67 66 83 45 f0 40        addl     $0x40, -0x10(%ebp)
0x000c3b1c:  e9 6e fe                 jmp      0x398d

----------------
IN: 
0x000c3a0e:  8c ca                    movw     %cs, %dx
0x000c3a10:  8e c2                    movw     %dx, %es
0x000c3a12:  67 66 8b 7d f0           movl     -0x10(%ebp), %edi
0x000c3a17:  66 89 f0                 movl     %esi, %eax
0x000c3a1a:  26 67 88 07              movb     %al, %es:0(%edi)
0x000c3a1e:  8e c2                    movw     %dx, %es
0x000c3a20:  67 8a 45 e4              movb     -0x1c(%ebp), %al
0x000c3a24:  eb 30                    jmp      0x3a56

----------------
IN: 
0x000c3a56:  66 48                    decl     %eax
0x000c3a58:  26 67 88 47 01           movb     %al, %es:1(%edi)
0x000c3a5d:  8c ce                    movw     %cs, %si
0x000c3a5f:  8e c6                    movw     %si, %es
0x000c3a61:  67 66 8b 7d f0           movl     -0x10(%ebp), %edi
0x000c3a66:  67 8a 45 e6              movb     -0x1a(%ebp), %al
0x000c3a6a:  26 67 88 47 02           movb     %al, %es:2(%edi)
0x000c3a6f:  67 66 0f b6 45 e3        movzbl   -0x1d(%ebp), %eax
0x000c3a75:  67 66 8b 55 e8           movl     -0x18(%ebp), %edx
0x000c3a7a:  50                       pushw    %ax
0x000c3a7b:  e8 a4 c5                 callw    0x22

----------------
IN: 
0x000c0051:  66 d1 e1                 shll     $1, %ecx
0x000c0054:  0f af ca                 imulw    %dx, %cx
0x000c0057:  66 89 cb                 movl     %ecx, %ebx
0x000c005a:  9c                       pushfw   
0x000c005b:  66 81 c3 ff 07 00 00     addl     $0x7ff, %ebx
0x000c0062:  9d                       popfw    

----------------
IN: 
0x000c0063:  81 e3 00 f8              andw     $0xf800, %bx
0x000c0067:  66 89 d8                 movl     %ebx, %eax
0x000c006a:  66 5b                    popl     %ebx
0x000c006c:  66 5d                    popl     %ebp
0x000c006e:  c2 02 00                 retw     $2

----------------
IN: 
0x000c0037:  66 0f b7 da              movzwl   %dx, %ebx
0x000c003b:  66 0f b7 c9              movzwl   %cx, %ecx
0x000c003f:  66 0f af d9              imull    %ecx, %ebx
0x000c0043:  66 c1 fb 03              sarl     $3, %ebx
0x000c0047:  81 c3 ff 1f              addw     $0x1fff, %bx
0x000c004b:  81 e3 00 e0              andw     $0xe000, %bx
0x000c004f:  eb 16                    jmp      0x67

----------------
IN: 
0x000c3b1f:  66 31 c0                 xorl     %eax, %eax
0x000c3b22:  66 31 c9                 xorl     %ecx, %ecx
0x000c3b25:  66 ba 01 00 00 00        movl     $1, %edx
0x000c3b2b:  66 6b d9 2c              imull    $0x2c, %ecx, %ebx
0x000c3b2f:  67 83 bb 20 65 00 00 13  cmpw     $0x13, 0x6520(%ebx)
0x000c3b37:  77 09                    ja       0x3b42

----------------
IN: 
0x000c3b39:  66 89 d3                 movl     %edx, %ebx
0x000c3b3c:  66 d3 e3                 shll     %cl, %ebx
0x000c3b3f:  66 09 d8                 orl      %ebx, %eax
0x000c3b42:  66 41                    incl     %ecx
0x000c3b44:  66 83 f9 10              cmpl     $0x10, %ecx
0x000c3b48:  75 e1                    jne      0x3b2b

----------------
IN: 
0x000c3b2b:  66 6b d9 2c              imull    $0x2c, %ecx, %ebx
0x000c3b2f:  67 83 bb 20 65 00 00 13  cmpw     $0x13, 0x6520(%ebx)
0x000c3b37:  77 09                    ja       0x3b42

----------------
IN: 
0x000c3b4a:  8c ca                    movw     %cs, %dx
0x000c3b4c:  8e c2                    movw     %dx, %es
0x000c3b4e:  26 66 a3 80 95           movl     %eax, %es:0x9580
0x000c3b53:  66 c1 e2 10              shll     $0x10, %edx
0x000c3b57:  66 b8 fb 54 00 00        movl     $0x54fb, %eax
0x000c3b5d:  66 0f b7 c0              movzwl   %ax, %eax
0x000c3b61:  66 09 d0                 orl      %edx, %eax
0x000c3b64:  66 31 d2                 xorl     %edx, %edx
0x000c3b67:  8e c2                    movw     %dx, %es
0x000c3b69:  26 66 a3 40 00           movl     %eax, %es:0x40
0x000c3b6e:  66 31 c0                 xorl     %eax, %eax
0x000c3b71:  66 be 00 f0 ff ff        movl     $0xfffff000, %esi
0x000c3b77:  8e c6                    movw     %si, %es
0x000c3b79:  26 67 66 8b 10           movl     %es:0(%eax), %edx
0x000c3b7e:  66 81 fa 24 50 4d 4d     cmpl     $0x4d4d5024, %edx
0x000c3b85:  0f 85 ed 00              jne      0x3c76

----------------
IN: 
0x000c3c76:  66 83 c0 10              addl     $0x10, %eax
0x000c3c7a:  66 3d 00 00 01 00        cmpl     $0x10000, %eax
0x000c3c80:  0f 85 ed fe              jne      0x3b71

----------------
IN: 
0x000c3b71:  66 be 00 f0 ff ff        movl     $0xfffff000, %esi
0x000c3b77:  8e c6                    movw     %si, %es
0x000c3b79:  26 67 66 8b 10           movl     %es:0(%eax), %edx
0x000c3b7e:  66 81 fa 24 50 4d 4d     cmpl     $0x4d4d5024, %edx
0x000c3b85:  0f 85 ed 00              jne      0x3c76

----------------
IN: 
0x000c3b89:  8e c6                    movw     %si, %es
0x000c3b8b:  26 67 8a 50 05           movb     %es:5(%eax), %dl
0x000c3b90:  66 0f b6 f2              movzbl   %dl, %esi
0x000c3b94:  66 b9 00 f0 ff ff        movl     $0xfffff000, %ecx
0x000c3b9a:  8e c1                    movw     %cx, %es
0x000c3b9c:  66 31 db                 xorl     %ebx, %ebx
0x000c3b9f:  66 31 d2                 xorl     %edx, %edx
0x000c3ba2:  66 39 f2                 cmpl     %esi, %edx
0x000c3ba5:  73 0f                    jae      0x3bb6

----------------
IN: 
0x000c3ba7:  26 67 8a 0c 02           movb     %es:0(%edx, %eax), %cl
0x000c3bac:  66 89 cf                 movl     %ecx, %edi
0x000c3baf:  66 01 fb                 addl     %edi, %ebx
0x000c3bb2:  66 42                    incl     %edx
0x000c3bb4:  eb ec                    jmp      0x3ba2

----------------
IN: 
0x000c3ba2:  66 39 f2                 cmpl     %esi, %edx
0x000c3ba5:  73 0f                    jae      0x3bb6

----------------
IN: 
0x000c3bb6:  84 db                    testb    %bl, %bl
0x000c3bb8:  0f 85 ba 00              jne      0x3c76

----------------
IN: 
0x000c3bbc:  66 ba 00 f0 ff ff        movl     $0xfffff000, %edx
0x000c3bc2:  8e c2                    movw     %dx, %es
0x000c3bc4:  26 67 66 8b 58 07        movl     %es:7(%eax), %ebx
0x000c3bca:  66 0f b7 c3              movzwl   %bx, %eax
0x000c3bce:  66 50                    pushl    %eax
0x000c3bd0:  66 89 d8                 movl     %ebx, %eax
0x000c3bd3:  66 c1 e8 10              shrl     $0x10, %eax
0x000c3bd7:  66 50                    pushl    %eax
0x000c3bd9:  66 68 78 57 00 00        pushl    $0x5778
0x000c3bdf:  66 68 00 02 00 00        pushl    $0x200
0x000c3be5:  66 68 7f 57 00 00        pushl    $0x577f
0x000c3beb:  50                       pushw    %ax
0x000c3bec:  e8 fe ef                 callw    0x2bed

----------------
IN: 
0x000c2d1f:  67 66 8b 03              movl     (%ebx), %eax
0x000c2d23:  84 c9                    testb    %cl, %cl
0x000c2d25:  75 06                    jne      0x2d2d

----------------
IN: 
0x000c2d27:  66 83 c3 04              addl     $4, %ebx
0x000c2d2b:  eb 04                    jmp      0x2d31

----------------
IN: 
0x000c3bef:  66 83 c4 14              addl     $0x14, %esp
0x000c3bf3:  66 89 d9                 movl     %ebx, %ecx
0x000c3bf6:  66 bb 20 00 00 00        movl     $0x20, %ebx
0x000c3bfc:  66 be 09 00 00 00        movl     $9, %esi
0x000c3c02:  66 51                    pushl    %ecx
0x000c3c04:  56                       pushw    %si
0x000c3c05:  66 6a ff                 pushl    $-1
0x000c3c08:  66 53                    pushl    %ebx
0x000c3c0a:  6a 00                    pushw    $0
0x000c3c0c:  67 ff 5c 24 0c           lcallw   *0xc(%esp)

----------------
IN: 
0x000fd0f5:  66 54                    pushl    %esp
0x000fd0f7:  66 0f b7 e4              movzwl   %sp, %esp
0x000fd0fb:  66 9c                    pushfl   
0x000fd0fd:  fa                       cli      
0x000fd0fe:  fc                       cld      
0x000fd0ff:  66 50                    pushl    %eax
0x000fd101:  66 51                    pushl    %ecx
0x000fd103:  66 52                    pushl    %edx
0x000fd105:  66 53                    pushl    %ebx
0x000fd107:  66 55                    pushl    %ebp
0x000fd109:  66 56                    pushl    %esi
0x000fd10b:  66 57                    pushl    %edi
0x000fd10d:  06                       pushw    %es
0x000fd10e:  1e                       pushw    %ds
0x000fd10f:  66 8c d1                 movl     %ss, %ecx
0x000fd112:  8e d9                    movw     %cx, %ds
0x000fd114:  66 c1 e1 04              shll     $4, %ecx
0x000fd118:  66 b8 a7 dc fb 07        movl     $0x7fbdca7, %eax
0x000fd11e:  67 66 8d 54 0c 2c        leal     0x2c(%esp, %ecx), %edx
0x000fd124:  66 b9 ff ff ff ff        movl     $0xffffffff, %ecx
0x000fd12a:  66 e8 39 a9 ff ff        calll    0xf7a69

----------------
IN: 
0x000f7a69:  66 55                    pushl    %ebp
0x000f7a6b:  66 57                    pushl    %edi
0x000f7a6d:  66 56                    pushl    %esi
0x000f7a6f:  66 53                    pushl    %ebx
0x000f7a71:  66 89 c6                 movl     %eax, %esi
0x000f7a74:  66 89 d3                 movl     %edx, %ebx
0x000f7a77:  2e 66 a1 b4 60           movl     %cs:0x60b4, %eax
0x000f7a7c:  66 85 c0                 testl    %eax, %eax
0x000f7a7f:  74 5b                    je       0x7adc

----------------
IN: 
0x000f7a81:  66 b8 02 00 00 00        movl     $2, %eax
0x000f7a87:  66 e8 4f ef ff ff        calll    0xf69dc

----------------
IN: 
0x000f6a4b:  8c d0                    movw     %ss, %ax
0x000f6a4d:  66 ba 80 dc 00 00        movl     $0xdc80, %edx
0x000f6a53:  66 0f b7 d2              movzwl   %dx, %edx
0x000f6a57:  8e c2                    movw     %dx, %es
0x000f6a59:  26 a3 20 f8              movw     %ax, %es:0xf820
0x000f6a5d:  e4 70                    inb      $0x70, %al
0x000f6a5f:  88 c1                    movb     %al, %cl
0x000f6a61:  84 c0                    testb    %al, %al
0x000f6a63:  78 08                    js       0x6a6d

----------------
IN: 
0x000f7a8d:  66 89 df                 movl     %ebx, %edi
0x000f7a90:  66 89 e5                 movl     %esp, %ebp
0x000f7a93:  66 8c d0                 movl     %ss, %eax
0x000f7a96:  66 c1 e0 04              shll     $4, %eax
0x000f7a9a:  66 01 c4                 addl     %eax, %esp
0x000f7a9d:  66 b8 b5 00 00 00        movl     $0xb5, %eax
0x000f7aa3:  66 b9 34 12 00 00        movl     $0x1234, %ecx
0x000f7aa9:  66 bb b4 7a 0f 00        movl     $0xf7ab4, %ebx
0x000f7aaf:  e6 b2                    outb     %al, $0xb2
0x000f7ab1:  f3 90                    nop      

----------------
IN: 
0x000a8000:  00 00                    addb     %al, (%bx, %si)
0x000a8002:  00 00                    addb     %al, (%bx, %si)
0x000a8004:  00 00                    addb     %al, (%bx, %si)
0x000a8006:  00                       .byte    0x00

----------------
IN: 
0x000f2093:  3c b5                    cmpb     $0xb5, %al
0x000f2095:  0f 85 83 01 00 00        jne      0xf221e

----------------
IN: 
0x000f209b:  81 fa 00 00 02 00        cmpl     $0x20000, %edx
0x000f20a1:  0f 85 a8 00 00 00        jne      0xf214f

----------------
IN: 
0x000f20a7:  8d b3 d0 ff 00 00        leal     0xffd0(%ebx), %esi
0x000f20ad:  89 74 24 04              movl     %esi, 4(%esp)
0x000f20b1:  8d 7c 24 08              leal     8(%esp), %edi
0x000f20b5:  b9 08 00 00 00           movl     $8, %ecx
0x000f20ba:  f3 a5                    rep movsl (%esi), %es:(%edi)

----------------
IN: 
0x000f20ba:  f3 a5                    rep movsl (%esi), %es:(%edi)

----------------
IN: 
0x000f20bc:  8b 83 d4 ff 00 00        movl     0xffd4(%ebx), %eax
0x000f20c2:  3d 34 12 00 00           cmpl     $0x1234, %eax
0x000f20c7:  8d 54 24 08              leal     8(%esp), %edx
0x000f20cb:  75 39                    jne      0xf2106

----------------
IN: 
0x000f20cd:  8d bb 00 fe 00 00        leal     0xfe00(%ebx), %edi
0x000f20d3:  89 fe                    movl     %edi, %esi
0x000f20d5:  8d 83 00 02 00 00        leal     0x200(%ebx), %eax
0x000f20db:  b1 80                    movb     $0x80, %cl
0x000f20dd:  89 c7                    movl     %eax, %edi
0x000f20df:  89 34 24                 movl     %esi, (%esp)
0x000f20e2:  f3 a5                    rep movsl (%esi), %es:(%edi)

----------------
IN: 
0x000f20e2:  f3 a5                    rep movsl (%esi), %es:(%edi)

----------------
IN: 
0x000f20e4:  b1 80                    movb     $0x80, %cl
0x000f20e6:  8b 3c 24                 movl     (%esp), %edi
0x000f20e9:  89 de                    movl     %ebx, %esi
0x000f20eb:  f3 a5                    rep movsl (%esi), %es:(%edi)

----------------
IN: 
0x000f20eb:  f3 a5                    rep movsl (%esi), %es:(%edi)

----------------
IN: 
0x000f20ed:  b1 08                    movb     $8, %cl
0x000f20ef:  8b 7c 24 04              movl     4(%esp), %edi
0x000f20f3:  89 d6                    movl     %edx, %esi
0x000f20f5:  f3 a5                    rep movsl (%esi), %es:(%edi)

----------------
IN: 
0x000f20f5:  f3 a5                    rep movsl (%esi), %es:(%edi)

----------------
IN: 
0x000f20f7:  8b 44 24 14              movl     0x14(%esp), %eax
0x000f20fb:  89 83 f0 ff 00 00        movl     %eax, 0xfff0(%ebx)
0x000f2101:  e9 b9 00 00 00           jmp      0xf21bf

----------------
IN: 
0x000f21bf:  b8 01 00 00 00           movl     $1, %eax
0x000f21c4:  e8 77 9e ff ff           calll    0xec040

----------------
IN: 
0x000ec040:  53                       pushl    %ebx
0x000ec041:  89 c3                    movl     %eax, %ebx
0x000ec043:  e4 92                    inb      $-0x6e, %al
0x000ec045:  88 c1                    movb     %al, %cl
0x000ec047:  88 c2                    movb     %al, %dl
0x000ec049:  d0 ea                    shrb     $1, %dl
0x000ec04b:  83 e2 01                 andl     $1, %edx
0x000ec04e:  84 db                    testb    %bl, %bl
0x000ec050:  0f 95 c0                 setne    %al
0x000ec053:  38 c2                    cmpb     %al, %dl
0x000ec055:  74 07                    je       0xec05e

----------------
IN: 
0x000ec05e:  88 d0                    movb     %dl, %al
0x000ec060:  5b                       popl     %ebx
0x000ec061:  c3                       retl     

----------------
IN: 
0x000f21c9:  0f b6 c0                 movzbl   %al, %eax
0x000f21cc:  89 83 00 04 00 00        movl     %eax, 0x400(%ebx)
0x000f21d2:  eb 4a                    jmp      0xf221e

----------------
IN: 
0x000f7ab4:  89 f8                    movl     %edi, %eax
0x000f7ab6:  ff d6                    calll    *%esi

----------------
IN: 
0x07fbdca7:  55                       pushl    %ebp
0x07fbdca8:  57                       pushl    %edi
0x07fbdca9:  56                       pushl    %esi
0x07fbdcaa:  53                       pushl    %ebx
0x07fbdcab:  83 ec 14                 subl     $0x14, %esp
0x07fbdcae:  89 c3                    movl     %eax, %ebx
0x07fbdcb0:  66 8b 30                 movw     (%eax), %si
0x07fbdcb3:  0f b7 c6                 movzwl   %si, %eax
0x07fbdcb6:  89 44 24 04              movl     %eax, 4(%esp)
0x07fbdcba:  c7 04 24 bd 4d 0f 00     movl     $0xf4dbd, (%esp)
0x07fbdcc1:  e8 ff 05 13 f8           calll    0xee2c5

----------------
IN: 
0x07fbdcc6:  66 83 fe 01              cmpw     $1, %si
0x07fbdcca:  0f 84 6e 01 00 00        je       0x7fbde3e

----------------
IN: 
0x07fbdcd0:  72 1e                    jb       0x7fbdcf0

----------------
IN: 
0x07fbdcf0:  8b 7b 02                 movl     2(%ebx), %edi
0x07fbdcf3:  8b 43 06                 movl     6(%ebx), %eax
0x07fbdcf6:  89 44 24 0c              movl     %eax, 0xc(%esp)
0x07fbdcfa:  66 8b 53 0a              movw     0xa(%ebx), %dx
0x07fbdcfe:  89 d0                    movl     %edx, %eax
0x07fbdd00:  66 83 e0 08              andw     $8, %ax
0x07fbdd04:  66 89 44 24 12           movw     %ax, 0x12(%esp)
0x07fbdd09:  75 0c                    jne      0x7fbdd17

----------------
IN: 
0x07fbdd17:  bd bc fe fb 07           movl     $0x7fbfebc, %ebp
0x07fbdd1c:  b8 c0 fe fb 07           movl     $0x7fbfec0, %eax
0x07fbdd21:  85 ff                    testl    %edi, %edi
0x07fbdd23:  75 46                    jne      0x7fbdd6b

----------------
IN: 
0x07fbdd6b:  c1 e7 04                 shll     $4, %edi
0x07fbdd6e:  85 ff                    testl    %edi, %edi
0x07fbdd70:  0f 8e f6 00 00 00        jle      0x7fbde6c

----------------
IN: 
0x07fbdd76:  be 10 00 00 00           movl     $0x10, %esi
0x07fbdd7b:  f6 c2 04                 testb    $4, %dl
0x07fbdd7e:  74 13                    je       0x7fbdd93

----------------
IN: 
0x07fbdd93:  83 e2 03                 andl     $3, %edx
0x07fbdd96:  66 83 fa 02              cmpw     $2, %dx
0x07fbdd9a:  74 14                    je       0x7fbddb0

----------------
IN: 
0x07fbdd9c:  66 83 fa 03              cmpw     $3, %dx
0x07fbdda0:  74 57                    je       0x7fbddf9

----------------
IN: 
0x07fbdda2:  66 4a                    decw     %dx
0x07fbdda4:  0f 85 c2 00 00 00        jne      0x7fbde6c

----------------
IN: 
0x07fbddaa:  89 f1                    movl     %esi, %ecx
0x07fbddac:  89 fa                    movl     %edi, %edx
0x07fbddae:  eb 5e                    jmp      0x7fbde0e

----------------
IN: 
0x07fbde0e:  e8 42 fa fe ff           calll    0x7fad855

----------------
IN: 
0x07fbde13:  89 c3                    movl     %eax, %ebx
0x07fbde15:  85 db                    testl    %ebx, %ebx
0x07fbde17:  74 5a                    je       0x7fbde73

----------------
IN: 
0x07fbde19:  83 7c 24 0c ff           cmpl     $-1, 0xc(%esp)
0x07fbde1e:  74 53                    je       0x7fbde73

----------------
IN: 
0x07fbde73:  89 d8                    movl     %ebx, %eax
0x07fbde75:  83 c4 14                 addl     $0x14, %esp
0x07fbde78:  5b                       popl     %ebx
0x07fbde79:  5e                       popl     %esi
0x07fbde7a:  5f                       popl     %edi
0x07fbde7b:  5d                       popl     %ebp
0x07fbde7c:  c3                       retl     

----------------
IN: 
0x000f7ab8:  89 c7                    movl     %eax, %edi
0x000f7aba:  b8 b5 00 00 00           movl     $0xb5, %eax
0x000f7abf:  b9 78 56 00 00           movl     $0x5678, %ecx
0x000f7ac4:  bb ce 7a 00 00           movl     $0x7ace, %ebx
0x000f7ac9:  e6 b2                    outb     %al, $0xb2
0x000f7acb:  f3 90                    pause    

----------------
IN: 
0x000f2106:  3d 78 56 00 00           cmpl     $0x5678, %eax
0x000f210b:  0f 85 0d 01 00 00        jne      0xf221e

----------------
IN: 
0x000f2111:  8d 83 00 fe 00 00        leal     0xfe00(%ebx), %eax
0x000f2117:  8d b3 00 02 00 00        leal     0x200(%ebx), %esi
0x000f211d:  b9 80 00 00 00           movl     $0x80, %ecx
0x000f2122:  89 c7                    movl     %eax, %edi
0x000f2124:  f3 a5                    rep movsl (%esi), %es:(%edi)

----------------
IN: 
0x000f2124:  f3 a5                    rep movsl (%esi), %es:(%edi)

----------------
IN: 
0x000f2126:  b1 08                    movb     $8, %cl
0x000f2128:  8b 7c 24 04              movl     4(%esp), %edi
0x000f212c:  89 d6                    movl     %edx, %esi
0x000f212e:  f3 a5                    rep movsl (%esi), %es:(%edi)

----------------
IN: 
0x000f212e:  f3 a5                    rep movsl (%esi), %es:(%edi)

----------------
IN: 
0x000f2130:  83 bb 00 04 00 00 00     cmpl     $0, 0x400(%ebx)
0x000f2137:  75 07                    jne      0xf2140

----------------
IN: 
0x000f2140:  8b 44 24 14              movl     0x14(%esp), %eax
0x000f2144:  89 83 f0 ff 00 00        movl     %eax, 0xfff0(%ebx)
0x000f214a:  e9 cf 00 00 00           jmp      0xf221e

----------------
IN: 
0x000f7ace:  66 89 ec                 movl     %ebp, %esp
0x000f7ad1:  66 e8 d1 f4 ff ff        calll    0xf6fa8

----------------
IN: 
0x000f7ad7:  66 89 f9                 movl     %edi, %ecx
0x000f7ada:  eb 53                    jmp      0x7b2f

----------------
IN: 
0x000f7b2f:  66 89 c8                 movl     %ecx, %eax
0x000f7b32:  66 5b                    popl     %ebx
0x000f7b34:  66 5e                    popl     %esi
0x000f7b36:  66 5f                    popl     %edi
0x000f7b38:  66 5d                    popl     %ebp
0x000f7b3a:  66 c3                    retl     

----------------
IN: 
0x000fd130:  67 89 44 24 1c           movw     %ax, 0x1c(%esp)
0x000fd135:  66 c1 e8 10              shrl     $0x10, %eax
0x000fd139:  67 89 44 24 14           movw     %ax, 0x14(%esp)
0x000fd13e:  1f                       popw     %ds
0x000fd13f:  07                       popw     %es
0x000fd140:  66 5f                    popl     %edi
0x000fd142:  66 5e                    popl     %esi
0x000fd144:  66 5d                    popl     %ebp
0x000fd146:  66 5b                    popl     %ebx
0x000fd148:  66 5a                    popl     %edx
0x000fd14a:  66 59                    popl     %ecx
0x000fd14c:  66 58                    popl     %eax
0x000fd14e:  66 9d                    popfl    

----------------
IN: 
0x000fd150:  66 5c                    popl     %esp
0x000fd152:  cb                       lretw    

----------------
IN: 
0x000c3c11:  66 83 c4 10              addl     $0x10, %esp
0x000c3c15:  fa                       cli      
0x000c3c16:  fc                       cld      
0x000c3c17:  66 89 d3                 movl     %edx, %ebx
0x000c3c1a:  66 c1 e3 10              shll     $0x10, %ebx
0x000c3c1e:  66 0f b7 c0              movzwl   %ax, %eax
0x000c3c22:  66 09 c3                 orl      %eax, %ebx
0x000c3c25:  66 89 d8                 movl     %ebx, %eax
0x000c3c28:  9c                       pushfw   
0x000c3c29:  66 83 c0 ff              addl     $-1, %eax
0x000c3c2d:  9d                       popfw    

----------------
IN: 
0x000c3c2e:  66 83 f8 fd              cmpl     $0xfd, %eax
0x000c3c32:  77 50                    ja       0x3c84

----------------
IN: 
0x000c3c34:  66 85 db                 testl    %ebx, %ebx
0x000c3c37:  74 4b                    je       0x3c84

----------------
IN: 
0x000c3c39:  66 53                    pushl    %ebx
0x000c3c3b:  66 68 bd 57 00 00        pushl    $0x57bd
0x000c3c41:  50                       pushw    %ax
0x000c3c42:  e8 a8 ef                 callw    0x2bed

----------------
IN: 
0x000c3c45:  66 58                    popl     %eax
0x000c3c47:  66 5a                    popl     %edx
0x000c3c49:  8c c8                    movw     %cs, %ax
0x000c3c4b:  8e c0                    movw     %ax, %es
0x000c3c4d:  66 c1 eb 04              shrl     $4, %ebx
0x000c3c51:  26 89 1e 98 95           movw     %bx, %es:0x9598
0x000c3c56:  66 89 c2                 movl     %eax, %edx
0x000c3c59:  66 c1 e2 10              shll     $0x10, %edx
0x000c3c5d:  66 b8 33 55 00 00        movl     $0x5533, %eax
0x000c3c63:  66 0f b7 c0              movzwl   %ax, %eax
0x000c3c67:  66 09 d0                 orl      %edx, %eax
0x000c3c6a:  66 31 d2                 xorl     %edx, %edx
0x000c3c6d:  8e c2                    movw     %dx, %es
0x000c3c6f:  26 66 a3 40 00           movl     %eax, %es:0x40
0x000c3c74:  eb 0e                    jmp      0x3c84

----------------
IN: 
0x000c3c84:  8c c8                    movw     %cs, %ax
0x000c3c86:  8e c0                    movw     %ax, %es
0x000c3c88:  66 ba 01 00 00 00        movl     $1, %edx
0x000c3c8e:  26 66 89 16 90 95        movl     %edx, %es:0x9590
0x000c3c94:  8e c0                    movw     %ax, %es
0x000c3c96:  66 31 d2                 xorl     %edx, %edx
0x000c3c99:  26 88 16 06 00           movb     %dl, %es:6
0x000c3c9e:  2e 8a 0e 02 00           movb     %cs:2, %cl
0x000c3ca3:  66 0f b6 c9              movzbl   %cl, %ecx
0x000c3ca7:  66 c1 e1 09              shll     $9, %ecx
0x000c3cab:  8e c0                    movw     %ax, %es
0x000c3cad:  66 31 c0                 xorl     %eax, %eax
0x000c3cb0:  66 39 c8                 cmpl     %ecx, %eax
0x000c3cb3:  74 0b                    je       0x3cc0

----------------
IN: 
0x000c3cb5:  26 67 8a 18              movb     %es:0(%eax), %bl
0x000c3cb9:  66 01 da                 addl     %ebx, %edx
0x000c3cbc:  66 40                    incl     %eax
0x000c3cbe:  eb f0                    jmp      0x3cb0

----------------
IN: 
0x000c3cb0:  66 39 c8                 cmpl     %ecx, %eax
0x000c3cb3:  74 0b                    je       0x3cc0

----------------
IN: 
0x000c3cc0:  8c c8                    movw     %cs, %ax
0x000c3cc2:  8e c0                    movw     %ax, %es
0x000c3cc4:  66 f7 da                 negl     %edx
0x000c3cc7:  26 88 16 06 00           movb     %dl, %es:6
0x000c3ccc:  8d 66 f4                 leaw     -0xc(%bp), %sp
0x000c3ccf:  66 5b                    popl     %ebx
0x000c3cd1:  66 5e                    popl     %esi
0x000c3cd3:  66 5f                    popl     %edi
0x000c3cd5:  66 5d                    popl     %ebp
0x000c3cd7:  c2 02 00                 retw     $2

----------------
IN: 
0x000c54e7:  66 89 dc                 movl     %ebx, %esp
0x000c54ea:  1f                       popw     %ds
0x000c54eb:  07                       popw     %es
0x000c54ec:  66 5f                    popl     %edi
0x000c54ee:  66 5e                    popl     %esi
0x000c54f0:  66 5d                    popl     %ebp
0x000c54f2:  66 5b                    popl     %ebx
0x000c54f4:  66 5a                    popl     %edx
0x000c54f6:  66 59                    popl     %ecx
0x000c54f8:  66 58                    popl     %eax
0x000c54fa:  cb                       lretw    

----------------
IN: 
0x000ef8b0:  e8 96 e5 ff ff           calll    0xede4b

----------------
IN: 
0x000ede4b:  e8 1d e2 ff ff           calll    0xec06d

----------------
IN: 
0x000ede50:  85 c0                    testl    %eax, %eax
0x000ede52:  75 05                    jne      0xede59

----------------
IN: 
0x000ede54:  e9 b8 ff ff ff           jmp      0xede11

----------------
IN: 
0x000ef8b5:  83 c4 34                 addl     $0x34, %esp
0x000ef8b8:  5b                       popl     %ebx
0x000ef8b9:  5e                       popl     %esi
0x000ef8ba:  5f                       popl     %edi
0x000ef8bb:  c3                       retl     

----------------
IN: 
0x07faed6e:  0f b6 5b 02              movzbl   2(%ebx), %ebx
0x07faed72:  c1 e3 09                 shll     $9, %ebx
0x07faed75:  89 d8                    movl     %ebx, %eax
0x07faed77:  e8 d6 cb ff ff           calll    0x7fab952

----------------
IN: 
0x07faed7c:  85 c0                    testl    %eax, %eax
0x07faed7e:  75 13                    jne      0x7faed93

----------------
IN: 
0x07faed93:  a1 98 fe fb 07           movl     0x7fbfe98, %eax
0x07faed98:  8d 84 03 ff 07 00 00     leal     0x7ff(%ebx, %eax), %eax
0x07faed9f:  25 00 f8 ff ff           andl     $0xfffff800, %eax
0x07faeda4:  a3 98 fe fb 07           movl     %eax, 0x7fbfe98
0x07faeda9:  31 c0                    xorl     %eax, %eax
0x07faedab:  83 c4 2c                 addl     $0x2c, %esp
0x07faedae:  5b                       popl     %ebx
0x07faedaf:  5e                       popl     %esi
0x07faedb0:  5f                       popl     %edi
0x07faedb1:  5d                       popl     %ebp
0x07faedb2:  c3                       retl     

----------------
IN: 
0x07fb245c:  83 c4 28                 addl     $0x28, %esp
0x07fb245f:  5b                       popl     %ebx
0x07fb2460:  5e                       popl     %esi
0x07fb2461:  5f                       popl     %edi
0x07fb2462:  5d                       popl     %ebp
0x07fb2463:  c3                       retl     

----------------
IN: 
0x07fbc78a:  eb 51                    jmp      0x7fbc7dd

----------------
IN: 
0x07fbc7dd:  31 c9                    xorl     %ecx, %ecx
0x07fbc7df:  ba 01 00 00 00           movl     $1, %edx
0x07fbc7e4:  b8 5c 46 0f 00           movl     $0xf465c, %eax
0x07fbc7e9:  e8 c5 25 ff ff           calll    0x7faedb3

----------------
IN: 
0x07faedb3:  55                       pushl    %ebp
0x07faedb4:  57                       pushl    %edi
0x07faedb5:  56                       pushl    %esi
0x07faedb6:  53                       pushl    %ebx
0x07faedb7:  83 ec 08                 subl     $8, %esp
0x07faedba:  89 04 24                 movl     %eax, (%esp)
0x07faedbd:  89 54 24 04              movl     %edx, 4(%esp)
0x07faedc1:  89 ce                    movl     %ecx, %esi
0x07faedc3:  31 db                    xorl     %ebx, %ebx
0x07faedc5:  89 da                    movl     %ebx, %edx
0x07faedc7:  8b 04 24                 movl     (%esp), %eax
0x07faedca:  e8 10 cc ff ff           calll    0x7fab9df

----------------
IN: 
0x07fab9df:  55                       pushl    %ebp
0x07fab9e0:  57                       pushl    %edi
0x07fab9e1:  56                       pushl    %esi
0x07fab9e2:  53                       pushl    %ebx
0x07fab9e3:  89 c6                    movl     %eax, %esi
0x07fab9e5:  89 d7                    movl     %edx, %edi
0x07fab9e7:  e8 a6 07 14 f8           calll    0xec192

----------------
IN: 
0x07fab9ec:  89 c5                    movl     %eax, %ebp
0x07fab9ee:  8b 1d 94 fe fb 07        movl     0x7fbfe94, %ebx
0x07fab9f4:  85 ff                    testl    %edi, %edi
0x07fab9f6:  74 16                    je       0x7faba0e

----------------
IN: 
0x07faba0e:  85 db                    testl    %ebx, %ebx
0x07faba10:  75 ea                    jne      0x7fab9fc

----------------
IN: 
0x07fab9fc:  8d 53 04                 leal     4(%ebx), %edx
0x07fab9ff:  89 e9                    movl     %ebp, %ecx
0x07faba01:  89 f0                    movl     %esi, %eax
0x07faba03:  e8 86 fb ff ff           calll    0x7fab58e

----------------
IN: 
0x07faba08:  85 c0                    testl    %eax, %eax
0x07faba0a:  74 0a                    je       0x7faba16

----------------
IN: 
0x07faba0c:  8b 1b                    movl     (%ebx), %ebx
0x07faba0e:  85 db                    testl    %ebx, %ebx
0x07faba10:  75 ea                    jne      0x7fab9fc

----------------
IN: 
0x07faba12:  31 c0                    xorl     %eax, %eax
0x07faba14:  eb 02                    jmp      0x7faba18

----------------
IN: 
0x07faba18:  5b                       popl     %ebx
0x07faba19:  5e                       popl     %esi
0x07faba1a:  5f                       popl     %edi
0x07faba1b:  5d                       popl     %ebp
0x07faba1c:  c3                       retl     

----------------
IN: 
0x07faedcf:  89 c3                    movl     %eax, %ebx
0x07faedd1:  85 c0                    testl    %eax, %eax
0x07faedd3:  74 2c                    je       0x7faee01

----------------
IN: 
0x07faee01:  83 c4 08                 addl     $8, %esp
0x07faee04:  5b                       popl     %ebx
0x07faee05:  5e                       popl     %esi
0x07faee06:  5f                       popl     %edi
0x07faee07:  5d                       popl     %ebp
0x07faee08:  c3                       retl     

----------------
IN: 
0x07fbc7ee:  31 c0                    xorl     %eax, %eax
0x07fbc7f0:  e8 5d f1 fe ff           calll    0x7fab952

----------------
IN: 
0x07fbc7f5:  81 3d 98 fe fb 07 00 00  cmpl     $0xc0000, 0x7fbfe98
0x07fbc7fd:  0c 00
0x07fbc7ff:  74 0a                    je       0x7fbc80b

----------------
IN: 
0x07fbc801:  c7 05 40 54 0f 00 00 00  movl     $0xc0000, 0xf5440
0x07fbc809:  0c 00
0x07fbc80b:  31 d2                    xorl     %edx, %edx
0x07fbc80d:  31 c9                    xorl     %ecx, %ecx
0x07fbc80f:  b8 d8 44 0f 00           movl     $0xf44d8, %eax
0x07fbc814:  e8 67 07 ff ff           calll    0x7facf80

----------------
IN: 
0x07fbc819:  89 c3                    movl     %eax, %ebx
0x07fbc81b:  66 85 c0                 testw    %ax, %ax
0x07fbc81e:  0f 84 b8 00 00 00        je       0x7fbc8dc

----------------
IN: 
0x07fbc8dc:  e8 d3 51 ff ff           calll    0x7fb1ab4

----------------
IN: 
0x07fb1ab4:  57                       pushl    %edi
0x07fb1ab5:  56                       pushl    %esi
0x07fb1ab6:  53                       pushl    %ebx
0x07fb1ab7:  83 ec 7c                 subl     $0x7c, %esp
0x07fb1aba:  c7 04 24 27 30 0f 00     movl     $0xf3027, (%esp)
0x07fb1ac1:  e8 ff c7 13 f8           calll    0xee2c5

----------------
IN: 
0x07fb1ac6:  b9 26 00 00 00           movl     $0x26, %ecx
0x07fb1acb:  31 d2                    xorl     %edx, %edx
0x07fb1acd:  8d 44 24 56              leal     0x56(%esp), %eax
0x07fb1ad1:  e8 eb a6 13 f8           calll    0xec1c1

----------------
IN: 
0x07fb1ad6:  66 c7 44 24 72 03 00     movw     $3, 0x72(%esp)
0x07fb1add:  8d 44 24 56              leal     0x56(%esp), %eax
0x07fb1ae1:  e8 29 b8 ff ff           calll    0x7fad30f

----------------
IN: 
0x07fad30f:  52                       pushl    %edx
0x07fad310:  66 c7 40 24 00 02        movw     $0x200, 0x24(%eax)
0x07fad316:  89 04 24                 movl     %eax, (%esp)
0x07fad319:  e8 49 05 14 f8           calll    0xed867

----------------
IN: 
0x07fad31e:  ba 89 d0 0f 00           movl     $0xfd089, %edx
0x07fad323:  0f b7 d2                 movzwl   %dx, %edx
0x07fad326:  8b 04 24                 movl     (%esp), %eax
0x07fad329:  e8 cd 0c 14 f8           calll    0xedffb

----------------
IN: 
0x000edffb:  66 89 50 20              movw     %dx, 0x20(%eax)
0x000edfff:  66 c7 40 22 00 f0        movw     $0xf000, 0x22(%eax)
0x000ee005:  0f b7 15 20 c0 0e 00     movzwl   0xec020, %edx
0x000ee00c:  89 d1                    movl     %edx, %ecx
0x000ee00e:  c1 e1 04                 shll     $4, %ecx
0x000ee011:  29 c8                    subl     %ecx, %eax
0x000ee013:  b9 8b 7e 0f 00           movl     $0xf7e8b, %ecx
0x000ee018:  e9 77 fd ff ff           jmp      0xedd94

----------------
IN: 
0x000fd089:  cd 10                    int      $0x10

----------------
IN: 
0x000c5533:  fa                       cli      
0x000c5534:  fc                       cld      
0x000c5535:  1e                       pushw    %ds
0x000c5536:  66 50                    pushl    %eax
0x000c5538:  b8 40 00                 movw     $0x40, %ax
0x000c553b:  8e d8                    movw     %ax, %ds
0x000c553d:  f6 06 b9 00 40           testb    $0x40, 0xb9
0x000c5542:  0f 84 97 00              je       0x55dd

----------------
IN: 
0x000c55dd:  66 58                    popl     %eax
0x000c55df:  1f                       popw     %ds
0x000c55e0:  e9 18 ff                 jmp      0x54fb

----------------
IN: 
0x000c54fb:  fa                       cli      
0x000c54fc:  fc                       cld      
0x000c54fd:  66 50                    pushl    %eax
0x000c54ff:  66 51                    pushl    %ecx
0x000c5501:  66 52                    pushl    %edx
0x000c5503:  66 53                    pushl    %ebx
0x000c5505:  66 55                    pushl    %ebp
0x000c5507:  66 56                    pushl    %esi
0x000c5509:  66 57                    pushl    %edi
0x000c550b:  06                       pushw    %es
0x000c550c:  1e                       pushw    %ds
0x000c550d:  8c d0                    movw     %ss, %ax
0x000c550f:  8e d8                    movw     %ax, %ds
0x000c5511:  66 89 e3                 movl     %esp, %ebx
0x000c5514:  66 0f b7 e4              movzwl   %sp, %esp
0x000c5518:  66 89 e0                 movl     %esp, %eax
0x000c551b:  50                       pushw    %ax
0x000c551c:  e8 ff f1                 callw    0x471e

----------------
IN: 
0x000c471e:  66 55                    pushl    %ebp
0x000c4720:  66 89 e5                 movl     %esp, %ebp
0x000c4723:  66 57                    pushl    %edi
0x000c4725:  66 56                    pushl    %esi
0x000c4727:  66 53                    pushl    %ebx
0x000c4729:  66 83 ec 08              subl     $8, %esp
0x000c472d:  66 89 c3                 movl     %eax, %ebx
0x000c4730:  67 8a 40 1d              movb     0x1d(%eax), %al
0x000c4734:  3c 0b                    cmpb     $0xb, %al
0x000c4736:  0f 84 dc 02              je       0x4a16

----------------
IN: 
0x000c473a:  0f 87 a2 00              ja       0x47e0

----------------
IN: 
0x000c473e:  3c 05                    cmpb     $5, %al
0x000c4740:  0f 84 b3 01              je       0x48f7

----------------
IN: 
0x000c4744:  77 62                    ja       0x47a8

----------------
IN: 
0x000c4746:  3c 02                    cmpb     $2, %al
0x000c4748:  0f 84 73 01              je       0x48bf

----------------
IN: 
0x000c474c:  77 20                    ja       0x476e

----------------
IN: 
0x000c474e:  84 c0                    testb    %al, %al
0x000c4750:  0f 84 14 01              je       0x4868

----------------
IN: 
0x000c4868:  67 8a 43 1c              movb     0x1c(%ebx), %al
0x000c486c:  66 83 e0 7f              andl     $0x7f, %eax
0x000c4870:  66 83 f8 07              cmpl     $7, %eax
0x000c4874:  7e 07                    jle      0x487d

----------------
IN: 
0x000c487d:  66 83 f8 06              cmpl     $6, %eax
0x000c4881:  0f 94 c2                 sete     %dl
0x000c4884:  66 4a                    decl     %edx
0x000c4886:  66 83 e2 f1              andl     $0xfffffff1, %edx
0x000c488a:  66 83 c2 3f              addl     $0x3f, %edx
0x000c488e:  67 88 53 1c              movb     %dl, 0x1c(%ebx)
0x000c4892:  66 ba 40 00 00 00        movl     $0x40, %edx
0x000c4898:  8e c2                    movw     %dx, %es
0x000c489a:  26 8a 16 89 00           movb     %es:0x89, %dl
0x000c489f:  66 83 e2 0a              andl     $0xa, %edx
0x000c48a3:  66 83 ca 01              orl      $1, %edx
0x000c48a7:  67 80 7b 1c 00           cmpb     $0, 0x1c(%ebx)
0x000c48ac:  79 03                    jns      0x48b1

----------------
IN: 
0x000c48b1:  8d 66 f4                 leaw     -0xc(%bp), %sp
0x000c48b4:  66 5b                    popl     %ebx
0x000c48b6:  66 5e                    popl     %esi
0x000c48b8:  66 5f                    popl     %edi
0x000c48ba:  66 5d                    popl     %ebp
0x000c48bc:  e9 58 e8                 jmp      0x3117

----------------
IN: 
0x000c3117:  66 55                    pushl    %ebp
0x000c3119:  66 89 e5                 movl     %esp, %ebp
0x000c311c:  66 57                    pushl    %edi
0x000c311e:  66 56                    pushl    %esi
0x000c3120:  66 53                    pushl    %ebx
0x000c3122:  66 83 ec 20              subl     $0x20, %esp
0x000c3126:  66 89 c6                 movl     %eax, %esi
0x000c3129:  67 66 89 45 f0           movl     %eax, -0x10(%ebp)
0x000c312e:  66 89 d7                 movl     %edx, %edi
0x000c3131:  66 50                    pushl    %eax
0x000c3133:  66 68 9b 56 00 00        pushl    $0x569b
0x000c3139:  50                       pushw    %ax
0x000c313a:  e8 b0 fa                 callw    0x2bed

----------------
IN: 
0x000c313d:  66 5a                    popl     %edx
0x000c313f:  66 59                    popl     %ecx
0x000c3141:  66 89 f0                 movl     %esi, %eax
0x000c3144:  50                       pushw    %ax
0x000c3145:  e8 01 f4                 callw    0x2549

----------------
IN: 
0x000c2549:  66 55                    pushl    %ebp
0x000c254b:  66 89 e5                 movl     %esp, %ebp
0x000c254e:  66 53                    pushl    %ebx
0x000c2550:  2e 66 8b 16 ec 59        movl     %cs:0x59ec, %edx
0x000c2556:  66 85 d2                 testl    %edx, %edx
0x000c2559:  75 08                    jne      0x2563

----------------
IN: 
0x000c2563:  66 ba f0 59 00 00        movl     $0x59f0, %edx
0x000c2569:  2e 67 8b 0a              movw     %cs:0(%edx), %cx
0x000c256d:  66 0f b7 c9              movzwl   %cx, %ecx
0x000c2571:  66 39 c1                 cmpl     %eax, %ecx
0x000c2574:  75 0b                    jne      0x2581

----------------
IN: 
0x000c2581:  66 83 c2 0e              addl     $0xe, %edx
0x000c2585:  66 81 fa c4 5d 00 00     cmpl     $0x5dc4, %edx
0x000c258c:  72 db                    jb       0x2569

----------------
IN: 
0x000c2569:  2e 67 8b 0a              movw     %cs:0(%edx), %cx
0x000c256d:  66 0f b7 c9              movzwl   %cx, %ecx
0x000c2571:  66 39 c1                 cmpl     %eax, %ecx
0x000c2574:  75 0b                    jne      0x2581

----------------
IN: 
0x000c258e:  eb cb                    jmp      0x255b

----------------
IN: 
0x000c255b:  66 ba 20 65 00 00        movl     $0x6520, %edx
0x000c2561:  eb 2d                    jmp      0x2590

----------------
IN: 
0x000c2590:  66 81 fa e0 67 00 00     cmpl     $0x67e0, %edx
0x000c2597:  74 1f                    je       0x25b8

----------------
IN: 
0x000c2599:  66 89 d1                 movl     %edx, %ecx
0x000c259c:  2e 67 8b 1a              movw     %cs:0(%edx), %bx
0x000c25a0:  66 83 c2 2c              addl     $0x2c, %edx
0x000c25a4:  66 0f b7 db              movzwl   %bx, %ebx
0x000c25a8:  66 39 c3                 cmpl     %eax, %ebx
0x000c25ab:  75 e3                    jne      0x2590

----------------
IN: 
0x000c25ad:  66 89 c8                 movl     %ecx, %eax
0x000c25b0:  9c                       pushfw   
0x000c25b1:  66 83 c0 02              addl     $2, %eax
0x000c25b5:  9d                       popfw    

----------------
IN: 
0x000c25b6:  eb 03                    jmp      0x25bb

----------------
IN: 
0x000c25bb:  66 5b                    popl     %ebx
0x000c25bd:  66 5d                    popl     %ebp
0x000c25bf:  c2 02 00                 retw     $2

----------------
IN: 
0x000c3148:  66 89 c3                 movl     %eax, %ebx
0x000c314b:  66 85 c0                 testl    %eax, %eax
0x000c314e:  74 31                    je       0x3181

----------------
IN: 
0x000c3150:  2e 66 a1 ec 59           movl     %cs:0x59ec, %eax
0x000c3155:  66 85 c0                 testl    %eax, %eax
0x000c3158:  74 12                    je       0x316c

----------------
IN: 
0x000c315a:  66 ba ce 01 00 00        movl     $0x1ce, %edx
0x000c3160:  66 b8 04 00 00 00        movl     $4, %eax
0x000c3166:  ef                       outw     %ax, %dx
0x000c3167:  b2 cf                    movb     $0xcf, %dl
0x000c3169:  30 c0                    xorb     %al, %al
0x000c316b:  ef                       outw     %ax, %dx
0x000c316c:  66 81 fb f2 59 00 00     cmpl     $0x59f2, %ebx
0x000c3173:  72 15                    jb       0x318a

----------------
IN: 
0x000c3175:  66 81 fb b8 5d 00 00     cmpl     $0x5db8, %ebx
0x000c317c:  77 0c                    ja       0x318a

----------------
IN: 
0x000c318a:  66 89 fa                 movl     %edi, %edx
0x000c318d:  66 89 d8                 movl     %ebx, %eax
0x000c3190:  50                       pushw    %ax
0x000c3191:  e8 66 fd                 callw    0x2efa

----------------
IN: 
0x000c2efa:  66 55                    pushl    %ebp
0x000c2efc:  66 89 e5                 movl     %esp, %ebp
0x000c2eff:  66 57                    pushl    %edi
0x000c2f01:  66 56                    pushl    %esi
0x000c2f03:  66 53                    pushl    %ebx
0x000c2f05:  66 51                    pushl    %ecx
0x000c2f07:  66 89 c3                 movl     %eax, %ebx
0x000c2f0a:  67 66 89 55 f0           movl     %edx, -0x10(%ebp)
0x000c2f0f:  66 3d 22 65 00 00        cmpl     $0x6522, %eax
0x000c2f15:  0f 82 cf 01              jb       0x30e8

----------------
IN: 
0x000c2f19:  66 3d b6 67 00 00        cmpl     $0x67b6, %eax
0x000c2f1f:  0f 87 c5 01              ja       0x30e8

----------------
IN: 
0x000c2f23:  67 f6 45 f0 08           testb    $8, -0x10(%ebp)
0x000c2f28:  75 73                    jne      0x2f9d

----------------
IN: 
0x000c2f2a:  2e 67 8a 43 0c           movb     %cs:0xc(%ebx), %al
0x000c2f2f:  66 ba c6 03 00 00        movl     $0x3c6, %edx
0x000c2f35:  ee                       outb     %al, %dx
0x000c2f36:  2e 67 66 8b 7b 0e        movl     %cs:0xe(%ebx), %edi
0x000c2f3c:  2e 67 8b 43 12           movw     %cs:0x12(%ebx), %ax
0x000c2f41:  66 b9 03 00 00 00        movl     $3, %ecx
0x000c2f47:  66 31 d2                 xorl     %edx, %edx
0x000c2f4a:  f7 f1                    divw     %cx
0x000c2f4c:  66 0f b7 f0              movzwl   %ax, %esi
0x000c2f50:  8c c8                    movw     %cs, %ax
0x000c2f52:  66 0f b7 c0              movzwl   %ax, %eax
0x000c2f56:  66 56                    pushl    %esi
0x000c2f58:  66 31 c9                 xorl     %ecx, %ecx
0x000c2f5b:  66 89 fa                 movl     %edi, %edx
0x000c2f5e:  50                       pushw    %ax
0x000c2f5f:  e8 9f dd                 callw    0xd01

----------------
IN: 
0x000c0d01:  66 55                    pushl    %ebp
0x000c0d03:  66 89 e5                 movl     %esp, %ebp
0x000c0d06:  66 57                    pushl    %edi
0x000c0d08:  66 56                    pushl    %esi
0x000c0d0a:  66 53                    pushl    %ebx
0x000c0d0c:  66 89 d3                 movl     %edx, %ebx
0x000c0d0f:  67 66 8b 75 08           movl     8(%ebp), %esi
0x000c0d14:  66 89 c7                 movl     %eax, %edi
0x000c0d17:  66 ba c8 03 00 00        movl     $0x3c8, %edx
0x000c0d1d:  88 c8                    movb     %cl, %al
0x000c0d1f:  ee                       outb     %al, %dx
0x000c0d20:  66 85 f6                 testl    %esi, %esi
0x000c0d23:  74 25                    je       0xd4a

----------------
IN: 
0x000c0d25:  8e c7                    movw     %di, %es
0x000c0d27:  26 67 8a 03              movb     %es:0(%ebx), %al
0x000c0d2b:  66 ba c9 03 00 00        movl     $0x3c9, %edx
0x000c0d31:  ee                       outb     %al, %dx
0x000c0d32:  8e c7                    movw     %di, %es
0x000c0d34:  26 67 8a 43 01           movb     %es:1(%ebx), %al
0x000c0d39:  ee                       outb     %al, %dx
0x000c0d3a:  8e c7                    movw     %di, %es
0x000c0d3c:  26 67 8a 43 02           movb     %es:2(%ebx), %al
0x000c0d41:  ee                       outb     %al, %dx
0x000c0d42:  66 83 c3 03              addl     $3, %ebx
0x000c0d46:  66 4e                    decl     %esi
0x000c0d48:  eb d6                    jmp      0xd20

----------------
IN: 
0x000c0d20:  66 85 f6                 testl    %esi, %esi
0x000c0d23:  74 25                    je       0xd4a

----------------
IN: 
0x000c0d4a:  66 5b                    popl     %ebx
0x000c0d4c:  66 5e                    popl     %esi
0x000c0d4e:  66 5f                    popl     %edi
0x000c0d50:  66 5d                    popl     %ebp
0x000c0d52:  c2 02 00                 retw     $2

----------------
IN: 
0x000c2f62:  66 5a                    popl     %edx
0x000c2f64:  66 81 fe ff 00 00 00     cmpl     $0xff, %esi
0x000c2f6b:  7f 1c                    jg       0x2f89

----------------
IN: 
0x000c2f6d:  8c c8                    movw     %cs, %ax
0x000c2f6f:  66 0f b7 c0              movzwl   %ax, %eax
0x000c2f73:  66 6a 01                 pushl    $1
0x000c2f76:  66 89 f1                 movl     %esi, %ecx
0x000c2f79:  66 ba c9 59 00 00        movl     $0x59c9, %edx
0x000c2f7f:  50                       pushw    %ax
0x000c2f80:  e8 7e dd                 callw    0xd01

----------------
IN: 
0x000c2f83:  66 58                    popl     %eax
0x000c2f85:  66 46                    incl     %esi
0x000c2f87:  eb db                    jmp      0x2f64

----------------
IN: 
0x000c2f64:  66 81 fe ff 00 00 00     cmpl     $0xff, %esi
0x000c2f6b:  7f 1c                    jg       0x2f89

----------------
IN: 
0x000c2f89:  67 f6 45 f0 02           testb    $2, -0x10(%ebp)
0x000c2f8e:  74 0d                    je       0x2f9d

----------------
IN: 
0x000c2f9d:  2e 67 66 8b 7b 22        movl     %cs:0x22(%ebx), %edi
0x000c2fa3:  66 31 f6                 xorl     %esi, %esi
0x000c2fa6:  2e 67 8a 14 37           movb     %cs:0(%edi, %esi), %dl
0x000c2fab:  66 0f b6 d2              movzbl   %dl, %edx
0x000c2faf:  66 89 f0                 movl     %esi, %eax
0x000c2fb2:  50                       pushw    %ax
0x000c2fb3:  e8 34 dc                 callw    0xbea

----------------
IN: 
0x000c0bea:  66 55                    pushl    %ebp
0x000c0bec:  66 89 e5                 movl     %esp, %ebp
0x000c0bef:  66 56                    pushl    %esi
0x000c0bf1:  66 53                    pushl    %ebx
0x000c0bf3:  66 89 c6                 movl     %eax, %esi
0x000c0bf6:  66 89 d3                 movl     %edx, %ebx
0x000c0bf9:  66 ba da 03 00 00        movl     $0x3da, %edx
0x000c0bff:  ec                       inb      %dx, %al
0x000c0c00:  b2 c0                    movb     $0xc0, %dl
0x000c0c02:  ec                       inb      %dx, %al
0x000c0c03:  88 c1                    movb     %al, %cl
0x000c0c05:  66 89 f0                 movl     %esi, %eax
0x000c0c08:  ee                       outb     %al, %dx
0x000c0c09:  88 d8                    movb     %bl, %al
0x000c0c0b:  ee                       outb     %al, %dx
0x000c0c0c:  88 c8                    movb     %cl, %al
0x000c0c0e:  ee                       outb     %al, %dx
0x000c0c0f:  66 5b                    popl     %ebx
0x000c0c11:  66 5e                    popl     %esi
0x000c0c13:  66 5d                    popl     %ebp
0x000c0c15:  c2 02 00                 retw     $2

----------------
IN: 
0x000c2fb6:  66 46                    incl     %esi
0x000c2fb8:  66 83 fe 14              cmpl     $0x14, %esi
0x000c2fbc:  75 e8                    jne      0x2fa6

----------------
IN: 
0x000c2fa6:  2e 67 8a 14 37           movb     %cs:0(%edi, %esi), %dl
0x000c2fab:  66 0f b6 d2              movzbl   %dl, %edx
0x000c2faf:  66 89 f0                 movl     %esi, %eax
0x000c2fb2:  50                       pushw    %ax
0x000c2fb3:  e8 34 dc                 callw    0xbea

----------------
IN: 
0x000c2fbe:  66 31 d2                 xorl     %edx, %edx
0x000c2fc1:  66 b8 14 00 00 00        movl     $0x14, %eax
0x000c2fc7:  50                       pushw    %ax
0x000c2fc8:  e8 1f dc                 callw    0xbea

----------------
IN: 
0x000c2fcb:  66 ba c4 03 00 00        movl     $0x3c4, %edx
0x000c2fd1:  66 b8 00 03 00 00        movl     $0x300, %eax
0x000c2fd7:  ef                       outw     %ax, %dx
0x000c2fd8:  2e 67 66 8b 73 16        movl     %cs:0x16(%ebx), %esi
0x000c2fde:  66 b9 01 00 00 00        movl     $1, %ecx
0x000c2fe4:  2e 67 8a 44 0e ff        movb     %cs:-1(%esi, %ecx), %al
0x000c2fea:  66 c1 e0 08              shll     $8, %eax
0x000c2fee:  66 09 c8                 orl      %ecx, %eax
0x000c2ff1:  ef                       outw     %ax, %dx
0x000c2ff2:  66 41                    incl     %ecx
0x000c2ff4:  66 83 f9 05              cmpl     $5, %ecx
0x000c2ff8:  75 ea                    jne      0x2fe4

----------------
IN: 
0x000c2fe4:  2e 67 8a 44 0e ff        movb     %cs:-1(%esi, %ecx), %al
0x000c2fea:  66 c1 e0 08              shll     $8, %eax
0x000c2fee:  66 09 c8                 orl      %ecx, %eax
0x000c2ff1:  ef                       outw     %ax, %dx
0x000c2ff2:  66 41                    incl     %ecx
0x000c2ff4:  66 83 f9 05              cmpl     $5, %ecx
0x000c2ff8:  75 ea                    jne      0x2fe4

----------------
IN: 
0x000c2ffa:  2e 67 66 8b 73 26        movl     %cs:0x26(%ebx), %esi
0x000c3000:  30 c9                    xorb     %cl, %cl
0x000c3002:  66 ba ce 03 00 00        movl     $0x3ce, %edx
0x000c3008:  2e 67 8a 04 0e           movb     %cs:0(%esi, %ecx), %al
0x000c300d:  66 c1 e0 08              shll     $8, %eax
0x000c3011:  66 09 c8                 orl      %ecx, %eax
0x000c3014:  ef                       outw     %ax, %dx
0x000c3015:  66 41                    incl     %ecx
0x000c3017:  66 83 f9 09              cmpl     $9, %ecx
0x000c301b:  75 eb                    jne      0x3008

----------------
IN: 
0x000c3008:  2e 67 8a 04 0e           movb     %cs:0(%esi, %ecx), %al
0x000c300d:  66 c1 e0 08              shll     $8, %eax
0x000c3011:  66 09 c8                 orl      %ecx, %eax
0x000c3014:  ef                       outw     %ax, %dx
0x000c3015:  66 41                    incl     %ecx
0x000c3017:  66 83 f9 09              cmpl     $9, %ecx
0x000c301b:  75 eb                    jne      0x3008

----------------
IN: 
0x000c301d:  2e 67 8a 43 1a           movb     %cs:0x1a(%ebx), %al
0x000c3022:  66 89 c6                 movl     %eax, %esi
0x000c3025:  66 ba b4 03 00 00        movl     $0x3b4, %edx
0x000c302b:  a8 01                    testb    $1, %al
0x000c302d:  74 02                    je       0x3031

----------------
IN: 
0x000c302f:  b2 d4                    movb     $0xd4, %dl
0x000c3031:  66 b8 11 00 00 00        movl     $0x11, %eax
0x000c3037:  ef                       outw     %ax, %dx
0x000c3038:  2e 67 66 8b 7b 1e        movl     %cs:0x1e(%ebx), %edi
0x000c303e:  66 31 c9                 xorl     %ecx, %ecx
0x000c3041:  2e 67 8a 04 0f           movb     %cs:0(%edi, %ecx), %al
0x000c3046:  66 c1 e0 08              shll     $8, %eax
0x000c304a:  66 09 c8                 orl      %ecx, %eax
0x000c304d:  ef                       outw     %ax, %dx
0x000c304e:  66 41                    incl     %ecx
0x000c3050:  66 83 f9 19              cmpl     $0x19, %ecx
0x000c3054:  75 eb                    jne      0x3041

----------------
IN: 
0x000c3041:  2e 67 8a 04 0f           movb     %cs:0(%edi, %ecx), %al
0x000c3046:  66 c1 e0 08              shll     $8, %eax
0x000c304a:  66 09 c8                 orl      %ecx, %eax
0x000c304d:  ef                       outw     %ax, %dx
0x000c304e:  66 41                    incl     %ecx
0x000c3050:  66 83 f9 19              cmpl     $0x19, %ecx
0x000c3054:  75 eb                    jne      0x3041

----------------
IN: 
0x000c3056:  66 ba c2 03 00 00        movl     $0x3c2, %edx
0x000c305c:  66 89 f0                 movl     %esi, %eax
0x000c305f:  ee                       outb     %al, %dx
0x000c3060:  b2 da                    movb     $0xda, %dl
0x000c3062:  ec                       inb      %dx, %al
0x000c3063:  b2 c0                    movb     $0xc0, %dl
0x000c3065:  b0 20                    movb     $0x20, %al
0x000c3067:  ee                       outb     %al, %dx
0x000c3068:  67 66 8b 7d f0           movl     -0x10(%ebp), %edi
0x000c306d:  66 81 e7 00 80 00 00     andl     $0x8000, %edi
0x000c3074:  75 42                    jne      0x30b8

----------------
IN: 
0x000c3076:  2e 67 8a 03              movb     %cs:0(%ebx), %al
0x000c307a:  84 c0                    testb    %al, %al
0x000c307c:  74 13                    je       0x3091

----------------
IN: 
0x000c3091:  2e 67 8b 43 0a           movw     %cs:0xa(%ebx), %ax
0x000c3096:  8e c0                    movw     %ax, %es
0x000c3098:  66 b9 00 40 00 00        movl     $0x4000, %ecx
0x000c309e:  66 b8 20 07 00 00        movl     $0x720, %eax
0x000c30a4:  eb 10                    jmp      0x30b6

----------------
IN: 
0x000c30b6:  f3 ab                    rep stosw %ax, %es:(%di)

----------------
IN: 
0x000c30b8:  2e 67 8a 03              movb     %cs:0(%ebx), %al
0x000c30bc:  66 31 db                 xorl     %ebx, %ebx
0x000c30bf:  84 c0                    testb    %al, %al
0x000c30c1:  75 43                    jne      0x3106

----------------
IN: 
0x000c30c3:  8c c8                    movw     %cs, %ax
0x000c30c5:  66 0f b7 c0              movzwl   %ax, %eax
0x000c30c9:  66 6a 10                 pushl    $0x10
0x000c30cc:  66 6a 00                 pushl    $0
0x000c30cf:  66 6a 00                 pushl    $0
0x000c30d2:  66 b9 00 01 00 00        movl     $0x100, %ecx
0x000c30d8:  66 ba 80 6f 00 00        movl     $0x6f80, %edx
0x000c30de:  50                       pushw    %ax
0x000c30df:  e8 fb d6                 callw    0x7dd

----------------
IN: 
0x000c07dd:  66 55                    pushl    %ebp
0x000c07df:  66 89 e5                 movl     %esp, %ebp
0x000c07e2:  66 57                    pushl    %edi
0x000c07e4:  66 56                    pushl    %esi
0x000c07e6:  66 53                    pushl    %ebx
0x000c07e8:  66 83 ec 10              subl     $0x10, %esp
0x000c07ec:  66 89 d3                 movl     %edx, %ebx
0x000c07ef:  67 66 8b 75 0c           movl     0xc(%ebp), %esi
0x000c07f4:  67 89 45 e6              movw     %ax, -0x1a(%ebp)
0x000c07f8:  67 89 4d e4              movw     %cx, -0x1c(%ebp)
0x000c07fc:  66 ba c4 03 00 00        movl     $0x3c4, %edx
0x000c0802:  66 b8 00 01 00 00        movl     $0x100, %eax
0x000c0808:  ef                       outw     %ax, %dx
0x000c0809:  66 b8 02 04 00 00        movl     $0x402, %eax
0x000c080f:  ef                       outw     %ax, %dx
0x000c0810:  66 b8 04 07 00 00        movl     $0x704, %eax
0x000c0816:  ef                       outw     %ax, %dx
0x000c0817:  66 b8 00 03 00 00        movl     $0x300, %eax
0x000c081d:  ef                       outw     %ax, %dx
0x000c081e:  b2 ce                    movb     $0xce, %dl
0x000c0820:  66 b8 04 02 00 00        movl     $0x204, %eax
0x000c0826:  ef                       outw     %ax, %dx
0x000c0827:  66 b8 05 00 00 00        movl     $5, %eax
0x000c082d:  ef                       outw     %ax, %dx
0x000c082e:  66 b8 06 04 00 00        movl     $0x406, %eax
0x000c0834:  ef                       outw     %ax, %dx
0x000c0835:  67 66 0f b6 45 10        movzbl   0x10(%ebp), %eax
0x000c083b:  67 66 89 45 ec           movl     %eax, -0x14(%ebp)
0x000c0840:  67 66 89 5d f0           movl     %ebx, -0x10(%ebp)
0x000c0845:  66 89 f0                 movl     %esi, %eax
0x000c0848:  66 83 e0 04              andl     $4, %eax
0x000c084c:  66 0f b6 c0              movzbl   %al, %eax
0x000c0850:  66 c1 e0 0b              shll     $0xb, %eax
0x000c0854:  66 c1 e6 0e              shll     $0xe, %esi
0x000c0858:  66 01 c6                 addl     %eax, %esi
0x000c085b:  66 0f b7 f6              movzwl   %si, %esi
0x000c085f:  67 66 0f b7 45 08        movzwl   8(%ebp), %eax
0x000c0865:  66 c1 e0 05              shll     $5, %eax
0x000c0869:  66 01 f0                 addl     %esi, %eax
0x000c086c:  67 66 89 45 e8           movl     %eax, -0x18(%ebp)
0x000c0871:  66 31 db                 xorl     %ebx, %ebx
0x000c0874:  67 3b 5d e4              cmpw     -0x1c(%ebp), %bx
0x000c0878:  74 37                    je       0x8b1

----------------
IN: 
0x000c087a:  66 bf 00 a0 ff ff        movl     $0xffffa000, %edi
0x000c0880:  8e c7                    movw     %di, %es
0x000c0882:  67 66 8b 4d ec           movl     -0x14(%ebp), %ecx
0x000c0887:  67 66 8b 75 f0           movl     -0x10(%ebp), %esi
0x000c088c:  67 66 8b 7d e8           movl     -0x18(%ebp), %edi
0x000c0891:  67 8b 45 e6              movw     -0x1a(%ebp), %ax
0x000c0895:  8c da                    movw     %ds, %dx
0x000c0897:  8e d8                    movw     %ax, %ds
0x000c0899:  f3 a4                    rep movsb (%si), %es:(%di)

----------------
IN: 
0x000c0899:  f3 a4                    rep movsb (%si), %es:(%di)

----------------
IN: 
0x000c089b:  8e da                    movw     %dx, %ds
0x000c089d:  66 43                    incl     %ebx
0x000c089f:  67 66 8b 45 ec           movl     -0x14(%ebp), %eax
0x000c08a4:  67 66 01 45 f0           addl     %eax, -0x10(%ebp)
0x000c08a9:  67 66 83 45 e8 20        addl     $0x20, -0x18(%ebp)
0x000c08af:  eb c3                    jmp      0x874

----------------
IN: 
0x000c0874:  67 3b 5d e4              cmpw     -0x1c(%ebp), %bx
0x000c0878:  74 37                    je       0x8b1

----------------
IN: 
0x000c08b1:  66 ba c4 03 00 00        movl     $0x3c4, %edx
0x000c08b7:  66 b8 00 01 00 00        movl     $0x100, %eax
0x000c08bd:  ef                       outw     %ax, %dx
0x000c08be:  66 b8 02 03 00 00        movl     $0x302, %eax
0x000c08c4:  ef                       outw     %ax, %dx
0x000c08c5:  b0 04                    movb     $4, %al
0x000c08c7:  ef                       outw     %ax, %dx
0x000c08c8:  30 c0                    xorb     %al, %al
0x000c08ca:  ef                       outw     %ax, %dx
0x000c08cb:  b2 cc                    movb     $0xcc, %dl
0x000c08cd:  ec                       inb      %dx, %al
0x000c08ce:  66 b9 0a 00 00 00        movl     $0xa, %ecx
0x000c08d4:  a8 01                    testb    $1, %al
0x000c08d6:  74 02                    je       0x8da

----------------
IN: 
0x000c08d8:  b1 0e                    movb     $0xe, %cl
0x000c08da:  66 89 c8                 movl     %ecx, %eax
0x000c08dd:  66 c1 e0 08              shll     $8, %eax
0x000c08e1:  66 83 c8 06              orl      $6, %eax
0x000c08e5:  66 ba ce 03 00 00        movl     $0x3ce, %edx
0x000c08eb:  ef                       outw     %ax, %dx
0x000c08ec:  66 b8 04 00 00 00        movl     $4, %eax
0x000c08f2:  ef                       outw     %ax, %dx
0x000c08f3:  66 b8 05 10 00 00        movl     $0x1005, %eax
0x000c08f9:  ef                       outw     %ax, %dx
0x000c08fa:  66 83 c4 10              addl     $0x10, %esp
0x000c08fe:  66 5b                    popl     %ebx
0x000c0900:  66 5e                    popl     %esi
0x000c0902:  66 5f                    popl     %edi
0x000c0904:  66 5d                    popl     %ebp
0x000c0906:  c2 02 00                 retw     $2

----------------
IN: 
0x000c30e2:  66 83 c4 0c              addl     $0xc, %esp
0x000c30e6:  eb 1e                    jmp      0x3106

----------------
IN: 
0x000c3106:  66 89 d8                 movl     %ebx, %eax
0x000c3109:  8d 66 f4                 leaw     -0xc(%bp), %sp
0x000c310c:  66 5b                    popl     %ebx
0x000c310e:  66 5e                    popl     %esi
0x000c3110:  66 5f                    popl     %edi
0x000c3112:  66 5d                    popl     %ebp
0x000c3114:  c2 02 00                 retw     $2

----------------
IN: 
0x000c3194:  66 85 c0                 testl    %eax, %eax
0x000c3197:  0f 85 2a 04              jne      0x35c5

----------------
IN: 
0x000c319b:  2e 67 8b 73 02           movw     %cs:2(%ebx), %si
0x000c31a0:  66 0f b7 c6              movzwl   %si, %eax
0x000c31a4:  67 66 89 45 dc           movl     %eax, -0x24(%ebp)
0x000c31a9:  2e 67 8b 43 04           movw     %cs:4(%ebx), %ax
0x000c31ae:  67 89 45 d4              movw     %ax, -0x2c(%ebp)
0x000c31b2:  66 0f b7 c0              movzwl   %ax, %eax
0x000c31b6:  67 66 89 45 d8           movl     %eax, -0x28(%ebp)
0x000c31bb:  2e 67 8a 03              movb     %cs:0(%ebx), %al
0x000c31bf:  67 88 45 d7              movb     %al, -0x29(%ebp)
0x000c31c3:  2e 67 8a 43 08           movb     %cs:8(%ebx), %al
0x000c31c8:  67 88 45 e0              movb     %al, -0x20(%ebp)
0x000c31cc:  66 b8 40 00 00 00        movl     $0x40, %eax
0x000c31d2:  67 66 81 7d f0 ff 00 00  cmpl     $0xff, -0x10(%ebp)
0x000c31da:  00
0x000c31db:  7f 08                    jg       0x31e5

----------------
IN: 
0x000c31dd:  8e c0                    movw     %ax, %es
0x000c31df:  67 8a 45 f0              movb     -0x10(%ebp), %al
0x000c31e3:  eb 04                    jmp      0x31e9

----------------
IN: 
0x000c31e9:  26 a2 49 00              movb     %al, %es:0x49
0x000c31ed:  66 b9 40 00 00 00        movl     $0x40, %ecx
0x000c31f3:  8e c1                    movw     %cx, %es
0x000c31f5:  66 89 f8                 movl     %edi, %eax
0x000c31f8:  25 00 fe                 andw     $0xfe00, %ax
0x000c31fb:  67 66 0b 45 f0           orl      -0x10(%ebp), %eax
0x000c3200:  26 a3 ba 00              movw     %ax, %es:0xba
0x000c3204:  8e c1                    movw     %cx, %es
0x000c3206:  26 89 1e bc 00           movw     %bx, %es:0xbc
0x000c320b:  8e c1                    movw     %cx, %es
0x000c320d:  26 8a 16 b9 00           movb     %es:0xb9, %dl
0x000c3212:  66 83 e2 bf              andl     $0xffffffbf, %edx
0x000c3216:  66 89 f8                 movl     %edi, %eax
0x000c3219:  66 83 e0 01              andl     $1, %eax
0x000c321d:  66 f7 d8                 negl     %eax
0x000c3220:  66 83 e0 40              andl     $0x40, %eax
0x000c3224:  8e c1                    movw     %cx, %es
0x000c3226:  66 09 d0                 orl      %edx, %eax
0x000c3229:  26 a2 b9 00              movb     %al, %es:0xb9
0x000c322d:  67 80 7d d7 00           cmpb     $0, -0x29(%ebp)
0x000c3232:  75 1d                    jne      0x3251

----------------
IN: 
0x000c3234:  8e c1                    movw     %cx, %es
0x000c3236:  26 89 36 4a 00           movw     %si, %es:0x4a
0x000c323b:  8e c1                    movw     %cx, %es
0x000c323d:  67 8a 45 d4              movb     -0x2c(%ebp), %al
0x000c3241:  66 48                    decl     %eax
0x000c3243:  26 a2 84 00              movb     %al, %es:0x84
0x000c3247:  8e c1                    movw     %cx, %es
0x000c3249:  66 b8 07 06 00 00        movl     $0x607, %eax
0x000c324f:  eb 36                    jmp      0x3287

----------------
IN: 
0x000c3287:  26 a3 60 00              movw     %ax, %es:0x60
0x000c328b:  67 66 0f b6 45 d7        movzbl   -0x29(%ebp), %eax
0x000c3291:  67 66 8b 4d d8           movl     -0x28(%ebp), %ecx
0x000c3296:  67 66 8b 55 dc           movl     -0x24(%ebp), %edx
0x000c329b:  50                       pushw    %ax
0x000c329c:  e8 83 cd                 callw    0x22

----------------
IN: 
0x000c329f:  66 bb 40 00 00 00        movl     $0x40, %ebx
0x000c32a5:  8e c3                    movw     %bx, %es
0x000c32a7:  26 a3 4c 00              movw     %ax, %es:0x4c
0x000c32ab:  50                       pushw    %ax
0x000c32ac:  e8 5a d6                 callw    0x909

----------------
IN: 
0x000c0909:  66 55                    pushl    %ebp
0x000c090b:  66 89 e5                 movl     %esp, %ebp
0x000c090e:  66 ba cc 03 00 00        movl     $0x3cc, %edx
0x000c0914:  ec                       inb      %dx, %al
0x000c0915:  66 b9 b4 03 00 00        movl     $0x3b4, %ecx
0x000c091b:  a8 01                    testb    $1, %al
0x000c091d:  74 02                    je       0x921

----------------
IN: 
0x000c091f:  b1 d4                    movb     $0xd4, %cl
0x000c0921:  66 89 c8                 movl     %ecx, %eax
0x000c0924:  66 5d                    popl     %ebp
0x000c0926:  c2 02 00                 retw     $2

----------------
IN: 
0x000c32af:  8e c3                    movw     %bx, %es
0x000c32b1:  26 a3 63 00              movw     %ax, %es:0x63
0x000c32b5:  8e c3                    movw     %bx, %es
0x000c32b7:  67 66 0f b6 45 e0        movzbl   -0x20(%ebp), %eax
0x000c32bd:  26 a3 85 00              movw     %ax, %es:0x85
0x000c32c1:  66 89 f8                 movl     %edi, %eax
0x000c32c4:  66 25 00 80 00 00        andl     $0x8000, %eax
0x000c32ca:  66 83 f8 01              cmpl     $1, %eax
0x000c32ce:  66 19 c0                 sbbl     %eax, %eax
0x000c32d1:  66 83 e0 80              andl     $0xffffff80, %eax
0x000c32d5:  66 83 e8 20              subl     $0x20, %eax
0x000c32d9:  8e c3                    movw     %bx, %es
0x000c32db:  26 a2 87 00              movb     %al, %es:0x87
0x000c32df:  8e c3                    movw     %bx, %es
0x000c32e1:  b0 f9                    movb     $0xf9, %al
0x000c32e3:  26 a2 88 00              movb     %al, %es:0x88
0x000c32e7:  8e c3                    movw     %bx, %es
0x000c32e9:  26 a0 89 00              movb     %es:0x89, %al
0x000c32ed:  8e c3                    movw     %bx, %es
0x000c32ef:  66 83 e0 7f              andl     $0x7f, %eax
0x000c32f3:  26 a2 89 00              movb     %al, %es:0x89
0x000c32f7:  66 31 d2                 xorl     %edx, %edx
0x000c32fa:  66 be 40 00 00 00        movl     $0x40, %esi
0x000c3300:  30 db                    xorb     %bl, %bl
0x000c3302:  66 b9 40 00 00 00        movl     $0x40, %ecx
0x000c3308:  8e c6                    movw     %si, %es
0x000c330a:  66 31 c0                 xorl     %eax, %eax
0x000c330d:  26 67 89 5c 12 50        movw     %bx, %es:0x50(%edx, %edx)
0x000c3313:  66 42                    incl     %edx
0x000c3315:  66 83 fa 08              cmpl     $8, %edx
0x000c3319:  75 e7                    jne      0x3302

----------------
IN: 
0x000c3302:  66 b9 40 00 00 00        movl     $0x40, %ecx
0x000c3308:  8e c6                    movw     %si, %es
0x000c330a:  66 31 c0                 xorl     %eax, %eax
0x000c330d:  26 67 89 5c 12 50        movw     %bx, %es:0x50(%edx, %edx)
0x000c3313:  66 42                    incl     %edx
0x000c3315:  66 83 fa 08              cmpl     $8, %edx
0x000c3319:  75 e7                    jne      0x3302

----------------
IN: 
0x000c331b:  8e c1                    movw     %cx, %es
0x000c331d:  26 a3 4e 00              movw     %ax, %es:0x4e
0x000c3321:  8e c1                    movw     %cx, %es
0x000c3323:  66 31 d2                 xorl     %edx, %edx
0x000c3326:  26 88 16 62 00           movb     %dl, %es:0x62
0x000c332b:  8c c9                    movw     %cs, %cx
0x000c332d:  66 c1 e1 10              shll     $0x10, %ecx
0x000c3331:  66 ba 80 91 00 00        movl     $0x9180, %edx
0x000c3337:  66 0f b7 d2              movzwl   %dx, %edx
0x000c333b:  66 09 ca                 orl      %ecx, %edx
0x000c333e:  8e c0                    movw     %ax, %es
0x000c3340:  26 66 89 16 7c 00        movl     %edx, %es:0x7c
0x000c3346:  67 8a 5d e0              movb     -0x20(%ebp), %bl
0x000c334a:  80 fb 0e                 cmpb     $0xe, %bl
0x000c334d:  74 18                    je       0x3367

----------------
IN: 
0x000c334f:  80 fb 10                 cmpb     $0x10, %bl
0x000c3352:  74 30                    je       0x3384

----------------
IN: 
0x000c3384:  8c c9                    movw     %cs, %cx
0x000c3386:  66 c1 e1 10              shll     $0x10, %ecx
0x000c338a:  66 ba 80 6f 00 00        movl     $0x6f80, %edx
0x000c3390:  eb e1                    jmp      0x3373

----------------
IN: 
0x000c3373:  66 0f b7 d2              movzwl   %dx, %edx
0x000c3377:  66 09 ca                 orl      %ecx, %edx
0x000c337a:  8e c0                    movw     %ax, %es
0x000c337c:  26 66 89 16 0c 01        movl     %edx, %es:0x10c
0x000c3382:  eb 0e                    jmp      0x3392

----------------
IN: 
0x000c3392:  66 31 c0                 xorl     %eax, %eax
0x000c3395:  e9 2d 02                 jmp      0x35c5

----------------
IN: 
0x000c35c5:  8d 66 f4                 leaw     -0xc(%bp), %sp
0x000c35c8:  66 5b                    popl     %ebx
0x000c35ca:  66 5e                    popl     %esi
0x000c35cc:  66 5f                    popl     %edi
0x000c35ce:  66 5d                    popl     %ebp
0x000c35d0:  c2 02 00                 retw     $2

----------------
IN: 
0x000c551f:  66 89 dc                 movl     %ebx, %esp
0x000c5522:  1f                       popw     %ds
0x000c5523:  07                       popw     %es
0x000c5524:  66 5f                    popl     %edi
0x000c5526:  66 5e                    popl     %esi
0x000c5528:  66 5d                    popl     %ebp
0x000c552a:  66 5b                    popl     %ebx
0x000c552c:  66 5a                    popl     %edx
0x000c552e:  66 59                    popl     %ecx
0x000c5530:  66 58                    popl     %eax
0x000c5532:  cf                       iretw    

----------------
IN: 
0x000fd08b:  cb                       lretw    

----------------
IN: 
0x07fad32e:  59                       popl     %ecx
0x07fad32f:  e9 17 0b 14 f8           jmp      0xede4b

----------------
IN: 
0x07fb1ae6:  c7 44 24 04 58 51 0f 00  movl     $0xf5158, 4(%esp)
0x07fb1aee:  c7 04 24 d4 22 0f 00     movl     $0xf22d4, (%esp)
0x07fb1af5:  e8 ec e7 13 f8           calll    0xf02e6

----------------
IN: 
0x000f02e6:  8d 4c 24 08              leal     8(%esp), %ecx
0x000f02ea:  8b 54 24 04              movl     4(%esp), %edx
0x000f02ee:  b8 00 51 0f 00           movl     $0xf5100, %eax
0x000f02f3:  e8 22 d8 ff ff           calll    0xedb1a

----------------
IN: 
0x000ee05e:  53                       pushl    %ebx
0x000ee05f:  89 d3                    movl     %edx, %ebx
0x000ee061:  83 3d 44 54 0f 00 00     cmpl     $0, 0xf5444
0x000ee068:  74 0a                    je       0xee074

----------------
IN: 
0x000ee06a:  66 8b 15 7c 5f 0f 00     movw     0xf5f7c, %dx
0x000ee071:  88 d8                    movb     %bl, %al
0x000ee073:  ee                       outb     %al, %dx
0x000ee074:  80 fb 0a                 cmpb     $0xa, %bl
0x000ee077:  75 0a                    jne      0xee083

----------------
IN: 
0x000ee083:  0f be c3                 movsbl   %bl, %eax
0x000ee086:  5b                       popl     %ebx
0x000ee087:  e9 91 ff ff ff           jmp      0xee01d

----------------
IN: 
0x000ee01d:  53                       pushl    %ebx
0x000ee01e:  83 ec 28                 subl     $0x28, %esp
0x000ee021:  89 c3                    movl     %eax, %ebx
0x000ee023:  b9 26 00 00 00           movl     $0x26, %ecx
0x000ee028:  31 d2                    xorl     %edx, %edx
0x000ee02a:  8d 44 24 02              leal     2(%esp), %eax
0x000ee02e:  e8 8e e1 ff ff           calll    0xec1c1

----------------
IN: 
0x000ee033:  66 c7 44 24 26 00 02     movw     $0x200, 0x26(%esp)
0x000ee03a:  c6 44 24 1f 0e           movb     $0xe, 0x1f(%esp)
0x000ee03f:  88 5c 24 1e              movb     %bl, 0x1e(%esp)
0x000ee043:  c6 44 24 12 07           movb     $7, 0x12(%esp)
0x000ee048:  ba 89 d0 0f 00           movl     $0xfd089, %edx
0x000ee04d:  0f b7 d2                 movzwl   %dx, %edx
0x000ee050:  8d 44 24 02              leal     2(%esp), %eax
0x000ee054:  e8 a2 ff ff ff           calll    0xedffb

----------------
IN: 
0x000c5546:  2e 8e 1e 98 95           movw     %cs:0x9598, %ds
0x000c554b:  66 b8 d0 01 00 00        movl     $0x1d0, %eax
0x000c5551:  67 66 8f 40 1c           popl     0x1c(%eax)
0x000c5556:  67 8f 00                 popw     (%eax)
0x000c5559:  67 66 89 78 04           movl     %edi, 4(%eax)
0x000c555e:  67 66 89 70 08           movl     %esi, 8(%eax)
0x000c5563:  67 66 89 68 0c           movl     %ebp, 0xc(%eax)
0x000c5568:  67 66 89 58 10           movl     %ebx, 0x10(%eax)
0x000c556d:  67 66 89 50 14           movl     %edx, 0x14(%eax)
0x000c5572:  67 66 89 48 18           movl     %ecx, 0x18(%eax)
0x000c5577:  67 8c 40 02              movw     %es, 2(%eax)
0x000c557b:  67 66 89 60 28           movl     %esp, 0x28(%eax)
0x000c5580:  67 8c 50 2c              movw     %ss, 0x2c(%eax)
0x000c5584:  67 66 8f 40 20           popl     0x20(%eax)
0x000c5589:  67 8f 40 24              popw     0x24(%eax)
0x000c558d:  8c da                    movw     %ds, %dx
0x000c558f:  8e d2                    movw     %dx, %ss

----------------
IN: 
0x000c5591:  66 89 c4                 movl     %eax, %esp

----------------
IN: 
0x000c5594:  50                       pushw    %ax
0x000c5595:  e8 86 f1                 callw    0x471e

----------------
IN: 
0x000c47e0:  3c 11                    cmpb     $0x11, %al
0x000c47e2:  0f 84 ba 05              je       0x4da0

----------------
IN: 
0x000c47e6:  77 3a                    ja       0x4822

----------------
IN: 
0x000c47e8:  3c 0e                    cmpb     $0xe, %al
0x000c47ea:  0f 84 e2 02              je       0x4ad0

----------------
IN: 
0x000c4ad0:  67 8a 53 1c              movb     0x1c(%ebx), %dl
0x000c4ad4:  67 8a 43 10              movb     0x10(%ebx), %al
0x000c4ad8:  8d 66 f4                 leaw     -0xc(%bp), %sp
0x000c4adb:  66 5b                    popl     %ebx
0x000c4add:  66 5e                    popl     %esi
0x000c4adf:  66 5f                    popl     %edi
0x000c4ae1:  66 5d                    popl     %ebp
0x000c4ae3:  e9 49 d9                 jmp      0x242f

----------------
IN: 
0x000c242f:  66 55                    pushl    %ebp
0x000c2431:  66 89 e5                 movl     %esp, %ebp
0x000c2434:  66 53                    pushl    %ebx
0x000c2436:  66 83 ec 08              subl     $8, %esp
0x000c243a:  88 c3                    movb     %al, %bl
0x000c243c:  67 66 89 55 f4           movl     %edx, -0xc(%ebp)
0x000c2441:  66 b8 40 00 00 00        movl     $0x40, %eax
0x000c2447:  8e c0                    movw     %ax, %es
0x000c2449:  26 a0 62 00              movb     %es:0x62, %al
0x000c244d:  66 0f b6 c0              movzbl   %al, %eax
0x000c2451:  50                       pushw    %ax
0x000c2452:  e8 6d eb                 callw    0xfc2

----------------
IN: 
0x000c0fc2:  66 55                    pushl    %ebp
0x000c0fc4:  66 89 e5                 movl     %esp, %ebp
0x000c0fc7:  3c 07                    cmpb     $7, %al
0x000c0fc9:  76 05                    jbe      0xfd0

----------------
IN: 
0x000c0fd0:  66 ba 40 00 00 00        movl     $0x40, %edx
0x000c0fd6:  8e c2                    movw     %dx, %es
0x000c0fd8:  66 0f b6 d0              movzbl   %al, %edx
0x000c0fdc:  26 67 8b 4c 12 50        movw     %es:0x50(%edx, %edx), %cx
0x000c0fe2:  66 31 c0                 xorl     %eax, %eax
0x000c0fe5:  88 c8                    movb     %cl, %al
0x000c0fe7:  c1 e9 08                 shrw     $8, %cx
0x000c0fea:  88 cc                    movb     %cl, %ah
0x000c0fec:  66 c1 e2 10              shll     $0x10, %edx
0x000c0ff0:  66 0f b7 c0              movzwl   %ax, %eax
0x000c0ff4:  66 09 d0                 orl      %edx, %eax
0x000c0ff7:  66 5d                    popl     %ebp
0x000c0ff9:  c2 02 00                 retw     $2

----------------
IN: 
0x000c2455:  67 66 89 45 f8           movl     %eax, -8(%ebp)
0x000c245a:  66 6a 00                 pushl    $0
0x000c245d:  88 d9                    movb     %bl, %cl
0x000c245f:  67 66 8b 55 f4           movl     -0xc(%ebp), %edx
0x000c2464:  66 89 e8                 movl     %ebp, %eax
0x000c2467:  9c                       pushfw   
0x000c2468:  66 83 c0 f8              addl     $-8, %eax
0x000c246c:  9d                       popfw    

----------------
IN: 
0x000c246d:  50                       pushw    %ax
0x000c246e:  e8 06 ff                 callw    0x2377

----------------
IN: 
0x000c2377:  66 55                    pushl    %ebp
0x000c2379:  66 89 e5                 movl     %esp, %ebp
0x000c237c:  66 57                    pushl    %edi
0x000c237e:  66 56                    pushl    %esi
0x000c2380:  66 53                    pushl    %ebx
0x000c2382:  66 89 c3                 movl     %eax, %ebx
0x000c2385:  80 fa 08                 cmpb     $8, %dl
0x000c2388:  74 19                    je       0x23a3

----------------
IN: 
0x000c238a:  77 07                    ja       0x2393

----------------
IN: 
0x000c2393:  80 fa 0a                 cmpb     $0xa, %dl
0x000c2396:  74 19                    je       0x23b1

----------------
IN: 
0x000c2398:  80 fa 0d                 cmpb     $0xd, %dl
0x000c239b:  75 1a                    jne      0x23b7

----------------
IN: 
0x000c23b7:  67 8a 45 08              movb     8(%ebp), %al
0x000c23bb:  66 50                    pushl    %eax
0x000c23bd:  66 89 d8                 movl     %ebx, %eax
0x000c23c0:  50                       pushw    %ax
0x000c23c1:  e8 cb fc                 callw    0x208f

----------------
IN: 
0x000c208f:  66 55                    pushl    %ebp
0x000c2091:  66 89 e5                 movl     %esp, %ebp
0x000c2094:  66 57                    pushl    %edi
0x000c2096:  66 56                    pushl    %esi
0x000c2098:  66 53                    pushl    %ebx
0x000c209a:  66 53                    pushl    %ebx
0x000c209c:  66 89 c3                 movl     %eax, %ebx
0x000c209f:  67 88 55 f3              movb     %dl, -0xd(%ebp)
0x000c20a3:  66 89 cf                 movl     %ecx, %edi
0x000c20a6:  67 8a 00                 movb     (%eax), %al
0x000c20a9:  67 88 45 f2              movb     %al, -0xe(%ebp)
0x000c20ad:  67 8a 53 01              movb     1(%ebx), %dl
0x000c20b1:  67 8a 4b 02              movb     2(%ebx), %cl
0x000c20b5:  66 b8 40 00 00 00        movl     $0x40, %eax
0x000c20bb:  8e c0                    movw     %ax, %es
0x000c20bd:  26 8b 36 bc 00           movw     %es:0xbc, %si
0x000c20c2:  66 0f b7 f6              movzwl   %si, %esi
0x000c20c6:  66 85 f6                 testl    %esi, %esi
0x000c20c9:  74 59                    je       0x2124

----------------
IN: 
0x000c20cb:  2e 67 8a 06              movb     %cs:0(%esi), %al
0x000c20cf:  84 c0                    testb    %al, %al
0x000c20d1:  74 1b                    je       0x20ee

----------------
IN: 
0x000c20ee:  67 8a 45 f2              movb     -0xe(%ebp), %al
0x000c20f2:  50                       pushw    %ax
0x000c20f3:  e8 06 ef                 callw    0xffc

----------------
IN: 
0x000c0ffc:  66 55                    pushl    %ebp
0x000c0ffe:  66 89 e5                 movl     %esp, %ebp
0x000c1001:  66 56                    pushl    %esi
0x000c1003:  66 53                    pushl    %ebx
0x000c1005:  66 bb 40 00 00 00        movl     $0x40, %ebx
0x000c100b:  8e c3                    movw     %bx, %es
0x000c100d:  26 8b 36 4a 00           movw     %es:0x4a, %si
0x000c1012:  8e c3                    movw     %bx, %es
0x000c1014:  26 8b 1e 4c 00           movw     %es:0x4c, %bx
0x000c1019:  66 0f b7 db              movzwl   %bx, %ebx
0x000c101d:  66 0f b6 c9              movzbl   %cl, %ecx
0x000c1021:  66 0f af d9              imull    %ecx, %ebx
0x000c1025:  66 0f b6 c0              movzbl   %al, %eax
0x000c1029:  9c                       pushfw   
0x000c102a:  66 d1 e0                 shll     $1, %eax
0x000c102d:  66 01 d8                 addl     %ebx, %eax
0x000c1030:  9d                       popfw    

----------------
IN: 
0x000c1031:  66 0f b6 d2              movzbl   %dl, %edx
0x000c1035:  66 0f b7 ce              movzwl   %si, %ecx
0x000c1039:  66 01 c9                 addl     %ecx, %ecx
0x000c103c:  66 0f af d1              imull    %ecx, %edx
0x000c1040:  66 01 d0                 addl     %edx, %eax
0x000c1043:  66 5b                    popl     %ebx
0x000c1045:  66 5e                    popl     %esi
0x000c1047:  66 5d                    popl     %ebp
0x000c1049:  c2 02 00                 retw     $2

----------------
IN: 
0x000c20f6:  2e 67 8b 56 0a           movw     %cs:0xa(%esi), %dx
0x000c20fb:  67 80 7d 08 00           cmpb     $0, 8(%ebp)
0x000c2100:  74 18                    je       0x211a

----------------
IN: 
0x000c211a:  8e c2                    movw     %dx, %es
0x000c211c:  67 8a 4d f3              movb     -0xd(%ebp), %cl
0x000c2120:  26 67 88 08              movb     %cl, %es:0(%eax)
0x000c2124:  67 8a 03                 movb     (%ebx), %al
0x000c2127:  66 40                    incl     %eax
0x000c2129:  67 88 03                 movb     %al, (%ebx)
0x000c212c:  66 ba 40 00 00 00        movl     $0x40, %edx
0x000c2132:  8e c2                    movw     %dx, %es
0x000c2134:  26 8b 16 4a 00           movw     %es:0x4a, %dx
0x000c2139:  66 0f b6 c0              movzbl   %al, %eax
0x000c213d:  39 d0                    cmpw     %dx, %ax
0x000c213f:  75 08                    jne      0x2149

----------------
IN: 
0x000c2149:  8d 66 f4                 leaw     -0xc(%bp), %sp
0x000c214c:  66 5b                    popl     %ebx
0x000c214e:  66 5e                    popl     %esi
0x000c2150:  66 5f                    popl     %edi
0x000c2152:  66 5d                    popl     %ebp
0x000c2154:  c2 02 00                 retw     $2

----------------
IN: 
0x000c23c4:  66 58                    popl     %eax
0x000c23c6:  66 b8 40 00 00 00        movl     $0x40, %eax
0x000c23cc:  8e c0                    movw     %ax, %es
0x000c23ce:  26 8a 0e 84 00           movb     %es:0x84, %cl
0x000c23d3:  66 89 ce                 movl     %ecx, %esi
0x000c23d6:  67 8a 53 01              movb     1(%ebx), %dl
0x000c23da:  38 d1                    cmpb     %dl, %cl
0x000c23dc:  73 43                    jae      0x2421

----------------
IN: 
0x000c2421:  8d 66 f4                 leaw     -0xc(%bp), %sp
0x000c2424:  66 5b                    popl     %ebx
0x000c2426:  66 5e                    popl     %esi
0x000c2428:  66 5f                    popl     %edi
0x000c242a:  66 5d                    popl     %ebp
0x000c242c:  c2 02 00                 retw     $2

----------------
IN: 
0x000c2471:  66 5b                    popl     %ebx
0x000c2473:  67 8a 4d fa              movb     -6(%ebp), %cl
0x000c2477:  67 8a 55 f9              movb     -7(%ebp), %dl
0x000c247b:  67 8a 45 f8              movb     -8(%ebp), %al
0x000c247f:  50                       pushw    %ax
0x000c2480:  e8 c9 eb                 callw    0x104c

----------------
IN: 
0x000c104c:  66 55                    pushl    %ebp
0x000c104e:  66 89 e5                 movl     %esp, %ebp
0x000c1051:  66 57                    pushl    %edi
0x000c1053:  66 56                    pushl    %esi
0x000c1055:  66 53                    pushl    %ebx
0x000c1057:  66 53                    pushl    %ebx
0x000c1059:  67 88 45 f3              movb     %al, -0xd(%ebp)
0x000c105d:  66 0f b6 d9              movzbl   %cl, %ebx
0x000c1061:  80 fb 07                 cmpb     $7, %bl
0x000c1064:  77 6d                    ja       0x10d3

----------------
IN: 
0x000c1066:  66 89 d6                 movl     %edx, %esi
0x000c1069:  66 b8 40 00 00 00        movl     $0x40, %eax
0x000c106f:  8e c0                    movw     %ax, %es
0x000c1071:  26 a0 62 00              movb     %es:0x62, %al
0x000c1075:  38 c3                    cmpb     %al, %bl
0x000c1077:  75 3f                    jne      0x10b8

----------------
IN: 
0x000c1079:  88 d9                    movb     %bl, %cl
0x000c107b:  67 8a 45 f3              movb     -0xd(%ebp), %al
0x000c107f:  50                       pushw    %ax
0x000c1080:  e8 79 ff                 callw    0xffc

----------------
IN: 
0x000c1083:  66 89 c7                 movl     %eax, %edi
0x000c1086:  50                       pushw    %ax
0x000c1087:  e8 7f f8                 callw    0x909

----------------
IN: 
0x000c108a:  66 89 c1                 movl     %eax, %ecx
0x000c108d:  66 89 f8                 movl     %edi, %eax
0x000c1090:  66 bf 02 00 00 00        movl     $2, %edi
0x000c1096:  66 99                    cltd     
0x000c1098:  66 f7 ff                 idivl    %edi
0x000c109b:  66 89 c7                 movl     %eax, %edi
0x000c109e:  66 25 00 ff 00 00        andl     $0xff00, %eax
0x000c10a4:  66 83 c8 0e              orl      $0xe, %eax
0x000c10a8:  66 89 ca                 movl     %ecx, %edx
0x000c10ab:  ef                       outw     %ax, %dx
0x000c10ac:  66 89 f8                 movl     %edi, %eax
0x000c10af:  66 c1 e0 08              shll     $8, %eax
0x000c10b3:  66 83 c8 0f              orl      $0xf, %eax
0x000c10b7:  ef                       outw     %ax, %dx
0x000c10b8:  66 b8 40 00 00 00        movl     $0x40, %eax
0x000c10be:  8e c0                    movw     %ax, %es
0x000c10c0:  66 c1 e6 08              shll     $8, %esi
0x000c10c4:  67 66 0f b6 45 f3        movzbl   -0xd(%ebp), %eax
0x000c10ca:  66 09 c6                 orl      %eax, %esi
0x000c10cd:  26 67 89 74 1b 50        movw     %si, %es:0x50(%ebx, %ebx)
0x000c10d3:  66 58                    popl     %eax
0x000c10d5:  66 5b                    popl     %ebx
0x000c10d7:  66 5e                    popl     %esi
0x000c10d9:  66 5f                    popl     %edi
0x000c10db:  66 5d                    popl     %ebp
0x000c10dd:  c2 02 00                 retw     $2

----------------
IN: 
0x000c2483:  67 66 8b 5d fc           movl     -4(%ebp), %ebx
0x000c2488:  66 89 ec                 movl     %ebp, %esp
0x000c248b:  66 5d                    popl     %ebp
0x000c248d:  c2 02 00                 retw     $2

----------------
IN: 
0x000c5598:  66 89 e0                 movl     %esp, %eax
0x000c559b:  67 8e 50 2c              movw     0x2c(%eax), %ss

----------------
IN: 
0x000c559f:  67 66 8b 60 28           movl     0x28(%eax), %esp

----------------
IN: 
0x000c55a4:  66 5a                    popl     %edx
0x000c55a6:  5a                       popw     %dx
0x000c55a7:  67 ff 70 24              pushw    0x24(%eax)
0x000c55ab:  67 66 ff 70 20           pushl    0x20(%eax)
0x000c55b0:  67 66 8b 78 04           movl     4(%eax), %edi
0x000c55b5:  67 66 8b 70 08           movl     8(%eax), %esi
0x000c55ba:  67 66 8b 68 0c           movl     0xc(%eax), %ebp
0x000c55bf:  67 66 8b 58 10           movl     0x10(%eax), %ebx
0x000c55c4:  67 66 8b 50 14           movl     0x14(%eax), %edx
0x000c55c9:  67 66 8b 48 18           movl     0x18(%eax), %ecx
0x000c55ce:  67 8e 40 02              movw     2(%eax), %es
0x000c55d2:  67 66 ff 70 1c           pushl    0x1c(%eax)
0x000c55d7:  67 8e 18                 movw     (%eax), %ds
0x000c55da:  66 58                    popl     %eax
0x000c55dc:  cf                       iretw    

----------------
IN: 
0x000ee059:  83 c4 28                 addl     $0x28, %esp
0x000ee05c:  5b                       popl     %ebx
0x000ee05d:  c3                       retl     

----------------
IN: 
0x000ee079:  b8 0d 00 00 00           movl     $0xd, %eax
0x000ee07e:  e8 9a ff ff ff           calll    0xee01d

----------------
IN: 
0x000c239d:  67 c6 00 00              movb     $0, (%eax)
0x000c23a1:  eb 23                    jmp      0x23c6

----------------
IN: 
0x000c23c6:  66 b8 40 00 00 00        movl     $0x40, %eax
0x000c23cc:  8e c0                    movw     %ax, %es
0x000c23ce:  26 8a 0e 84 00           movb     %es:0x84, %cl
0x000c23d3:  66 89 ce                 movl     %ecx, %esi
0x000c23d6:  67 8a 53 01              movb     1(%ebx), %dl
0x000c23da:  38 d1                    cmpb     %dl, %cl
0x000c23dc:  73 43                    jae      0x2421

----------------
IN: 
0x000c23b1:  67 fe 40 01              incb     1(%eax)
0x000c23b5:  eb 0f                    jmp      0x23c6

----------------
IN: 
0x000f02f8:  c3                       retl     

----------------
IN: 
0x07fb1afa:  8b 35 44 ff fb 07        movl     0x7fbff44, %esi
0x07fb1b00:  31 d2                    xorl     %edx, %edx
0x07fb1b02:  89 f0                    movl     %esi, %eax
0x07fb1b04:  e8 c2 a3 ff ff           calll    0x7fabecb

----------------
IN: 
0x07fb1b09:  89 c3                    movl     %eax, %ebx
0x07fb1b0b:  85 c0                    testl    %eax, %eax
0x07fb1b0d:  0f 84 5a 01 00 00        je       0x7fb1c6d

----------------
IN: 
0x07fb1b13:  80 3b 01                 cmpb     $1, (%ebx)
0x07fb1b16:  0f 85 4a 01 00 00        jne      0x7fb1c66

----------------
IN: 
0x07fb1c66:  89 da                    movl     %ebx, %edx
0x07fb1c68:  e9 95 fe ff ff           jmp      0x7fb1b02

----------------
IN: 
0x07fb1b02:  89 f0                    movl     %esi, %eax
0x07fb1b04:  e8 c2 a3 ff ff           calll    0x7fabecb

----------------
IN: 
0x07fb1b1c:  0f b6 43 01              movzbl   1(%ebx), %eax
0x07fb1b20:  83 f8 17                 cmpl     $0x17, %eax
0x07fb1b23:  0f 8e 3d 01 00 00        jle      0x7fb1c66

----------------
IN: 
0x07fb1b29:  8d 7c 24 46              leal     0x46(%esp), %edi
0x07fb1b2d:  b9 04 00 00 00           movl     $4, %ecx
0x07fb1b32:  31 c0                    xorl     %eax, %eax
0x07fb1b34:  f3 ab                    rep stosl %eax, %es:(%edi)

----------------
IN: 
0x07fb1b34:  f3 ab                    rep stosl %eax, %es:(%edi)

----------------
IN: 
0x07fb1b36:  8d 43 08                 leal     8(%ebx), %eax
0x07fb1b39:  b1 10                    movb     $0x10, %cl
0x07fb1b3b:  8d 54 24 46              leal     0x46(%esp), %edx
0x07fb1b3f:  e8 4a 9a ff ff           calll    0x7fab58e

----------------
IN: 
0x07fb1b44:  85 c0                    testl    %eax, %eax
0x07fb1b46:  0f 84 21 01 00 00        je       0x7fb1c6d

----------------
IN: 
0x07fb1c6d:  83 c4 7c                 addl     $0x7c, %esp
0x07fb1c70:  5b                       popl     %ebx
0x07fb1c71:  5e                       popl     %esi
0x07fb1c72:  5f                       popl     %edi
0x07fb1c73:  c3                       retl     

----------------
IN: 
0x07fbc8e1:  e8 87 f7 12 f8           calll    0xec06d

----------------
IN: 
0x07fbc8e6:  85 c0                    testl    %eax, %eax
0x07fbc8e8:  75 0a                    jne      0x7fbc8f4

----------------
IN: 
0x07fbc8ea:  e8 76 61 ff ff           calll    0x7fb2a65

----------------
IN: 
0x07fb2a65:  55                       pushl    %ebp
0x07fb2a66:  57                       pushl    %edi
0x07fb2a67:  56                       pushl    %esi
0x07fb2a68:  53                       pushl    %ebx
0x07fb2a69:  83 ec 38                 subl     $0x38, %esp
0x07fb2a6c:  ba 64 00 00 00           movl     $0x64, %edx
0x07fb2a71:  31 c9                    xorl     %ecx, %ecx
0x07fb2a73:  b8 f7 32 0f 00           movl     $0xf32f7, %eax
0x07fb2a78:  e8 03 a5 ff ff           calll    0x7facf80

----------------
IN: 
0x07fb2a7d:  a3 68 ff fb 07           movl     %eax, 0x7fbff68
0x07fb2a82:  a1 38 fe fb 07           movl     0x7fbfe38, %eax
0x07fb2a87:  8d 70 fc                 leal     -4(%eax), %esi
0x07fb2a8a:  83 fe fc                 cmpl     $0xfc, %esi
0x07fb2a8d:  0f 84 35 02 00 00        je       0x7fb2cc8

----------------
IN: 
0x07fb2a93:  0f b7 46 14              movzwl   0x14(%esi), %eax
0x07fb2a97:  c1 e0 08                 shll     $8, %eax
0x07fb2a9a:  0f b6 56 16              movzbl   0x16(%esi), %edx
0x07fb2a9e:  09 d0                    orl      %edx, %eax
0x07fb2aa0:  3d 30 03 0c 00           cmpl     $0xc0330, %eax
0x07fb2aa5:  0f 85 12 02 00 00        jne      0x7fb2cbd

----------------
IN: 
0x07fb2cbd:  8b 76 04                 movl     4(%esi), %esi
0x07fb2cc0:  83 ee 04                 subl     $4, %esi
0x07fb2cc3:  e9 c2 fd ff ff           jmp      0x7fb2a8a

----------------
IN: 
0x07fb2a8a:  83 fe fc                 cmpl     $0xfc, %esi
0x07fb2a8d:  0f 84 35 02 00 00        je       0x7fb2cc8

----------------
IN: 
0x07fb2cc8:  a1 38 fe fb 07           movl     0x7fbfe38, %eax
0x07fb2ccd:  8d 58 fc                 leal     -4(%eax), %ebx
0x07fb2cd0:  83 fb fc                 cmpl     $0xfc, %ebx
0x07fb2cd3:  0f 84 bd 00 00 00        je       0x7fb2d96

----------------
IN: 
0x07fb2cd9:  0f b7 43 14              movzwl   0x14(%ebx), %eax
0x07fb2cdd:  c1 e0 08                 shll     $8, %eax
0x07fb2ce0:  0f b6 53 16              movzbl   0x16(%ebx), %edx
0x07fb2ce4:  09 d0                    orl      %edx, %eax
0x07fb2ce6:  3d 20 03 0c 00           cmpl     $0xc0320, %eax
0x07fb2ceb:  0f 85 9a 00 00 00        jne      0x7fb2d8b

----------------
IN: 
0x07fb2d8b:  8b 5b 04                 movl     4(%ebx), %ebx
0x07fb2d8e:  83 eb 04                 subl     $4, %ebx
0x07fb2d91:  e9 3a ff ff ff           jmp      0x7fb2cd0

----------------
IN: 
0x07fb2cd0:  83 fb fc                 cmpl     $0xfc, %ebx
0x07fb2cd3:  0f 84 bd 00 00 00        je       0x7fb2d96

----------------
IN: 
0x07fb2d96:  a1 38 fe fb 07           movl     0x7fbfe38, %eax
0x07fb2d9b:  8d 58 fc                 leal     -4(%eax), %ebx
0x07fb2d9e:  83 fb fc                 cmpl     $0xfc, %ebx
0x07fb2da1:  0f 84 d0 00 00 00        je       0x7fb2e77

----------------
IN: 
0x07fb2da7:  0f b7 43 14              movzwl   0x14(%ebx), %eax
0x07fb2dab:  c1 e0 08                 shll     $8, %eax
0x07fb2dae:  0f b6 53 16              movzbl   0x16(%ebx), %edx
0x07fb2db2:  09 d0                    orl      %edx, %eax
0x07fb2db4:  3d 00 03 0c 00           cmpl     $0xc0300, %eax
0x07fb2db9:  0f 85 ad 00 00 00        jne      0x7fb2e6c

----------------
IN: 
0x07fb2e6c:  8b 5b 04                 movl     4(%ebx), %ebx
0x07fb2e6f:  83 eb 04                 subl     $4, %ebx
0x07fb2e72:  e9 27 ff ff ff           jmp      0x7fb2d9e

----------------
IN: 
0x07fb2d9e:  83 fb fc                 cmpl     $0xfc, %ebx
0x07fb2da1:  0f 84 d0 00 00 00        je       0x7fb2e77

----------------
IN: 
0x07fb2e77:  a1 38 fe fb 07           movl     0x7fbfe38, %eax
0x07fb2e7c:  8d 58 fc                 leal     -4(%eax), %ebx
0x07fb2e7f:  83 fb fc                 cmpl     $0xfc, %ebx
0x07fb2e82:  0f 84 a7 00 00 00        je       0x7fb2f2f

----------------
IN: 
0x07fb2e88:  0f b7 43 14              movzwl   0x14(%ebx), %eax
0x07fb2e8c:  c1 e0 08                 shll     $8, %eax
0x07fb2e8f:  0f b6 53 16              movzbl   0x16(%ebx), %edx
0x07fb2e93:  09 d0                    orl      %edx, %eax
0x07fb2e95:  3d 10 03 0c 00           cmpl     $0xc0310, %eax
0x07fb2e9a:  0f 85 84 00 00 00        jne      0x7fb2f24

----------------
IN: 
0x07fb2f24:  8b 5b 04                 movl     4(%ebx), %ebx
0x07fb2f27:  83 eb 04                 subl     $4, %ebx
0x07fb2f2a:  e9 50 ff ff ff           jmp      0x7fb2e7f

----------------
IN: 
0x07fb2e7f:  83 fb fc                 cmpl     $0xfc, %ebx
0x07fb2e82:  0f 84 a7 00 00 00        je       0x7fb2f2f

----------------
IN: 
0x07fb2f2f:  b8 02 00 00 00           movl     $2, %eax
0x07fb2f34:  e8 e7 9b ff ff           calll    0x7facb20

----------------
IN: 
0x07fb2f39:  b8 87 e9 0f 00           movl     $0xfe987, %eax
0x07fb2f3e:  66 a3 24 00 00 00        movw     %ax, 0x24
0x07fb2f44:  66 c7 05 26 00 00 00 00  movw     $0xf000, 0x26
0x07fb2f4c:  f0
0x07fb2f4d:  b8 00 10 00 00           movl     $0x1000, %eax
0x07fb2f52:  e8 c9 9b ff ff           calll    0x7facb20

----------------
IN: 
0x07fb2f57:  b8 60 d4 0f 00           movl     $0xfd460, %eax
0x07fb2f5c:  66 a3 d0 01 00 00        movw     %ax, 0x1d0
0x07fb2f62:  66 c7 05 d2 01 00 00 00  movw     $0xf000, 0x1d2
0x07fb2f6a:  f0
0x07fb2f6b:  31 d2                    xorl     %edx, %edx
0x07fb2f6d:  b8 ea 08 fb 07           movl     $0x7fb08ea, %eax
0x07fb2f72:  e8 a5 a9 ff ff           calll    0x7fad91c

----------------
IN: 
0x07fad91c:  55                       pushl    %ebp
0x07fad91d:  57                       pushl    %edi
0x07fad91e:  56                       pushl    %esi
0x07fad91f:  53                       pushl    %ebx
0x07fad920:  89 c7                    movl     %eax, %edi
0x07fad922:  89 d5                    movl     %edx, %ebp
0x07fad924:  80 3d 58 54 0f 00 00     cmpb     $0, 0xf5458
0x07fad92b:  74 6b                    je       0x7fad998

----------------
IN: 
0x07fad92d:  b9 00 10 00 00           movl     $0x1000, %ecx
0x07fad932:  ba 00 10 00 00           movl     $0x1000, %edx
0x07fad937:  b8 b0 fe fb 07           movl     $0x7fbfeb0, %eax
0x07fad93c:  e8 d5 fe ff ff           calll    0x7fad816

----------------
IN: 
0x07fad941:  89 c3                    movl     %eax, %ebx
0x07fad943:  85 c0                    testl    %eax, %eax
0x07fad945:  74 51                    je       0x7fad998

----------------
IN: 
0x07fad947:  8d 80 00 10 00 00        leal     0x1000(%eax), %eax
0x07fad94d:  89 03                    movl     %eax, (%ebx)
0x07fad94f:  89 e0                    movl     %esp, %eax
0x07fad951:  be a8 60 0f 00           movl     $0xf60a8, %esi
0x07fad956:  3d 00 00 10 00           cmpl     $0x100000, %eax
0x07fad95b:  76 07                    jbe      0x7fad964

----------------
IN: 
0x07fad964:  8d 56 04                 leal     4(%esi), %edx
0x07fad967:  8d 43 04                 leal     4(%ebx), %eax
0x07fad96a:  e8 00 dc ff ff           calll    0x7fab56f

----------------
IN: 
0x07fad96f:  89 e8                    movl     %ebp, %eax
0x07fad971:  89 f9                    movl     %edi, %ecx
0x07fad973:  89 f2                    movl     %esi, %edx
0x07fad975:  68 96 d9 fa 07           pushl    $0x7fad996
0x07fad97a:  55                       pushl    %ebp
0x07fad97b:  89 22                    movl     %esp, (%edx)
0x07fad97d:  8b 23                    movl     (%ebx), %esp
0x07fad97f:  ff d1                    calll    *%ecx

----------------
IN: 
0x07fb08ea:  56                       pushl    %esi
0x07fb08eb:  53                       pushl    %ebx
0x07fb08ec:  83 ec 0c                 subl     $0xc, %esp
0x07fb08ef:  e8 fd d7 ff ff           calll    0x7fae0f1

----------------
IN: 
0x07fae0f1:  53                       pushl    %ebx
0x07fae0f2:  bb 10 00 00 00           movl     $0x10, %ebx
0x07fae0f7:  e4 64                    inb      $0x64, %al
0x07fae0f9:  a8 01                    testb    $1, %al
0x07fae0fb:  74 23                    je       0x7fae120

----------------
IN: 
0x07fae120:  31 c0                    xorl     %eax, %eax
0x07fae122:  5b                       popl     %ebx
0x07fae123:  c3                       retl     

----------------
IN: 
0x07fb08f4:  85 c0                    testl    %eax, %eax
0x07fb08f6:  0f 85 3a 01 00 00        jne      0x7fb0a36

----------------
IN: 
0x07fb08fc:  31 d2                    xorl     %edx, %edx
0x07fb08fe:  b0 ad                    movb     $0xad, %al
0x07fb0900:  e8 6c d7 ff ff           calll    0x7fae071

----------------
IN: 
0x07fae071:  55                       pushl    %ebp
0x07fae072:  57                       pushl    %edi
0x07fae073:  56                       pushl    %esi
0x07fae074:  53                       pushl    %ebx
0x07fae075:  89 c6                    movl     %eax, %esi
0x07fae077:  89 d7                    movl     %edx, %edi
0x07fae079:  e8 a7 03 14 f8           calll    0xee425

----------------
IN: 
0x000ee425:  53                       pushl    %ebx
0x000ee426:  bb 10 27 00 00           movl     $0x2710, %ebx
0x000ee42b:  e4 64                    inb      $0x64, %al
0x000ee42d:  a8 02                    testb    $2, %al
0x000ee42f:  74 21                    je       0xee452

----------------
IN: 
0x000ee452:  31 c0                    xorl     %eax, %eax
0x000ee454:  5b                       popl     %ebx
0x000ee455:  c3                       retl     

----------------
IN: 
0x07fae07e:  85 c0                    testl    %eax, %eax
0x07fae080:  75 6a                    jne      0x7fae0ec

----------------
IN: 
0x07fae082:  89 f0                    movl     %esi, %eax
0x07fae084:  0f b6 c0                 movzbl   %al, %eax
0x07fae087:  e6 64                    outb     %al, $0x64
0x07fae089:  89 f5                    movl     %esi, %ebp
0x07fae08b:  c1 fd 0c                 sarl     $0xc, %ebp
0x07fae08e:  83 e5 0f                 andl     $0xf, %ebp
0x07fae091:  31 db                    xorl     %ebx, %ebx
0x07fae093:  39 eb                    cmpl     %ebp, %ebx
0x07fae095:  7d 11                    jge      0x7fae0a8

----------------
IN: 
0x07fae0a8:  c1 fe 08                 sarl     $8, %esi
0x07fae0ab:  83 e6 0f                 andl     $0xf, %esi
0x07fae0ae:  31 db                    xorl     %ebx, %ebx
0x07fae0b0:  39 f3                    cmpl     %esi, %ebx
0x07fae0b2:  7d 2c                    jge      0x7fae0e0

----------------
IN: 
0x07fae0e0:  31 c0                    xorl     %eax, %eax
0x07fae0e2:  eb 08                    jmp      0x7fae0ec

----------------
IN: 
0x07fae0ec:  5b                       popl     %ebx
0x07fae0ed:  5e                       popl     %esi
0x07fae0ee:  5f                       popl     %edi
0x07fae0ef:  5d                       popl     %ebp
0x07fae0f0:  c3                       retl     

----------------
IN: 
0x07fb0905:  85 c0                    testl    %eax, %eax
0x07fb0907:  0f 85 29 01 00 00        jne      0x7fb0a36

----------------
IN: 
0x07fb090d:  31 d2                    xorl     %edx, %edx
0x07fb090f:  b0 a7                    movb     $0xa7, %al
0x07fb0911:  e8 5b d7 ff ff           calll    0x7fae071

----------------
IN: 
0x07fb0916:  85 c0                    testl    %eax, %eax
0x07fb0918:  0f 85 18 01 00 00        jne      0x7fb0a36

----------------
IN: 
0x07fb091e:  e8 ce d7 ff ff           calll    0x7fae0f1

----------------
IN: 
0x07fb0923:  85 c0                    testl    %eax, %eax
0x07fb0925:  0f 85 0b 01 00 00        jne      0x7fb0a36

----------------
IN: 
0x07fb092b:  8d 54 24 0a              leal     0xa(%esp), %edx
0x07fb092f:  66 b8 aa 01              movw     $0x1aa, %ax
0x07fb0933:  e8 39 d7 ff ff           calll    0x7fae071

----------------
IN: 
0x07fae0b4:  bd 10 27 00 00           movl     $0x2710, %ebp
0x07fae0b9:  e4 64                    inb      $0x64, %al
0x07fae0bb:  a8 01                    testb    $1, %al
0x07fae0bd:  75 25                    jne      0x7fae0e4

----------------
IN: 
0x07fae0e4:  e4 60                    inb      $0x60, %al
0x07fae0e6:  88 04 1f                 movb     %al, (%edi, %ebx)
0x07fae0e9:  43                       incl     %ebx
0x07fae0ea:  eb c4                    jmp      0x7fae0b0

----------------
IN: 
0x07fae0b0:  39 f3                    cmpl     %esi, %ebx
0x07fae0b2:  7d 2c                    jge      0x7fae0e0

----------------
IN: 
0x07fb0938:  85 c0                    testl    %eax, %eax
0x07fb093a:  0f 85 f6 00 00 00        jne      0x7fb0a36

----------------
IN: 
0x07fb0940:  0f b6 44 24 0a           movzbl   0xa(%esp), %eax
0x07fb0945:  3c 55                    cmpb     $0x55, %al
0x07fb0947:  74 0d                    je       0x7fb0956

----------------
IN: 
0x07fb0956:  8d 54 24 0a              leal     0xa(%esp), %edx
0x07fb095a:  b8 ab 01 00 00           movl     $0x1ab, %eax
0x07fb095f:  e8 0d d7 ff ff           calll    0x7fae071

----------------
IN: 
0x07fb0964:  85 c0                    testl    %eax, %eax
0x07fb0966:  0f 85 ca 00 00 00        jne      0x7fb0a36

----------------
IN: 
0x07fb096c:  0f b6 44 24 0a           movzbl   0xa(%esp), %eax
0x07fb0971:  84 c0                    testb    %al, %al
0x07fb0973:  74 15                    je       0x7fb098a

----------------
IN: 
0x07fb098a:  31 d2                    xorl     %edx, %edx
0x07fb098c:  31 c9                    xorl     %ecx, %ecx
0x07fb098e:  b8 ff 2c 0f 00           movl     $0xf2cff, %eax
0x07fb0993:  e8 e8 c5 ff ff           calll    0x7facf80

----------------
IN: 
0x07fb0998:  89 c3                    movl     %eax, %ebx
0x07fb099a:  e8 ba cf 13 f8           calll    0xed959

----------------
IN: 
0x000ed959:  53                       pushl    %ebx
0x000ed95a:  89 c3                    movl     %eax, %ebx
0x000ed95c:  e8 84 ff ff ff           calll    0xed8e5

----------------
IN: 
0x000ed8e5:  66 8b 15 80 5f 0f 00     movw     0xf5f80, %dx
0x000ed8ec:  66 85 d2                 testw    %dx, %dx
0x000ed8ef:  75 18                    jne      0xed909

----------------
IN: 
0x000ed909:  66 83 fa 40              cmpw     $0x40, %dx
0x000ed90d:  8b 0d b4 b7 0e 00        movl     0xeb7b4, %ecx
0x000ed913:  74 1b                    je       0xed930

----------------
IN: 
0x000ed915:  ed                       inl      %dx, %eax
0x000ed916:  25 ff ff ff 00           andl     $0xffffff, %eax
0x000ed91b:  89 ca                    movl     %ecx, %edx
0x000ed91d:  81 e2 00 00 00 ff        andl     $0xff000000, %edx
0x000ed923:  09 d0                    orl      %edx, %eax
0x000ed925:  39 c8                    cmpl     %ecx, %eax
0x000ed927:  73 2a                    jae      0xed953

----------------
IN: 
0x000ed953:  a3 b4 b7 0e 00           movl     %eax, 0xeb7b4
0x000ed958:  c3                       retl     

----------------
IN: 
0x000ed961:  0f af 1d 84 5f 0f 00     imull    0xf5f84, %ebx
0x000ed968:  01 d8                    addl     %ebx, %eax
0x000ed96a:  5b                       popl     %ebx
0x000ed96b:  c3                       retl     

----------------
IN: 
0x07fb099f:  89 c6                    movl     %eax, %esi
0x07fb09a1:  8d 54 24 0a              leal     0xa(%esp), %edx
0x07fb09a5:  b8 ff 01 00 00           movl     $0x1ff, %eax
0x07fb09aa:  e8 88 fd ff ff           calll    0x7fb0737

----------------
IN: 
0x07fb0737:  55                       pushl    %ebp
0x07fb0738:  57                       pushl    %edi
0x07fb0739:  56                       pushl    %esi
0x07fb073a:  53                       pushl    %ebx
0x07fb073b:  83 ec 08                 subl     $8, %esp
0x07fb073e:  89 c7                    movl     %eax, %edi
0x07fb0740:  89 d6                    movl     %edx, %esi
0x07fb0742:  a0 ac b7 0e 00           movb     0xeb7ac, %al
0x07fb0747:  88 44 24 06              movb     %al, 6(%esp)
0x07fb074b:  83 e0 cc                 andl     $0xffffffcc, %eax
0x07fb074e:  83 c8 30                 orl      $0x30, %eax
0x07fb0751:  88 44 24 07              movb     %al, 7(%esp)
0x07fb0755:  8d 54 24 07              leal     7(%esp), %edx
0x07fb0759:  b8 60 10 00 00           movl     $0x1060, %eax
0x07fb075e:  e8 0e d9 ff ff           calll    0x7fae071

----------------
IN: 
0x07fae097:  e8 89 03 14 f8           calll    0xee425

----------------
IN: 
0x07fae09c:  85 c0                    testl    %eax, %eax
0x07fae09e:  75 4c                    jne      0x7fae0ec

----------------
IN: 
0x07fae0a0:  8a 04 1f                 movb     (%edi, %ebx), %al
0x07fae0a3:  e6 60                    outb     %al, $0x60
0x07fae0a5:  43                       incl     %ebx
0x07fae0a6:  eb eb                    jmp      0x7fae093

----------------
IN: 
0x07fae093:  39 eb                    cmpl     %ebp, %ebx
0x07fae095:  7d 11                    jge      0x7fae0a8

----------------
IN: 
0x07fb0763:  85 c0                    testl    %eax, %eax
0x07fb0765:  0f 85 73 01 00 00        jne      0x7fb08de

----------------
IN: 
0x07fb076b:  e8 a1 d6 13 f8           calll    0xede11

----------------
IN: 
0x000ede1a:  25 00 f0 ff ff           andl     $0xfffff000, %eax
0x000ede1f:  3d a8 60 0f 00           cmpl     $0xf60a8, %eax
0x000ede24:  75 20                    jne      0xede46

----------------
IN: 
0x000ede46:  e9 3a e2 ff ff           jmp      0xec085

----------------
IN: 
0x000ec08f:  57                       pushl    %edi
0x000ec090:  56                       pushl    %esi
0x000ec091:  53                       pushl    %ebx
0x000ec092:  68 9e c0 0e 00           pushl    $0xec09e
0x000ec097:  55                       pushl    %ebp
0x000ec098:  89 20                    movl     %esp, (%eax)
0x000ec09a:  8b 21                    movl     (%ecx), %esp
0x000ec09c:  5d                       popl     %ebp
0x000ec09d:  c3                       retl     

----------------
IN: 
0x07fad996:  eb 04                    jmp      0x7fad99c

----------------
IN: 
0x07fad99c:  5b                       popl     %ebx
0x07fad99d:  5e                       popl     %esi
0x07fad99e:  5f                       popl     %edi
0x07fad99f:  5d                       popl     %ebp
0x07fad9a0:  c3                       retl     

----------------
IN: 
0x07fb2f77:  ba c7 ef 0f 00           movl     $0xfefc7, %edx
0x07fb2f7c:  b8 64 5f 0f 00           movl     $0xf5f64, %eax
0x07fb2f81:  b9 0b 00 00 00           movl     $0xb, %ecx
0x07fb2f86:  89 d7                    movl     %edx, %edi
0x07fb2f88:  89 c6                    movl     %eax, %esi
0x07fb2f8a:  f3 a4                    rep movsb (%esi), %es:(%edi)

----------------
IN: 
0x07fb2f8a:  f3 a4                    rep movsb (%esi), %es:(%edi)

----------------
IN: 
0x07fb2f8c:  66 a3 78 00 00 00        movw     %ax, 0x78
0x07fb2f92:  66 c7 05 7a 00 00 00 00  movw     $0xf000, 0x7a
0x07fb2f9a:  f0
0x07fb2f9b:  b0 90                    movb     $0x90, %al
0x07fb2f9d:  e6 70                    outb     %al, $0x70
0x07fb2f9f:  e4 71                    inb      $0x71, %al
0x07fb2fa1:  88 44 24 28              movb     %al, 0x28(%esp)
0x07fb2fa5:  a8 f0                    testb    $0xf0, %al
0x07fb2fa7:  74 0f                    je       0x7fb2fb8

----------------
IN: 
0x07fb2fa9:  88 c2                    movb     %al, %dl
0x07fb2fab:  c0 ea 04                 shrb     $4, %dl
0x07fb2fae:  0f b6 d2                 movzbl   %dl, %edx
0x07fb2fb1:  31 c0                    xorl     %eax, %eax
0x07fb2fb3:  e8 e6 f9 ff ff           calll    0x7fb299e

----------------
IN: 
0x07fb299e:  57                       pushl    %edi
0x07fb299f:  56                       pushl    %esi
0x07fb29a0:  53                       pushl    %ebx
0x07fb29a1:  81 ec 14 01 00 00        subl     $0x114, %esp
0x07fb29a7:  89 c3                    movl     %eax, %ebx
0x07fb29a9:  e8 27 d2 ff ff           calll    0x7fafbd5

----------------
IN: 
0x07fafbd5:  57                       pushl    %edi
0x07fafbd6:  56                       pushl    %esi
0x07fafbd7:  53                       pushl    %ebx
0x07fafbd8:  83 ec 08                 subl     $8, %esp
0x07fafbdb:  89 c7                    movl     %eax, %edi
0x07fafbdd:  89 d6                    movl     %edx, %esi
0x07fafbdf:  8d 42 ff                 leal     -1(%edx), %eax
0x07fafbe2:  83 f8 07                 cmpl     $7, %eax
0x07fafbe5:  76 12                    jbe      0x7fafbf9

----------------
IN: 
0x07fafbf9:  b8 24 00 00 00           movl     $0x24, %eax
0x07fafbfe:  e8 80 dc ff ff           calll    0x7fad883

----------------
IN: 
0x07fafc03:  89 c3                    movl     %eax, %ebx
0x07fafc05:  85 c0                    testl    %eax, %eax
0x07fafc07:  75 13                    jne      0x7fafc1c

----------------
IN: 
0x07fafc1c:  b9 24 00 00 00           movl     $0x24, %ecx
0x07fafc21:  31 d2                    xorl     %edx, %edx
0x07fafc23:  e8 99 c5 13 f8           calll    0xec1c1

----------------
IN: 
0x07fafc28:  89 7b 14                 movl     %edi, 0x14(%ebx)
0x07fafc2b:  c6 03 10                 movb     $0x10, (%ebx)
0x07fafc2e:  66 c7 43 1a 00 02        movw     $0x200, 0x1a(%ebx)
0x07fafc34:  89 f0                    movl     %esi, %eax
0x07fafc36:  88 43 01                 movb     %al, 1(%ebx)
0x07fafc39:  c7 43 0c ff ff ff ff     movl     $0xffffffff, 0xc(%ebx)
0x07fafc40:  c7 43 10 ff ff ff ff     movl     $0xffffffff, 0x10(%ebx)
0x07fafc47:  6b f6 0a                 imull    $0xa, %esi, %esi
0x07fafc4a:  8b 86 08 5f 0f 00        movl     0xf5f08(%esi), %eax
0x07fafc50:  89 43 02                 movl     %eax, 2(%ebx)
0x07fafc53:  8b 86 0c 5f 0f 00        movl     0xf5f0c(%esi), %eax
0x07fafc59:  89 43 06                 movl     %eax, 6(%ebx)
0x07fafc5c:  89 d8                    movl     %ebx, %eax
0x07fafc5e:  83 c4 08                 addl     $8, %esp
0x07fafc61:  5b                       popl     %ebx
0x07fafc62:  5e                       popl     %esi
0x07fafc63:  5f                       popl     %edi
0x07fafc64:  c3                       retl     

----------------
IN: 
0x07fb29ae:  89 c6                    movl     %eax, %esi
0x07fb29b0:  85 c0                    testl    %eax, %eax
0x07fb29b2:  0f 84 a3 00 00 00        je       0x7fb2a5b

----------------
IN: 
0x07fb29b8:  8d 43 41                 leal     0x41(%ebx), %eax
0x07fb29bb:  89 44 24 08              movl     %eax, 8(%esp)
0x07fb29bf:  c7 44 24 04 cd 32 0f 00  movl     $0xf32cd, 4(%esp)
0x07fb29c7:  c7 04 24 50 00 00 00     movl     $0x50, (%esp)
0x07fb29ce:  e8 62 ff ff ff           calll    0x7fb2935

----------------
IN: 
0x07fb2935:  56                       pushl    %esi
0x07fb2936:  53                       pushl    %ebx
0x07fb2937:  83 ec 0c                 subl     $0xc, %esp
0x07fb293a:  8b 74 24 18              movl     0x18(%esp), %esi
0x07fb293e:  85 f6                    testl    %esi, %esi
0x07fb2940:  74 54                    je       0x7fb2996

----------------
IN: 
0x07fb2942:  89 f0                    movl     %esi, %eax
0x07fb2944:  e8 8a af ff ff           calll    0x7fad8d3

----------------
IN: 
0x07fb2949:  89 c3                    movl     %eax, %ebx
0x07fb294b:  85 c0                    testl    %eax, %eax
0x07fb294d:  75 11                    jne      0x7fb2960

----------------
IN: 
0x07fb2960:  c7 04 24 80 b5 fa 07     movl     $0x7fab580, (%esp)
0x07fb2967:  89 44 24 04              movl     %eax, 4(%esp)
0x07fb296b:  01 c6                    addl     %eax, %esi
0x07fb296d:  89 74 24 08              movl     %esi, 8(%esp)
0x07fb2971:  8d 4c 24 20              leal     0x20(%esp), %ecx
0x07fb2975:  8b 54 24 1c              movl     0x1c(%esp), %edx
0x07fb2979:  89 e0                    movl     %esp, %eax
0x07fb297b:  e8 9a b1 13 f8           calll    0xedb1a

----------------
IN: 
0x000edb98:  3c 2e                    cmpb     $0x2e, %al
0x000edb9a:  0f 84 76 01 00 00        je       0xedd16

----------------
IN: 
0x000edba0:  3c 63                    cmpb     $0x63, %al
0x000edba2:  0f 84 5e 01 00 00        je       0xedd06

----------------
IN: 
0x000edd06:  8d 7d 04                 leal     4(%ebp), %edi
0x000edd09:  0f be 55 00              movsbl   (%ebp), %edx
0x000edd0d:  89 d8                    movl     %ebx, %eax
0x000edd0f:  e8 99 e3 ff ff           calll    0xec0ad

----------------
IN: 
0x000edd14:  eb 52                    jmp      0xedd68

----------------
IN: 
0x07fb2980:  8b 44 24 04              movl     4(%esp), %eax
0x07fb2984:  8b 54 24 08              movl     8(%esp), %edx
0x07fb2988:  39 d0                    cmpl     %edx, %eax
0x07fb298a:  72 03                    jb       0x7fb298f

----------------
IN: 
0x07fb298f:  c6 00 00                 movb     $0, (%eax)
0x07fb2992:  89 d8                    movl     %ebx, %eax
0x07fb2994:  eb 02                    jmp      0x7fb2998

----------------
IN: 
0x07fb2998:  83 c4 0c                 addl     $0xc, %esp
0x07fb299b:  5b                       popl     %ebx
0x07fb299c:  5e                       popl     %esi
0x07fb299d:  c3                       retl     

----------------
IN: 
0x07fb29d3:  89 c7                    movl     %eax, %edi
0x07fb29d5:  a1 38 fe fb 07           movl     0x7fbfe38, %eax
0x07fb29da:  8d 48 fc                 leal     -4(%eax), %ecx
0x07fb29dd:  83 f9 fc                 cmpl     $0xfc, %ecx
0x07fb29e0:  74 10                    je       0x7fb29f2

----------------
IN: 
0x07fb29e2:  66 81 79 14 01 06        cmpw     $0x601, 0x14(%ecx)
0x07fb29e8:  74 0d                    je       0x7fb29f7

----------------
IN: 
0x07fb29ea:  8b 49 04                 movl     4(%ecx), %ecx
0x07fb29ed:  83 e9 04                 subl     $4, %ecx
0x07fb29f0:  eb eb                    jmp      0x7fb29dd

----------------
IN: 
0x07fb29dd:  83 f9 fc                 cmpl     $0xfc, %ecx
0x07fb29e0:  74 10                    je       0x7fb29f2

----------------
IN: 
0x07fb29f7:  83 c8 ff                 orl      $0xffffffff, %eax
0x07fb29fa:  85 c9                    testl    %ecx, %ecx
0x07fb29fc:  74 40                    je       0x7fb2a3e

----------------
IN: 
0x07fb29fe:  ba df 32 0f 00           movl     $0xf32df, %edx
0x07fb2a03:  8d 44 24 14              leal     0x14(%esp), %eax
0x07fb2a07:  e8 58 fa ff ff           calll    0x7fb2464

----------------
IN: 
0x07fb2464:  55                       pushl    %ebp
0x07fb2465:  57                       pushl    %edi
0x07fb2466:  56                       pushl    %esi
0x07fb2467:  53                       pushl    %ebx
0x07fb2468:  83 ec 14                 subl     $0x14, %esp
0x07fb246b:  89 c3                    movl     %eax, %ebx
0x07fb246d:  89 d5                    movl     %edx, %ebp
0x07fb246f:  89 cf                    movl     %ecx, %edi
0x07fb2471:  8b 49 0c                 movl     0xc(%ecx), %ecx
0x07fb2474:  85 c9                    testl    %ecx, %ecx
0x07fb2476:  8d b0 00 01 00 00        leal     0x100(%eax), %esi
0x07fb247c:  74 0e                    je       0x7fb248c

----------------
IN: 
0x07fb248c:  c7 44 24 0c 35 32 0f 00  movl     $0xf3235, 0xc(%esp)
0x07fb2494:  c7 44 24 08 40 32 0f 00  movl     $0xf3240, 8(%esp)
0x07fb249c:  c7 44 24 04 00 01 00 00  movl     $0x100, 4(%esp)
0x07fb24a4:  89 04 24                 movl     %eax, (%esp)
0x07fb24a7:  e8 de f8 ff ff           calll    0x7fb1d8a

----------------
IN: 
0x07fb24ac:  01 c3                    addl     %eax, %ebx
0x07fb24ae:  0f b6 47 02              movzbl   2(%edi), %eax
0x07fb24b2:  84 c0                    testb    %al, %al
0x07fb24b4:  74 1e                    je       0x7fb24d4

----------------
IN: 
0x07fb24d4:  8b 07                    movl     (%edi), %eax
0x07fb24d6:  89 c7                    movl     %eax, %edi
0x07fb24d8:  83 e7 07                 andl     $7, %edi
0x07fb24db:  66 c1 e8 03              shrw     $3, %ax
0x07fb24df:  83 e0 1f                 andl     $0x1f, %eax
0x07fb24e2:  89 44 24 10              movl     %eax, 0x10(%esp)
0x07fb24e6:  89 6c 24 0c              movl     %ebp, 0xc(%esp)
0x07fb24ea:  c7 44 24 08 47 32 0f 00  movl     $0xf3247, 8(%esp)
0x07fb24f2:  89 f0                    movl     %esi, %eax
0x07fb24f4:  29 d8                    subl     %ebx, %eax
0x07fb24f6:  89 44 24 04              movl     %eax, 4(%esp)
0x07fb24fa:  89 1c 24                 movl     %ebx, (%esp)
0x07fb24fd:  e8 88 f8 ff ff           calll    0x7fb1d8a

----------------
IN: 
0x07fb2502:  01 c3                    addl     %eax, %ebx
0x07fb2504:  85 ff                    testl    %edi, %edi
0x07fb2506:  74 1c                    je       0x7fb2524

----------------
IN: 
0x07fb2524:  89 d8                    movl     %ebx, %eax
0x07fb2526:  83 c4 14                 addl     $0x14, %esp
0x07fb2529:  5b                       popl     %ebx
0x07fb252a:  5e                       popl     %esi
0x07fb252b:  5f                       popl     %edi
0x07fb252c:  5d                       popl     %ebp
0x07fb252d:  c3                       retl     

----------------
IN: 
0x07fb2a0c:  89 5c 24 10              movl     %ebx, 0x10(%esp)
0x07fb2a10:  c7 44 24 0c f0 03 00 00  movl     $0x3f0, 0xc(%esp)
0x07fb2a18:  c7 44 24 08 e3 32 0f 00  movl     $0xf32e3, 8(%esp)
0x07fb2a20:  8d 94 24 14 01 00 00     leal     0x114(%esp), %edx
0x07fb2a27:  29 c2                    subl     %eax, %edx
0x07fb2a29:  89 54 24 04              movl     %edx, 4(%esp)
0x07fb2a2d:  89 04 24                 movl     %eax, (%esp)
0x07fb2a30:  e8 55 f3 ff ff           calll    0x7fb1d8a

----------------
IN: 
0x07fb2a35:  8d 44 24 14              leal     0x14(%esp), %eax
0x07fb2a39:  e8 cb c3 ff ff           calll    0x7faee09

----------------
IN: 
0x07faee09:  55                       pushl    %ebp
0x07faee0a:  57                       pushl    %edi
0x07faee0b:  56                       pushl    %esi
0x07faee0c:  53                       pushl    %ebx
0x07faee0d:  83 ec 0c                 subl     $0xc, %esp
0x07faee10:  89 c5                    movl     %eax, %ebp
0x07faee12:  89 44 24 04              movl     %eax, 4(%esp)
0x07faee16:  c7 04 24 32 25 0f 00     movl     $0xf2532, (%esp)
0x07faee1d:  e8 a3 f4 13 f8           calll    0xee2c5

----------------
IN: 
0x07faee22:  a1 58 ff fb 07           movl     0x7fbff58, %eax
0x07faee27:  89 44 24 08              movl     %eax, 8(%esp)
0x07faee2b:  8b 3d 90 fe fb 07        movl     0x7fbfe90, %edi
0x07faee31:  31 f6                    xorl     %esi, %esi
0x07faee33:  3b 74 24 08              cmpl     8(%esp), %esi
0x07faee37:  7d 42                    jge      0x7faee7b

----------------
IN: 
0x07faee7b:  83 c8 ff                 orl      $0xffffffff, %eax
0x07faee7e:  83 c4 0c                 addl     $0xc, %esp
0x07faee81:  5b                       popl     %ebx
0x07faee82:  5e                       popl     %esi
0x07faee83:  5f                       popl     %edi
0x07faee84:  5d                       popl     %ebp
0x07faee85:  c3                       retl     

----------------
IN: 
0x07fb2a3e:  8b 0d 8c fe fb 07        movl     0x7fbfe8c, %ecx
0x07fb2a44:  89 c2                    movl     %eax, %edx
0x07fb2a46:  85 c0                    testl    %eax, %eax
0x07fb2a48:  79 02                    jns      0x7fb2a4c

----------------
IN: 
0x07fb2a4a:  89 ca                    movl     %ecx, %edx
0x07fb2a4c:  89 3c 24                 movl     %edi, (%esp)
0x07fb2a4f:  89 f1                    movl     %esi, %ecx
0x07fb2a51:  b8 01 00 00 00           movl     $1, %eax
0x07fb2a56:  e8 55 b1 ff ff           calll    0x7fadbb0

----------------
IN: 
0x07fadbb0:  55                       pushl    %ebp
0x07fadbb1:  57                       pushl    %edi
0x07fadbb2:  56                       pushl    %esi
0x07fadbb3:  53                       pushl    %ebx
0x07fadbb4:  56                       pushl    %esi
0x07fadbb5:  89 c6                    movl     %eax, %esi
0x07fadbb7:  89 d7                    movl     %edx, %edi
0x07fadbb9:  89 cd                    movl     %ecx, %ebp
0x07fadbbb:  8b 5c 24 18              movl     0x18(%esp), %ebx
0x07fadbbf:  b8 18 00 00 00           movl     $0x18, %eax
0x07fadbc4:  e8 0a fd ff ff           calll    0x7fad8d3

----------------
IN: 
0x07fadbc9:  85 c0                    testl    %eax, %eax
0x07fadbcb:  75 13                    jne      0x7fadbe0

----------------
IN: 
0x07fadbe0:  89 30                    movl     %esi, (%eax)
0x07fadbe2:  89 78 08                 movl     %edi, 8(%eax)
0x07fadbe5:  89 68 04                 movl     %ebp, 4(%eax)
0x07fadbe8:  85 db                    testl    %ebx, %ebx
0x07fadbea:  75 05                    jne      0x7fadbf1

----------------
IN: 
0x07fadbf1:  89 58 0c                 movl     %ebx, 0xc(%eax)
0x07fadbf4:  8b 1d 7c fe fb 07        movl     0x7fbfe7c, %ebx
0x07fadbfa:  c7 04 24 7c fe fb 07     movl     $0x7fbfe7c, (%esp)
0x07fadc01:  85 db                    testl    %ebx, %ebx
0x07fadc03:  75 10                    jne      0x7fadc15

----------------
IN: 
0x07fadc05:  83 c0 10                 addl     $0x10, %eax
0x07fadc08:  8b 14 24                 movl     (%esp), %edx
0x07fadc0b:  59                       popl     %ecx
0x07fadc0c:  5b                       popl     %ebx
0x07fadc0d:  5e                       popl     %esi
0x07fadc0e:  5f                       popl     %edi
0x07fadc0f:  5d                       popl     %ebp
0x07fadc10:  e9 5a d9 ff ff           jmp      0x7fab56f

----------------
IN: 
0x07fb2a5b:  81 c4 14 01 00 00        addl     $0x114, %esp
0x07fb2a61:  5b                       popl     %ebx
0x07fb2a62:  5e                       popl     %esi
0x07fb2a63:  5f                       popl     %edi
0x07fb2a64:  c3                       retl     

----------------
IN: 
0x07fb2fb8:  8a 54 24 28              movb     0x28(%esp), %dl
0x07fb2fbc:  80 e2 0f                 andb     $0xf, %dl
0x07fb2fbf:  74 0d                    je       0x7fb2fce

----------------
IN: 
0x07fb2fce:  b8 40 00 00 00           movl     $0x40, %eax
0x07fb2fd3:  e8 48 9b ff ff           calll    0x7facb20

----------------
IN: 
0x07fb2fd8:  b8 57 ef 0f 00           movl     $0xfef57, %eax
0x07fb2fdd:  66 a3 38 00 00 00        movw     %ax, 0x38
0x07fb2fe3:  66 c7 05 3a 00 00 00 00  movw     $0xf000, 0x3a
0x07fb2feb:  f0
0x07fb2fec:  b8 00 7d 00 00           movl     $0x7d00, %eax
0x07fb2ff1:  e8 63 a9 13 f8           calll    0xed959

----------------
IN: 
0x07fb2ff6:  a3 60 ff fb 07           movl     %eax, 0x7fbff60
0x07fb2ffb:  a1 38 fe fb 07           movl     0x7fbfe38, %eax
0x07fb3000:  8d 58 fc                 leal     -4(%eax), %ebx
0x07fb3003:  85 c0                    testl    %eax, %eax
0x07fb3005:  75 3d                    jne      0x7fb3044

----------------
IN: 
0x07fb3044:  83 fb fc                 cmpl     $0xfc, %ebx
0x07fb3047:  74 16                    je       0x7fb305f

----------------
IN: 
0x07fb3049:  31 c9                    xorl     %ecx, %ecx
0x07fb304b:  89 da                    movl     %ebx, %edx
0x07fb304d:  b8 54 fc fb 07           movl     $0x7fbfc54, %eax
0x07fb3052:  e8 ce 8d ff ff           calll    0x7fabe25

----------------
IN: 
0x07fb3057:  8b 5b 04                 movl     4(%ebx), %ebx
0x07fb305a:  83 eb 04                 subl     $4, %ebx
0x07fb305d:  eb e5                    jmp      0x7fb3044

----------------
IN: 
0x07fb0af4:  57                       pushl    %edi
0x07fb0af5:  56                       pushl    %esi
0x07fb0af6:  53                       pushl    %ebx
0x07fb0af7:  83 ec 0c                 subl     $0xc, %esp
0x07fb0afa:  89 c3                    movl     %eax, %ebx
0x07fb0afc:  0f b6 78 16              movzbl   0x16(%eax), %edi
0x07fb0b00:  0f b7 00                 movzwl   (%eax), %eax
0x07fb0b03:  ba 3c 00 00 00           movl     $0x3c, %edx
0x07fb0b08:  e8 9c b7 13 f8           calll    0xec2a9

----------------
IN: 
0x07fb0b0d:  88 44 24 0b              movb     %al, 0xb(%esp)
0x07fb0b11:  f7 c7 01 00 00 00        testl    $1, %edi
0x07fb0b17:  74 2d                    je       0x7fb0b46

----------------
IN: 
0x07fb0b46:  b9 0e 00 00 00           movl     $0xe, %ecx
0x07fb0b4b:  b8 f4 03 00 00           movl     $0x3f4, %eax
0x07fb0b50:  be f0 01 00 00           movl     $0x1f0, %esi
0x07fb0b55:  89 44 24 04              movl     %eax, 4(%esp)
0x07fb0b59:  89 34 24                 movl     %esi, (%esp)
0x07fb0b5c:  31 d2                    xorl     %edx, %edx
0x07fb0b5e:  89 d8                    movl     %ebx, %eax
0x07fb0b60:  e8 d7 fe ff ff           calll    0x7fb0a3c

----------------
IN: 
0x07fb0a3c:  55                       pushl    %ebp
0x07fb0a3d:  57                       pushl    %edi
0x07fb0a3e:  56                       pushl    %esi
0x07fb0a3f:  53                       pushl    %ebx
0x07fb0a40:  83 ec 24                 subl     $0x24, %esp
0x07fb0a43:  89 c6                    movl     %eax, %esi
0x07fb0a45:  89 54 24 1c              movl     %edx, 0x1c(%esp)
0x07fb0a49:  89 4c 24 20              movl     %ecx, 0x20(%esp)
0x07fb0a4d:  8b 7c 24 38              movl     0x38(%esp), %edi
0x07fb0a51:  8b 6c 24 3c              movl     0x3c(%esp), %ebp
0x07fb0a55:  b8 14 00 00 00           movl     $0x14, %eax
0x07fb0a5a:  e8 24 ce ff ff           calll    0x7fad883

----------------
IN: 
0x07fb0a5f:  89 c3                    movl     %eax, %ebx
0x07fb0a61:  85 c0                    testl    %eax, %eax
0x07fb0a63:  8b 4c 24 20              movl     0x20(%esp), %ecx
0x07fb0a67:  75 16                    jne      0x7fb0a7f

----------------
IN: 
0x07fb0a7f:  8b 15 30 ff fb 07        movl     0x7fbff30, %edx
0x07fb0a85:  8d 42 01                 leal     1(%edx), %eax
0x07fb0a88:  a3 30 ff fb 07           movl     %eax, 0x7fbff30
0x07fb0a8d:  88 53 08                 movb     %dl, 8(%ebx)
0x07fb0a90:  8a 54 24 1c              movb     0x1c(%esp), %dl
0x07fb0a94:  88 53 07                 movb     %dl, 7(%ebx)
0x07fb0a97:  88 4b 06                 movb     %cl, 6(%ebx)
0x07fb0a9a:  85 f6                    testl    %esi, %esi
0x07fb0a9c:  74 05                    je       0x7fb0aa3

----------------
IN: 
0x07fb0a9e:  0f b7 16                 movzwl   (%esi), %edx
0x07fb0aa1:  eb 03                    jmp      0x7fb0aa6

----------------
IN: 
0x07fb0aa6:  89 53 0c                 movl     %edx, 0xc(%ebx)
0x07fb0aa9:  89 73 10                 movl     %esi, 0x10(%ebx)
0x07fb0aac:  66 89 3b                 movw     %di, (%ebx)
0x07fb0aaf:  66 89 6b 02              movw     %bp, 2(%ebx)
0x07fb0ab3:  66 c7 43 04 00 00        movw     $0, 4(%ebx)
0x07fb0ab9:  89 54 24 18              movl     %edx, 0x18(%esp)
0x07fb0abd:  89 4c 24 14              movl     %ecx, 0x14(%esp)
0x07fb0ac1:  c7 44 24 10 00 00 00 00  movl     $0, 0x10(%esp)
0x07fb0ac9:  89 6c 24 0c              movl     %ebp, 0xc(%esp)
0x07fb0acd:  89 7c 24 08              movl     %edi, 8(%esp)
0x07fb0ad1:  89 44 24 04              movl     %eax, 4(%esp)
0x07fb0ad5:  c7 04 24 5e 2d 0f 00     movl     $0xf2d5e, (%esp)
0x07fb0adc:  e8 e4 d7 13 f8           calll    0xee2c5

----------------
IN: 
0x07fb0ae1:  89 da                    movl     %ebx, %edx
0x07fb0ae3:  b8 7b 93 fb 07           movl     $0x7fb937b, %eax
0x07fb0ae8:  83 c4 24                 addl     $0x24, %esp
0x07fb0aeb:  5b                       popl     %ebx
0x07fb0aec:  5e                       popl     %esi
0x07fb0aed:  5f                       popl     %edi
0x07fb0aee:  5d                       popl     %ebp
0x07fb0aef:  e9 28 ce ff ff           jmp      0x7fad91c

----------------
IN: 
0x07fb937b:  55                       pushl    %ebp
0x07fb937c:  57                       pushl    %edi
0x07fb937d:  56                       pushl    %esi
0x07fb937e:  53                       pushl    %ebx
0x07fb937f:  81 ec 8c 02 00 00        subl     $0x28c, %esp
0x07fb9385:  89 c7                    movl     %eax, %edi
0x07fb9387:  89 44 24 30              movl     %eax, 0x30(%esp)
0x07fb938b:  8d 5c 24 60              leal     0x60(%esp), %ebx
0x07fb938f:  b9 2c 00 00 00           movl     $0x2c, %ecx
0x07fb9394:  31 d2                    xorl     %edx, %edx
0x07fb9396:  89 d8                    movl     %ebx, %eax
0x07fb9398:  e8 24 2e 13 f8           calll    0xec1c1

----------------
IN: 
0x07fb939d:  89 bc 24 84 00 00 00     movl     %edi, 0x84(%esp)
0x07fb93a4:  c6 44 24 23 00           movb     $0, 0x23(%esp)
0x07fb93a9:  31 f6                    xorl     %esi, %esi
0x07fb93ab:  89 5c 24 28              movl     %ebx, 0x28(%esp)
0x07fb93af:  8b 44 24 30              movl     0x30(%esp), %eax
0x07fb93b3:  8b 28                    movl     (%eax), %ebp
0x07fb93b5:  0f b7 c5                 movzwl   %bp, %eax
0x07fb93b8:  89 c7                    movl     %eax, %edi
0x07fb93ba:  89 44 24 2c              movl     %eax, 0x2c(%esp)
0x07fb93be:  e8 9e 52 ff ff           calll    0x7fae661

----------------
IN: 
0x07fae661:  56                       pushl    %esi
0x07fae662:  53                       pushl    %ebx
0x07fae663:  31 db                    xorl     %ebx, %ebx
0x07fae665:  8d 70 07                 leal     7(%eax), %esi
0x07fae668:  89 f2                    movl     %esi, %edx
0x07fae66a:  ec                       inb      %dx, %al
0x07fae66b:  84 c0                    testb    %al, %al
0x07fae66d:  79 30                    jns      0x7fae69f

----------------
IN: 
0x07fae69f:  0f b6 c0                 movzbl   %al, %eax
0x07fae6a2:  eb 05                    jmp      0x7fae6a9

----------------
IN: 
0x07fae6a9:  5b                       popl     %ebx
0x07fae6aa:  5e                       popl     %esi
0x07fae6ab:  c3                       retl     

----------------
IN: 
0x07fb93c3:  85 c0                    testl    %eax, %eax
0x07fb93c5:  0f 88 c4 03 00 00        js       0x7fb978f

----------------
IN: 
0x07fb93cb:  80 7c 24 23 01           cmpb     $1, 0x23(%esp)
0x07fb93d0:  19 db                    sbbl     %ebx, %ebx
0x07fb93d2:  83 e3 f0                 andl     $0xfffffff0, %ebx
0x07fb93d5:  83 eb 50                 subl     $0x50, %ebx
0x07fb93d8:  8d 55 06                 leal     6(%ebp), %edx
0x07fb93db:  88 d8                    movb     %bl, %al
0x07fb93dd:  ee                       outb     %al, %dx
0x07fb93de:  89 54 24 24              movl     %edx, 0x24(%esp)
0x07fb93e2:  e8 fd 45 13 f8           calll    0xed9e4

----------------
IN: 
0x000ed9e4:  53                       pushl    %ebx
0x000ed9e5:  e8 fb fe ff ff           calll    0xed8e5

----------------
IN: 
0x000ed9ea:  89 c3                    movl     %eax, %ebx
0x000ed9ec:  69 15 84 5f 0f 00 90 01  imull    $0x190, 0xf5f84, %edx
0x000ed9f4:  00 00
0x000ed9f6:  8d 82 3f 42 0f 00        leal     0xf423f(%edx), %eax
0x000ed9fc:  b9 40 42 0f 00           movl     $0xf4240, %ecx
0x000eda01:  31 d2                    xorl     %edx, %edx
0x000eda03:  f7 f1                    divl     %ecx
0x000eda05:  01 d8                    addl     %ebx, %eax
0x000eda07:  5b                       popl     %ebx
0x000eda08:  e9 b9 ff ff ff           jmp      0xed9c6

----------------
IN: 
0x000ed9c6:  53                       pushl    %ebx
0x000ed9c7:  89 c3                    movl     %eax, %ebx
0x000ed9c9:  89 d8                    movl     %ebx, %eax
0x000ed9cb:  e8 e2 ff ff ff           calll    0xed9b2

----------------
IN: 
0x000ed9b2:  53                       pushl    %ebx
0x000ed9b3:  89 c3                    movl     %eax, %ebx
0x000ed9b5:  e8 2b ff ff ff           calll    0xed8e5

----------------
IN: 
0x000ed9ba:  29 d8                    subl     %ebx, %eax
0x000ed9bc:  85 c0                    testl    %eax, %eax
0x000ed9be:  0f 9f c0                 setg     %al
0x000ed9c1:  0f b6 c0                 movzbl   %al, %eax
0x000ed9c4:  5b                       popl     %ebx
0x000ed9c5:  c3                       retl     

----------------
IN: 
0x000ed9d0:  85 c0                    testl    %eax, %eax
0x000ed9d2:  75 04                    jne      0xed9d8

----------------
IN: 
0x000ed9d8:  5b                       popl     %ebx
0x000ed9d9:  c3                       retl     

----------------
IN: 
0x07fb93e7:  89 f8                    movl     %edi, %eax
0x07fb93e9:  e8 73 52 ff ff           calll    0x7fae661

----------------
IN: 
0x07fb93ee:  85 c0                    testl    %eax, %eax
0x07fb93f0:  0f 88 99 03 00 00        js       0x7fb978f

----------------
IN: 
0x07fb93f6:  88 d8                    movb     %bl, %al
0x07fb93f8:  8b 54 24 24              movl     0x24(%esp), %edx
0x07fb93fc:  ee                       outb     %al, %dx
0x07fb93fd:  ec                       inb      %dx, %al
0x07fb93fe:  88 44 24 24              movb     %al, 0x24(%esp)
0x07fb9402:  8d 4d 02                 leal     2(%ebp), %ecx
0x07fb9405:  b0 55                    movb     $0x55, %al
0x07fb9407:  89 ca                    movl     %ecx, %edx
0x07fb9409:  ee                       outb     %al, %dx
0x07fb940a:  8d 7d 03                 leal     3(%ebp), %edi
0x07fb940d:  b0 aa                    movb     $0xaa, %al
0x07fb940f:  89 fa                    movl     %edi, %edx
0x07fb9411:  ee                       outb     %al, %dx
0x07fb9412:  89 ca                    movl     %ecx, %edx
0x07fb9414:  ec                       inb      %dx, %al
0x07fb9415:  88 c1                    movb     %al, %cl
0x07fb9417:  89 fa                    movl     %edi, %edx
0x07fb9419:  ec                       inb      %dx, %al
0x07fb941a:  80 f9 55                 cmpb     $0x55, %cl
0x07fb941d:  0f 85 6c 03 00 00        jne      0x7fb978f

----------------
IN: 
0x07fb9423:  3c aa                    cmpb     $0xaa, %al
0x07fb9425:  0f 85 64 03 00 00        jne      0x7fb978f

----------------
IN: 
0x07fb942b:  38 5c 24 24              cmpb     %bl, 0x24(%esp)
0x07fb942f:  0f 85 5a 03 00 00        jne      0x7fb978f

----------------
IN: 
0x07fb9435:  8a 44 24 23              movb     0x23(%esp), %al
0x07fb9439:  88 84 24 88 00 00 00     movb     %al, 0x88(%esp)
0x07fb9440:  85 f6                    testl    %esi, %esi
0x07fb9442:  0f 85 b5 00 00 00        jne      0x7fb94fd

----------------
IN: 
0x07fb9448:  8b 84 24 84 00 00 00     movl     0x84(%esp), %eax
0x07fb944f:  66 8b 30                 movw     (%eax), %si
0x07fb9452:  66 8b 40 02              movw     2(%eax), %ax
0x07fb9456:  8d 50 02                 leal     2(%eax), %edx
0x07fb9459:  66 89 54 24 24           movw     %dx, 0x24(%esp)
0x07fb945e:  b0 0e                    movb     $0xe, %al
0x07fb9460:  ee                       outb     %al, %dx
0x07fb9461:  b8 05 00 00 00           movl     $5, %eax
0x07fb9466:  e8 6f 45 13 f8           calll    0xed9da

----------------
IN: 
0x000ed9da:  e8 8d ff ff ff           calll    0xed96c

----------------
IN: 
0x000ed96c:  57                       pushl    %edi
0x000ed96d:  56                       pushl    %esi
0x000ed96e:  53                       pushl    %ebx
0x000ed96f:  89 c3                    movl     %eax, %ebx
0x000ed971:  e8 6f ff ff ff           calll    0xed8e5

----------------
IN: 
0x000ed976:  89 c1                    movl     %eax, %ecx
0x000ed978:  8b 35 84 5f 0f 00        movl     0xf5f84, %esi
0x000ed97e:  81 fb 20 a1 07 00        cmpl     $0x7a120, %ebx
0x000ed984:  76 14                    jbe      0xed99a

----------------
IN: 
0x000ed99a:  0f af de                 imull    %esi, %ebx
0x000ed99d:  8d 83 e7 03 00 00        leal     0x3e7(%ebx), %eax
0x000ed9a3:  bf e8 03 00 00           movl     $0x3e8, %edi
0x000ed9a8:  31 d2                    xorl     %edx, %edx
0x000ed9aa:  f7 f7                    divl     %edi
0x000ed9ac:  01 c8                    addl     %ecx, %eax
0x000ed9ae:  5b                       popl     %ebx
0x000ed9af:  5e                       popl     %esi
0x000ed9b0:  5f                       popl     %edi
0x000ed9b1:  c3                       retl     

----------------
IN: 
0x000ed9df:  e9 e2 ff ff ff           jmp      0xed9c6

----------------
IN: 
0x07fb946b:  b0 0a                    movb     $0xa, %al
0x07fb946d:  8b 54 24 24              movl     0x24(%esp), %edx
0x07fb9471:  ee                       outb     %al, %dx
0x07fb9472:  b8 02 00 00 00           movl     $2, %eax
0x07fb9477:  e8 90 3c ff ff           calll    0x7fad10c

----------------
IN: 
0x07fad10c:  53                       pushl    %ebx
0x07fad10d:  e8 47 08 14 f8           calll    0xed959

----------------
IN: 
0x07fad112:  89 c3                    movl     %eax, %ebx
0x07fad114:  89 d8                    movl     %ebx, %eax
0x07fad116:  e8 97 08 14 f8           calll    0xed9b2

----------------
IN: 
0x07fad11b:  85 c0                    testl    %eax, %eax
0x07fad11d:  75 07                    jne      0x7fad126

----------------
IN: 
0x07fad11f:  e8 ed 0c 14 f8           calll    0xede11

----------------
IN: 
0x000ec09e:  5b                       popl     %ebx
0x000ec09f:  5e                       popl     %esi
0x000ec0a0:  5f                       popl     %edi
0x000ec0a1:  c3                       retl     

----------------
IN: 
0x07fb0770:  8a 44 24 07              movb     7(%esp), %al
0x07fb0774:  a2 ac b7 0e 00           movb     %al, 0xeb7ac
0x07fb0779:  83 e0 ef                 andl     $0xffffffef, %eax
0x07fb077c:  88 44 24 07              movb     %al, 7(%esp)
0x07fb0780:  8d 54 24 07              leal     7(%esp), %edx
0x07fb0784:  b8 60 10 00 00           movl     $0x1060, %eax
0x07fb0789:  e8 e3 d8 ff ff           calll    0x7fae071

----------------
IN: 
0x07fb078e:  89 c3                    movl     %eax, %ebx
0x07fb0790:  85 c0                    testl    %eax, %eax
0x07fb0792:  0f 85 2b 01 00 00        jne      0x7fb08c3

----------------
IN: 
0x07fb0798:  89 fd                    movl     %edi, %ebp
0x07fb079a:  c1 fd 08                 sarl     $8, %ebp
0x07fb079d:  83 e5 0f                 andl     $0xf, %ebp
0x07fb07a0:  89 f8                    movl     %edi, %eax
0x07fb07a2:  fe c0                    incb     %al
0x07fb07a4:  75 52                    jne      0x7fb07f8

----------------
IN: 
0x07fb07a6:  ba e8 03 00 00           movl     $0x3e8, %edx
0x07fb07ab:  b8 ff 00 00 00           movl     $0xff, %eax
0x07fb07b0:  e8 4d ff ff ff           calll    0x7fb0702

----------------
IN: 
0x07fb0702:  53                       pushl    %ebx
0x07fb0703:  51                       pushl    %ecx
0x07fb0704:  89 c3                    movl     %eax, %ebx
0x07fb0706:  89 14 24                 movl     %edx, (%esp)
0x07fb0709:  e8 17 dd 13 f8           calll    0xee425

----------------
IN: 
0x07fb070e:  85 c0                    testl    %eax, %eax
0x07fb0710:  75 22                    jne      0x7fb0734

----------------
IN: 
0x07fb0712:  88 d8                    movb     %bl, %al
0x07fb0714:  e6 60                    outb     %al, $0x60
0x07fb0716:  8b 14 24                 movl     (%esp), %edx
0x07fb0719:  b8 01 00 00 00           movl     $1, %eax
0x07fb071e:  e8 4e ff ff ff           calll    0x7fb0671

----------------
IN: 
0x07fb0671:  56                       pushl    %esi
0x07fb0672:  53                       pushl    %ebx
0x07fb0673:  83 ec 0c                 subl     $0xc, %esp
0x07fb0676:  89 c6                    movl     %eax, %esi
0x07fb0678:  89 d0                    movl     %edx, %eax
0x07fb067a:  e8 da d2 13 f8           calll    0xed959

----------------
IN: 
0x07fb067f:  89 c3                    movl     %eax, %ebx
0x07fb0681:  e4 64                    inb      $0x64, %al
0x07fb0683:  0f b6 c8                 movzbl   %al, %ecx
0x07fb0686:  f6 c1 01                 testb    $1, %cl
0x07fb0689:  74 46                    je       0x7fb06d1

----------------
IN: 
0x07fb068b:  e4 60                    inb      $0x60, %al
0x07fb068d:  f6 c1 20                 testb    $0x20, %cl
0x07fb0690:  75 28                    jne      0x7fb06ba

----------------
IN: 
0x07fb0692:  85 f6                    testl    %esi, %esi
0x07fb0694:  75 05                    jne      0x7fb069b

----------------
IN: 
0x07fb069b:  3c fa                    cmpb     $0xfa, %al
0x07fb069d:  74 58                    je       0x7fb06f7

----------------
IN: 
0x07fb06f7:  b8 fa 00 00 00           movl     $0xfa, %eax
0x07fb06fc:  83 c4 0c                 addl     $0xc, %esp
0x07fb06ff:  5b                       popl     %ebx
0x07fb0700:  5e                       popl     %esi
0x07fb0701:  c3                       retl     

----------------
IN: 
0x07fb0723:  85 c0                    testl    %eax, %eax
0x07fb0725:  78 0d                    js       0x7fb0734

----------------
IN: 
0x07fb0727:  3d fa 00 00 00           cmpl     $0xfa, %eax
0x07fb072c:  0f 95 c0                 setne    %al
0x07fb072f:  0f b6 c0                 movzbl   %al, %eax
0x07fb0732:  f7 d8                    negl     %eax
0x07fb0734:  5a                       popl     %edx
0x07fb0735:  5b                       popl     %ebx
0x07fb0736:  c3                       retl     

----------------
IN: 
0x07fb07b5:  85 c0                    testl    %eax, %eax
0x07fb07b7:  0f 85 04 01 00 00        jne      0x7fb08c1

----------------
IN: 
0x07fb07bd:  ba a0 0f 00 00           movl     $0xfa0, %edx
0x07fb07c2:  e8 aa fe ff ff           calll    0x7fb0671

----------------
IN: 
0x07fb0696:  0f b6 c0                 movzbl   %al, %eax
0x07fb0699:  eb 61                    jmp      0x7fb06fc

----------------
IN: 
0x07fb06fc:  83 c4 0c                 addl     $0xc, %esp
0x07fb06ff:  5b                       popl     %ebx
0x07fb0700:  5e                       popl     %esi
0x07fb0701:  c3                       retl     

----------------
IN: 
0x07fb07c7:  85 c0                    testl    %eax, %eax
0x07fb07c9:  0f 88 f2 00 00 00        js       0x7fb08c1

----------------
IN: 
0x07fb07cf:  88 06                    movb     %al, (%esi)
0x07fb07d1:  4d                       decl     %ebp
0x07fb07d2:  0f 8e eb 00 00 00        jle      0x7fb08c3

----------------
IN: 
0x07fb08c3:  8a 44 24 06              movb     6(%esp), %al
0x07fb08c7:  a2 ac b7 0e 00           movb     %al, 0xeb7ac
0x07fb08cc:  8d 54 24 06              leal     6(%esp), %edx
0x07fb08d0:  b8 60 10 00 00           movl     $0x1060, %eax
0x07fb08d5:  e8 97 d7 ff ff           calll    0x7fae071

----------------
IN: 
0x07fb08da:  85 c0                    testl    %eax, %eax
0x07fb08dc:  74 02                    je       0x7fb08e0

----------------
IN: 
0x07fb08e0:  89 d8                    movl     %ebx, %eax
0x07fb08e2:  83 c4 08                 addl     $8, %esp
0x07fb08e5:  5b                       popl     %ebx
0x07fb08e6:  5e                       popl     %esi
0x07fb08e7:  5f                       popl     %edi
0x07fb08e8:  5d                       popl     %ebp
0x07fb08e9:  c3                       retl     

----------------
IN: 
0x07fb09af:  85 c0                    testl    %eax, %eax
0x07fb09b1:  74 27                    je       0x7fb09da

----------------
IN: 
0x07fb09da:  0f b6 44 24 0a           movzbl   0xa(%esp), %eax
0x07fb09df:  3c aa                    cmpb     $0xaa, %al
0x07fb09e1:  74 0d                    je       0x7fb09f0

----------------
IN: 
0x07fb09f0:  31 d2                    xorl     %edx, %edx
0x07fb09f2:  b8 f5 00 00 00           movl     $0xf5, %eax
0x07fb09f7:  e8 3b fd ff ff           calll    0x7fb0737

----------------
IN: 
0x07fb0b65:  83 e7 04                 andl     $4, %edi
0x07fb0b68:  74 2d                    je       0x7fb0b97

----------------
IN: 
0x07fb0b97:  b9 0f 00 00 00           movl     $0xf, %ecx
0x07fb0b9c:  b8 74 03 00 00           movl     $0x374, %eax
0x07fb0ba1:  be 70 01 00 00           movl     $0x170, %esi
0x07fb0ba6:  89 44 24 04              movl     %eax, 4(%esp)
0x07fb0baa:  89 34 24                 movl     %esi, (%esp)
0x07fb0bad:  ba 01 00 00 00           movl     $1, %edx
0x07fb0bb2:  89 d8                    movl     %ebx, %eax
0x07fb0bb4:  e8 83 fe ff ff           calll    0x7fb0a3c

----------------
IN: 
0x000ed9d4:  f3 90                    pause    

----------------
IN: 
0x000ed9d6:  eb f1                    jmp      0xed9c9

----------------
IN: 
0x000ed9c9:  89 d8                    movl     %ebx, %eax
0x000ed9cb:  e8 e2 ff ff ff           calll    0xed9b2

----------------
IN: 
0x07fad124:  eb ee                    jmp      0x7fad114

----------------
IN: 
0x07fad114:  89 d8                    movl     %ebx, %eax
0x07fad116:  e8 97 08 14 f8           calll    0xed9b2

----------------
IN: 
0x07fb07f8:  81 ff f2 02 00 00        cmpl     $0x2f2, %edi
0x07fb07fe:  75 69                    jne      0x7fb0869

----------------
IN: 
0x07fb0869:  89 f8                    movl     %edi, %eax
0x07fb086b:  0f b6 c0                 movzbl   %al, %eax
0x07fb086e:  ba c8 00 00 00           movl     $0xc8, %edx
0x07fb0873:  e8 8a fe ff ff           calll    0x7fb0702

----------------
IN: 
0x07fb0878:  85 c0                    testl    %eax, %eax
0x07fb087a:  75 45                    jne      0x7fb08c1

----------------
IN: 
0x07fb087c:  89 f9                    movl     %edi, %ecx
0x07fb087e:  c1 f9 0c                 sarl     $0xc, %ecx
0x07fb0881:  83 e1 0f                 andl     $0xf, %ecx
0x07fb0884:  31 ff                    xorl     %edi, %edi
0x07fb0886:  39 cf                    cmpl     %ecx, %edi
0x07fb0888:  7d 1b                    jge      0x7fb08a5

----------------
IN: 
0x07fb08a5:  31 ff                    xorl     %edi, %edi
0x07fb08a7:  39 ef                    cmpl     %ebp, %edi
0x07fb08a9:  7d 18                    jge      0x7fb08c3

----------------
IN: 
0x07fb09fc:  85 c0                    testl    %eax, %eax
0x07fb09fe:  75 36                    jne      0x7fb0a36

----------------
IN: 
0x07fb0a00:  c6 44 24 0a 02           movb     $2, 0xa(%esp)
0x07fb0a05:  8d 54 24 0a              leal     0xa(%esp), %edx
0x07fb0a09:  66 b8 f0 10              movw     $0x10f0, %ax
0x07fb0a0d:  e8 25 fd ff ff           calll    0x7fb0737

----------------
IN: 
0x07fb0bb9:  83 c4 0c                 addl     $0xc, %esp
0x07fb0bbc:  5b                       popl     %ebx
0x07fb0bbd:  5e                       popl     %esi
0x07fb0bbe:  5f                       popl     %edi
0x07fb0bbf:  c3                       retl     

----------------
IN: 
0x07fb305f:  c6 05 76 04 00 00 c0     movb     $0xc0, 0x476
0x07fb3066:  b8 00 40 00 00           movl     $0x4000, %eax
0x07fb306b:  e8 b0 9a ff ff           calll    0x7facb20

----------------
IN: 
0x07fb3070:  b8 4e d4 0f 00           movl     $0xfd44e, %eax
0x07fb3075:  66 a3 d8 01 00 00        movw     %ax, 0x1d8
0x07fb307b:  66 c7 05 da 01 00 00 00  movw     $0xf000, 0x1da
0x07fb3083:  f0
0x07fb3084:  a1 38 fe fb 07           movl     0x7fbfe38, %eax
0x07fb3089:  8d 78 fc                 leal     -4(%eax), %edi
0x07fb308c:  83 ff fc                 cmpl     $0xfc, %edi
0x07fb308f:  0f 84 ea 01 00 00        je       0x7fb327f

----------------
IN: 
0x07fb3095:  66 81 7f 14 06 01        cmpw     $0x106, 0x14(%edi)
0x07fb309b:  0f 85 d3 01 00 00        jne      0x7fb3274

----------------
IN: 
0x07fb3274:  8b 7f 04                 movl     4(%edi), %edi
0x07fb3277:  83 ef 04                 subl     $4, %edi
0x07fb327a:  e9 0d fe ff ff           jmp      0x7fb308c

----------------
IN: 
0x07fb308c:  83 ff fc                 cmpl     $0xfc, %edi
0x07fb308f:  0f 84 ea 01 00 00        je       0x7fb327f

----------------
IN: 
0x07fb327f:  31 f6                    xorl     %esi, %esi
0x07fb3281:  31 db                    xorl     %ebx, %ebx
0x07fb3283:  89 da                    movl     %ebx, %edx
0x07fb3285:  b8 66 34 0f 00           movl     $0xf3466, %eax
0x07fb328a:  e8 50 87 ff ff           calll    0x7fab9df

----------------
IN: 
0x07fb328f:  89 c3                    movl     %eax, %ebx
0x07fb3291:  85 c0                    testl    %eax, %eax
0x07fb3293:  74 0f                    je       0x7fb32a4

----------------
IN: 
0x07fb32a4:  85 f6                    testl    %esi, %esi
0x07fb32a6:  74 28                    je       0x7fb32d0

----------------
IN: 
0x07fb32d0:  a1 38 fe fb 07           movl     0x7fbfe38, %eax
0x07fb32d5:  8d 58 fc                 leal     -4(%eax), %ebx
0x07fb32d8:  83 fb fc                 cmpl     $0xfc, %ebx
0x07fb32db:  74 cb                    je       0x7fb32a8

----------------
IN: 
0x07fb32dd:  66 81 7b 14 05 08        cmpw     $0x805, 0x14(%ebx)
0x07fb32e3:  75 12                    jne      0x7fb32f7

----------------
IN: 
0x07fb32f7:  8b 5b 04                 movl     4(%ebx), %ebx
0x07fb32fa:  83 eb 04                 subl     $4, %ebx
0x07fb32fd:  eb d9                    jmp      0x7fb32d8

----------------
IN: 
0x07fb32d8:  83 fb fc                 cmpl     $0xfc, %ebx
0x07fb32db:  74 cb                    je       0x7fb32a8

----------------
IN: 
0x07fb32a8:  31 d2                    xorl     %edx, %edx
0x07fb32aa:  b8 71 34 0f 00           movl     $0xf3471, %eax
0x07fb32af:  e8 2b 87 ff ff           calll    0x7fab9df

----------------
IN: 
0x07fb32b4:  89 c3                    movl     %eax, %ebx
0x07fb32b6:  85 c0                    testl    %eax, %eax
0x07fb32b8:  0f 84 2a 01 00 00        je       0x7fb33e8

----------------
IN: 
0x07fb33e8:  a1 38 fe fb 07           movl     0x7fbfe38, %eax
0x07fb33ed:  8d 58 fc                 leal     -4(%eax), %ebx
0x07fb33f0:  83 fb fc                 cmpl     $0xfc, %ebx
0x07fb33f3:  74 2c                    je       0x7fb3421

----------------
IN: 
0x07fb33f5:  66 81 7b 10 f4 1a        cmpw     $0x1af4, 0x10(%ebx)
0x07fb33fb:  75 1c                    jne      0x7fb3419

----------------
IN: 
0x07fb3419:  8b 5b 04                 movl     4(%ebx), %ebx
0x07fb341c:  83 eb 04                 subl     $4, %ebx
0x07fb341f:  eb cf                    jmp      0x7fb33f0

----------------
IN: 
0x07fb33f0:  83 fb fc                 cmpl     $0xfc, %ebx
0x07fb33f3:  74 2c                    je       0x7fb3421

----------------
IN: 
0x07fb3421:  a1 38 fe fb 07           movl     0x7fbfe38, %eax
0x07fb3426:  8d 58 fc                 leal     -4(%eax), %ebx
0x07fb3429:  83 fb fc                 cmpl     $0xfc, %ebx
0x07fb342c:  74 2c                    je       0x7fb345a

----------------
IN: 
0x07fb342e:  66 81 7b 10 f4 1a        cmpw     $0x1af4, 0x10(%ebx)
0x07fb3434:  75 1c                    jne      0x7fb3452

----------------
IN: 
0x07fb3452:  8b 5b 04                 movl     4(%ebx), %ebx
0x07fb3455:  83 eb 04                 subl     $4, %ebx
0x07fb3458:  eb cf                    jmp      0x7fb3429

----------------
IN: 
0x07fb3429:  83 fb fc                 cmpl     $0xfc, %ebx
0x07fb342c:  74 2c                    je       0x7fb345a

----------------
IN: 
0x07fb345a:  a1 38 fe fb 07           movl     0x7fbfe38, %eax
0x07fb345f:  8d 58 fc                 leal     -4(%eax), %ebx
0x07fb3462:  83 fb fc                 cmpl     $0xfc, %ebx
0x07fb3465:  74 1d                    je       0x7fb3484

----------------
IN: 
0x07fb3467:  81 7b 10 00 10 12 00     cmpl     $0x121000, 0x10(%ebx)
0x07fb346e:  75 0c                    jne      0x7fb347c

----------------
IN: 
0x07fb347c:  8b 5b 04                 movl     4(%ebx), %ebx
0x07fb347f:  83 eb 04                 subl     $4, %ebx
0x07fb3482:  eb de                    jmp      0x7fb3462

----------------
IN: 
0x07fb3462:  83 fb fc                 cmpl     $0xfc, %ebx
0x07fb3465:  74 1d                    je       0x7fb3484

----------------
IN: 
0x07fb3484:  a1 38 fe fb 07           movl     0x7fbfe38, %eax
0x07fb3489:  8d 58 fc                 leal     -4(%eax), %ebx
0x07fb348c:  83 fb fc                 cmpl     $0xfc, %ebx
0x07fb348f:  74 1d                    je       0x7fb34ae

----------------
IN: 
0x07fb3491:  81 7b 10 22 10 20 20     cmpl     $0x20201022, 0x10(%ebx)
0x07fb3498:  75 0c                    jne      0x7fb34a6

----------------
IN: 
0x07fb34a6:  8b 5b 04                 movl     4(%ebx), %ebx
0x07fb34a9:  83 eb 04                 subl     $4, %ebx
0x07fb34ac:  eb de                    jmp      0x7fb348c

----------------
IN: 
0x07fb348c:  83 fb fc                 cmpl     $0xfc, %ebx
0x07fb348f:  74 1d                    je       0x7fb34ae

----------------
IN: 
0x07fb34ae:  a1 38 fe fb 07           movl     0x7fbfe38, %eax
0x07fb34b3:  8d 58 fc                 leal     -4(%eax), %ebx
0x07fb34b6:  83 fb fc                 cmpl     $0xfc, %ebx
0x07fb34b9:  74 60                    je       0x7fb351b

----------------
IN: 
0x07fb34bb:  8b 43 10                 movl     0x10(%ebx), %eax
0x07fb34be:  66 3d 28 10              cmpw     $0x1028, %ax
0x07fb34c2:  74 06                    je       0x7fb34ca

----------------
IN: 
0x07fb34c4:  66 3d 00 10              cmpw     $0x1000, %ax
0x07fb34c8:  75 49                    jne      0x7fb3513

----------------
IN: 
0x07fb3513:  8b 5b 04                 movl     4(%ebx), %ebx
0x07fb3516:  83 eb 04                 subl     $4, %ebx
0x07fb3519:  eb 9b                    jmp      0x7fb34b6

----------------
IN: 
0x07fb34b6:  83 fb fc                 cmpl     $0xfc, %ebx
0x07fb34b9:  74 60                    je       0x7fb351b

----------------
IN: 
0x07fb351b:  a1 38 fe fb 07           movl     0x7fbfe38, %eax
0x07fb3520:  8d 58 fc                 leal     -4(%eax), %ebx
0x07fb3523:  83 fb fc                 cmpl     $0xfc, %ebx
0x07fb3526:  74 1d                    je       0x7fb3545

----------------
IN: 
0x07fb3528:  81 7b 10 ad 15 c0 07     cmpl     $0x7c015ad, 0x10(%ebx)
0x07fb352f:  75 0c                    jne      0x7fb353d

----------------
IN: 
0x07fb353d:  8b 5b 04                 movl     4(%ebx), %ebx
0x07fb3540:  83 eb 04                 subl     $4, %ebx
0x07fb3543:  eb de                    jmp      0x7fb3523

----------------
IN: 
0x07fb3523:  83 fb fc                 cmpl     $0xfc, %ebx
0x07fb3526:  74 1d                    je       0x7fb3545

----------------
IN: 
0x07fb3545:  a1 38 fe fb 07           movl     0x7fbfe38, %eax
0x07fb354a:  8d 58 fc                 leal     -4(%eax), %ebx
0x07fb354d:  83 fb fc                 cmpl     $0xfc, %ebx
0x07fb3550:  74 32                    je       0x7fb3584

----------------
IN: 
0x07fb3552:  66 81 7b 10 00 10        cmpw     $0x1000, 0x10(%ebx)
0x07fb3558:  75 22                    jne      0x7fb357c

----------------
IN: 
0x07fb357c:  8b 5b 04                 movl     4(%ebx), %ebx
0x07fb357f:  83 eb 04                 subl     $4, %ebx
0x07fb3582:  eb c9                    jmp      0x7fb354d

----------------
IN: 
0x07fb354d:  83 fb fc                 cmpl     $0xfc, %ebx
0x07fb3550:  74 32                    je       0x7fb3584

----------------
IN: 
0x07fb3584:  a1 38 fe fb 07           movl     0x7fbfe38, %eax
0x07fb3589:  8d 58 fc                 leal     -4(%eax), %ebx
0x07fb358c:  83 fb fc                 cmpl     $0xfc, %ebx
0x07fb358f:  74 22                    je       0x7fb35b3

----------------
IN: 
0x07fb3591:  66 81 7b 14 08 01        cmpw     $0x108, 0x14(%ebx)
0x07fb3597:  75 12                    jne      0x7fb35ab

----------------
IN: 
0x07fb35ab:  8b 5b 04                 movl     4(%ebx), %ebx
0x07fb35ae:  83 eb 04                 subl     $4, %ebx
0x07fb35b1:  eb d9                    jmp      0x7fb358c

----------------
IN: 
0x07fb358c:  83 fb fc                 cmpl     $0xfc, %ebx
0x07fb358f:  74 22                    je       0x7fb35b3

----------------
IN: 
0x07fb35b3:  ba 7a 03 00 00           movl     $0x37a, %edx
0x07fb35b8:  ec                       inb      %dx, %al
0x07fb35b9:  83 e0 df                 andl     $0xffffffdf, %eax
0x07fb35bc:  ee                       outb     %al, %dx
0x07fb35bd:  b2 78                    movb     $0x78, %dl
0x07fb35bf:  b0 aa                    movb     $0xaa, %al
0x07fb35c1:  ee                       outb     %al, %dx
0x07fb35c2:  ec                       inb      %dx, %al
0x07fb35c3:  31 c9                    xorl     %ecx, %ecx
0x07fb35c5:  3c aa                    cmpb     $0xaa, %al
0x07fb35c7:  75 12                    jne      0x7fb35db

----------------
IN: 
0x07fb35c9:  66 c7 05 08 04 00 00 78  movw     $0x378, 0x408
0x07fb35d1:  03
0x07fb35d2:  c6 05 78 04 00 00 14     movb     $0x14, 0x478
0x07fb35d9:  b1 01                    movb     $1, %cl
0x07fb35db:  ba 7a 02 00 00           movl     $0x27a, %edx
0x07fb35e0:  ec                       inb      %dx, %al
0x07fb35e1:  83 e0 df                 andl     $0xffffffdf, %eax
0x07fb35e4:  ee                       outb     %al, %dx
0x07fb35e5:  b2 78                    movb     $0x78, %dl
0x07fb35e7:  b0 aa                    movb     $0xaa, %al
0x07fb35e9:  ee                       outb     %al, %dx
0x07fb35ea:  ec                       inb      %dx, %al
0x07fb35eb:  31 db                    xorl     %ebx, %ebx
0x07fb35ed:  3c aa                    cmpb     $0xaa, %al
0x07fb35ef:  75 16                    jne      0x7fb3607

----------------
IN: 
0x07fb3607:  01 cb                    addl     %ecx, %ebx
0x07fb3609:  0f b7 c3                 movzwl   %bx, %eax
0x07fb360c:  89 44 24 04              movl     %eax, 4(%esp)
0x07fb3610:  c7 04 24 a7 34 0f 00     movl     $0xf34a7, (%esp)
0x07fb3617:  e8 a9 ac 13 f8           calll    0xee2c5

----------------
IN: 
0x07fb361c:  89 d9                    movl     %ebx, %ecx
0x07fb361e:  c1 e1 0e                 shll     $0xe, %ecx
0x07fb3621:  a1 10 04 00 00           movl     0x410, %eax
0x07fb3626:  66 25 ff 3f              andw     $0x3fff, %ax
0x07fb362a:  09 c1                    orl      %eax, %ecx
0x07fb362c:  66 89 0d 10 04 00 00     movw     %cx, 0x410
0x07fb3633:  31 d2                    xorl     %edx, %edx
0x07fb3635:  b8 f8 03 00 00           movl     $0x3f8, %eax
0x07fb363a:  e8 78 94 ff ff           calll    0x7facab7

----------------
IN: 
0x07facab7:  57                       pushl    %edi
0x07facab8:  56                       pushl    %esi
0x07facab9:  53                       pushl    %ebx
0x07facaba:  89 c1                    movl     %eax, %ecx
0x07facabc:  89 d7                    movl     %edx, %edi
0x07facabe:  8d 58 01                 leal     1(%eax), %ebx
0x07facac1:  b0 02                    movb     $2, %al
0x07facac3:  89 da                    movl     %ebx, %edx
0x07facac5:  ee                       outb     %al, %dx
0x07facac6:  ec                       inb      %dx, %al
0x07facac7:  31 f6                    xorl     %esi, %esi
0x07facac9:  3c 02                    cmpb     $2, %al
0x07facacb:  75 2b                    jne      0x7facaf8

----------------
IN: 
0x07facacd:  8d 51 02                 leal     2(%ecx), %edx
0x07facad0:  ec                       inb      %dx, %al
0x07facad1:  83 e0 3f                 andl     $0x3f, %eax
0x07facad4:  31 f6                    xorl     %esi, %esi
0x07facad6:  3c 02                    cmpb     $2, %al
0x07facad8:  75 1e                    jne      0x7facaf8

----------------
IN: 
0x07facada:  31 c0                    xorl     %eax, %eax
0x07facadc:  89 da                    movl     %ebx, %edx
0x07facade:  ee                       outb     %al, %dx
0x07facadf:  89 f8                    movl     %edi, %eax
0x07facae1:  0f b6 d0                 movzbl   %al, %edx
0x07facae4:  66 89 8c 12 00 04 00 00  movw     %cx, 0x400(%edx, %edx)
0x07facaec:  c6 82 7c 04 00 00 0a     movb     $0xa, 0x47c(%edx)
0x07facaf3:  be 01 00 00 00           movl     $1, %esi
0x07facaf8:  89 f0                    movl     %esi, %eax
0x07facafa:  5b                       popl     %ebx
0x07facafb:  5e                       popl     %esi
0x07facafc:  5f                       popl     %edi
0x07facafd:  c3                       retl     

----------------
IN: 
0x07fb363f:  89 c3                    movl     %eax, %ebx
0x07fb3641:  0f b6 d0                 movzbl   %al, %edx
0x07fb3644:  b8 f8 02 00 00           movl     $0x2f8, %eax
0x07fb3649:  e8 69 94 ff ff           calll    0x7facab7

----------------
IN: 
0x07facaf8:  89 f0                    movl     %esi, %eax
0x07facafa:  5b                       popl     %ebx
0x07facafb:  5e                       popl     %esi
0x07facafc:  5f                       popl     %edi
0x07facafd:  c3                       retl     

----------------
IN: 
0x07fb364e:  01 c3                    addl     %eax, %ebx
0x07fb3650:  0f b6 d3                 movzbl   %bl, %edx
0x07fb3653:  b8 e8 03 00 00           movl     $0x3e8, %eax
0x07fb3658:  e8 5a 94 ff ff           calll    0x7facab7

----------------
IN: 
0x07fb365d:  01 c3                    addl     %eax, %ebx
0x07fb365f:  0f b6 d3                 movzbl   %bl, %edx
0x07fb3662:  b8 e8 02 00 00           movl     $0x2e8, %eax
0x07fb3667:  e8 4b 94 ff ff           calll    0x7facab7

----------------
IN: 
0x07fb366c:  01 c3                    addl     %eax, %ebx
0x07fb366e:  0f b7 c3                 movzwl   %bx, %eax
0x07fb3671:  89 44 24 04              movl     %eax, 4(%esp)
0x07fb3675:  c7 04 24 bb 34 0f 00     movl     $0xf34bb, (%esp)
0x07fb367c:  e8 44 ac 13 f8           calll    0xee2c5

----------------
IN: 
0x07fb3681:  89 d8                    movl     %ebx, %eax
0x07fb3683:  c1 e0 09                 shll     $9, %eax
0x07fb3686:  8b 15 10 04 00 00        movl     0x410, %edx
0x07fb368c:  80 e6 f1                 andb     $0xf1, %dh
0x07fb368f:  09 d0                    orl      %edx, %eax
0x07fb3691:  66 a3 10 04 00 00        movw     %ax, 0x410
0x07fb3697:  83 c4 38                 addl     $0x38, %esp
0x07fb369a:  5b                       popl     %ebx
0x07fb369b:  5e                       popl     %esi
0x07fb369c:  5f                       popl     %edi
0x07fb369d:  5d                       popl     %ebp
0x07fb369e:  c3                       retl     

----------------
IN: 
0x07fbc8ef:  e8 9e 07 ff ff           calll    0x7fad092

----------------
IN: 
0x07fad092:  81 3d ac 60 0f 00 ac 60  cmpl     $0xf60ac, 0xf60ac
0x07fad09a:  0f 00
0x07fad09c:  74 07                    je       0x7fad0a5

----------------
IN: 
0x07fad09e:  e8 6e 0d 14 f8           calll    0xede11

----------------
IN: 
0x07fad126:  5b                       popl     %ebx
0x07fad127:  c3                       retl     

----------------
IN: 
0x07fb947c:  0f b7 de                 movzwl   %si, %ebx
0x07fb947f:  89 d8                    movl     %ebx, %eax
0x07fb9481:  e8 35 51 13 f8           calll    0xee5bb

----------------
IN: 
0x000ee5bb:  0f b7 c8                 movzwl   %ax, %ecx
0x000ee5be:  31 d2                    xorl     %edx, %edx
0x000ee5c0:  b8 80 00 00 00           movl     $0x80, %eax
0x000ee5c5:  e9 9b ff ff ff           jmp      0xee565

----------------
IN: 
0x000ee565:  55                       pushl    %ebp
0x000ee566:  57                       pushl    %edi
0x000ee567:  56                       pushl    %esi
0x000ee568:  53                       pushl    %ebx
0x000ee569:  89 c6                    movl     %eax, %esi
0x000ee56b:  89 d7                    movl     %edx, %edi
0x000ee56d:  89 cd                    movl     %ecx, %ebp
0x000ee56f:  b8 00 7d 00 00           movl     $0x7d00, %eax
0x000ee574:  e8 e0 f3 ff ff           calll    0xed959

----------------
IN: 
0x000ee579:  89 c3                    movl     %eax, %ebx
0x000ee57b:  83 c5 07                 addl     $7, %ebp
0x000ee57e:  89 ea                    movl     %ebp, %edx
0x000ee580:  ec                       inb      %dx, %al
0x000ee581:  89 f2                    movl     %esi, %edx
0x000ee583:  21 c2                    andl     %eax, %edx
0x000ee585:  89 f9                    movl     %edi, %ecx
0x000ee587:  38 ca                    cmpb     %cl, %dl
0x000ee589:  75 05                    jne      0xee590

----------------
IN: 
0x000ee58b:  0f b6 c0                 movzbl   %al, %eax
0x000ee58e:  eb 26                    jmp      0xee5b6

----------------
IN: 
0x000ee5b6:  5b                       popl     %ebx
0x000ee5b7:  5e                       popl     %esi
0x000ee5b8:  5f                       popl     %edi
0x000ee5b9:  5d                       popl     %ebp
0x000ee5ba:  c3                       retl     

----------------
IN: 
0x07fb9486:  85 c0                    testl    %eax, %eax
0x07fb9488:  78 6c                    js       0x7fb94f6

----------------
IN: 
0x07fb948a:  80 7c 24 23 00           cmpb     $0, 0x23(%esp)
0x07fb948f:  74 47                    je       0x7fb94d8

----------------
IN: 
0x07fb94d8:  8d 56 06                 leal     6(%esi), %edx
0x07fb94db:  b0 a0                    movb     $0xa0, %al
0x07fb94dd:  ee                       outb     %al, %dx
0x07fb94de:  80 7c 24 60 20           cmpb     $0x20, 0x60(%esp)
0x07fb94e3:  75 11                    jne      0x7fb94f6

----------------
IN: 
0x07fb94f6:  b0 08                    movb     $8, %al
0x07fb94f8:  8b 54 24 24              movl     0x24(%esp), %edx
0x07fb94fc:  ee                       outb     %al, %dx
0x07fb94fd:  b9 a1 00 00 00           movl     $0xa1, %ecx
0x07fb9502:  8d 94 24 8c 00 00 00     leal     0x8c(%esp), %edx
0x07fb9509:  8b 7c 24 28              movl     0x28(%esp), %edi
0x07fb950d:  89 f8                    movl     %edi, %eax
0x07fb950f:  e8 9f 50 ff ff           calll    0x7fae5b3

----------------
IN: 
0x07fae5b3:  57                       pushl    %edi
0x07fae5b4:  56                       pushl    %esi
0x07fae5b5:  53                       pushl    %ebx
0x07fae5b6:  83 ec 20                 subl     $0x20, %esp
0x07fae5b9:  89 c7                    movl     %eax, %edi
0x07fae5bb:  89 d3                    movl     %edx, %ebx
0x07fae5bd:  89 ce                    movl     %ecx, %esi
0x07fae5bf:  b9 00 02 00 00           movl     $0x200, %ecx
0x07fae5c4:  31 d2                    xorl     %edx, %edx
0x07fae5c6:  89 d8                    movl     %ebx, %eax
0x07fae5c8:  e8 f4 db 13 f8           calll    0xec1c1

----------------
IN: 
0x07fae5cd:  b9 14 00 00 00           movl     $0x14, %ecx
0x07fae5d2:  31 d2                    xorl     %edx, %edx
0x07fae5d4:  8d 44 24 0c              leal     0xc(%esp), %eax
0x07fae5d8:  e8 e4 db 13 f8           calll    0xec1c1

----------------
IN: 
0x07fae5dd:  89 7c 24 10              movl     %edi, 0x10(%esp)
0x07fae5e1:  66 c7 44 24 16 01 00     movw     $1, 0x16(%esp)
0x07fae5e8:  c7 44 24 18 01 00 00 00  movl     $1, 0x18(%esp)
0x07fae5f0:  c7 44 24 1c 00 00 00 00  movl     $0, 0x1c(%esp)
0x07fae5f8:  89 5c 24 0c              movl     %ebx, 0xc(%esp)
0x07fae5fc:  b9 0c 00 00 00           movl     $0xc, %ecx
0x07fae601:  31 d2                    xorl     %edx, %edx
0x07fae603:  89 e0                    movl     %esp, %eax
0x07fae605:  e8 b7 db 13 f8           calll    0xec1c1

----------------
IN: 
0x07fae60a:  89 f0                    movl     %esi, %eax
0x07fae60c:  88 44 24 06              movb     %al, 6(%esp)
0x07fae610:  8b 4c 24 10              movl     0x10(%esp), %ecx
0x07fae614:  8b 41 24                 movl     0x24(%ecx), %eax
0x07fae617:  66 8b 30                 movw     (%eax), %si
0x07fae61a:  66 8b 58 02              movw     2(%eax), %bx
0x07fae61e:  83 c3 02                 addl     $2, %ebx
0x07fae621:  b0 0a                    movb     $0xa, %al
0x07fae623:  89 da                    movl     %ebx, %edx
0x07fae625:  ee                       outb     %al, %dx
0x07fae626:  89 e2                    movl     %esp, %edx
0x07fae628:  89 c8                    movl     %ecx, %eax
0x07fae62a:  e8 9b ff 13 f8           calll    0xee5ca

----------------
IN: 
0x000ee5ca:  55                       pushl    %ebp
0x000ee5cb:  57                       pushl    %edi
0x000ee5cc:  56                       pushl    %esi
0x000ee5cd:  53                       pushl    %ebx
0x000ee5ce:  89 d7                    movl     %edx, %edi
0x000ee5d0:  8a 58 28                 movb     0x28(%eax), %bl
0x000ee5d3:  8b 40 24                 movl     0x24(%eax), %eax
0x000ee5d6:  66 8b 30                 movw     (%eax), %si
0x000ee5d9:  0f b7 ee                 movzwl   %si, %ebp
0x000ee5dc:  89 e8                    movl     %ebp, %eax
0x000ee5de:  e8 d8 ff ff ff           calll    0xee5bb

----------------
IN: 
0x000ee5e3:  85 c0                    testl    %eax, %eax
0x000ee5e5:  0f 88 93 00 00 00        js       0xee67e

----------------
IN: 
0x000ee5eb:  8a 47 05                 movb     5(%edi), %al
0x000ee5ee:  83 e0 4f                 andl     $0x4f, %eax
0x000ee5f1:  80 fb 01                 cmpb     $1, %bl
0x000ee5f4:  19 c9                    sbbl     %ecx, %ecx
0x000ee5f6:  83 e1 f0                 andl     $0xfffffff0, %ecx
0x000ee5f9:  83 e9 50                 subl     $0x50, %ecx
0x000ee5fc:  09 c1                    orl      %eax, %ecx
0x000ee5fe:  8d 56 06                 leal     6(%esi), %edx
0x000ee601:  ec                       inb      %dx, %al
0x000ee602:  88 c3                    movb     %al, %bl
0x000ee604:  88 c8                    movb     %cl, %al
0x000ee606:  ee                       outb     %al, %dx
0x000ee607:  31 cb                    xorl     %ecx, %ebx
0x000ee609:  80 e3 10                 andb     $0x10, %bl
0x000ee60c:  75 34                    jne      0xee642

----------------
IN: 
0x000ee60e:  8a 4f 06                 movb     6(%edi), %cl
0x000ee611:  89 c8                    movl     %ecx, %eax
0x000ee613:  25 ee 00 00 00           andl     $0xee, %eax
0x000ee618:  83 f8 24                 cmpl     $0x24, %eax
0x000ee61b:  75 37                    jne      0xee654

----------------
IN: 
0x000ee654:  8a 07                    movb     (%edi), %al
0x000ee656:  8d 56 01                 leal     1(%esi), %edx
0x000ee659:  ee                       outb     %al, %dx
0x000ee65a:  8a 47 01                 movb     1(%edi), %al
0x000ee65d:  8d 56 02                 leal     2(%esi), %edx
0x000ee660:  ee                       outb     %al, %dx
0x000ee661:  8a 47 02                 movb     2(%edi), %al
0x000ee664:  8d 56 03                 leal     3(%esi), %edx
0x000ee667:  ee                       outb     %al, %dx
0x000ee668:  8a 47 03                 movb     3(%edi), %al
0x000ee66b:  8d 56 04                 leal     4(%esi), %edx
0x000ee66e:  ee                       outb     %al, %dx
0x000ee66f:  8a 47 04                 movb     4(%edi), %al
0x000ee672:  8d 56 05                 leal     5(%esi), %edx
0x000ee675:  ee                       outb     %al, %dx
0x000ee676:  8d 56 07                 leal     7(%esi), %edx
0x000ee679:  88 c8                    movb     %cl, %al
0x000ee67b:  ee                       outb     %al, %dx
0x000ee67c:  31 c0                    xorl     %eax, %eax
0x000ee67e:  5b                       popl     %ebx
0x000ee67f:  5e                       popl     %esi
0x000ee680:  5f                       popl     %edi
0x000ee681:  5d                       popl     %ebp
0x000ee682:  c3                       retl     

----------------
IN: 
0x07fae62f:  89 c1                    movl     %eax, %ecx
0x07fae631:  85 c0                    testl    %eax, %eax
0x07fae633:  75 1e                    jne      0x7fae653

----------------
IN: 
0x07fae635:  0f b7 c6                 movzwl   %si, %eax
0x07fae638:  e8 dc 00 14 f8           calll    0xee719

----------------
IN: 
0x000ee719:  53                       pushl    %ebx
0x000ee71a:  89 c3                    movl     %eax, %ebx
0x000ee71c:  e8 c3 f2 ff ff           calll    0xed9e4

----------------
IN: 
0x000ee721:  0f b7 c3                 movzwl   %bx, %eax
0x000ee724:  e8 92 fe ff ff           calll    0xee5bb

----------------
IN: 
0x000ee729:  85 c0                    testl    %eax, %eax
0x000ee72b:  78 16                    js       0xee743

----------------
IN: 
0x000ee72d:  a8 01                    testb    $1, %al
0x000ee72f:  75 0d                    jne      0xee73e

----------------
IN: 
0x000ee731:  83 e0 08                 andl     $8, %eax
0x000ee734:  83 f8 01                 cmpl     $1, %eax
0x000ee737:  19 c0                    sbbl     %eax, %eax
0x000ee739:  83 e0 fb                 andl     $0xfffffffb, %eax
0x000ee73c:  eb 05                    jmp      0xee743

----------------
IN: 
0x000ee743:  5b                       popl     %ebx
0x000ee744:  c3                       retl     

----------------
IN: 
0x07fae63d:  89 c1                    movl     %eax, %ecx
0x07fae63f:  85 c0                    testl    %eax, %eax
0x07fae641:  75 10                    jne      0x7fae653

----------------
IN: 
0x07fae643:  ba 00 02 00 00           movl     $0x200, %edx
0x07fae648:  8d 44 24 0c              leal     0xc(%esp), %eax
0x07fae64c:  e8 32 00 14 f8           calll    0xee683

----------------
IN: 
0x000ee683:  55                       pushl    %ebp
0x000ee684:  57                       pushl    %edi
0x000ee685:  56                       pushl    %esi
0x000ee686:  53                       pushl    %ebx
0x000ee687:  83 ec 10                 subl     $0x10, %esp
0x000ee68a:  89 c3                    movl     %eax, %ebx
0x000ee68c:  89 14 24                 movl     %edx, (%esp)
0x000ee68f:  8b 40 04                 movl     4(%eax), %eax
0x000ee692:  8b 40 24                 movl     0x24(%eax), %eax
0x000ee695:  66 8b 08                 movw     (%eax), %cx
0x000ee698:  66 89 4c 24 08           movw     %cx, 8(%esp)
0x000ee69d:  66 8b 78 02              movw     2(%eax), %di
0x000ee6a1:  0f b7 73 0a              movzwl   0xa(%ebx), %esi
0x000ee6a5:  8b 2b                    movl     (%ebx), %ebp
0x000ee6a7:  b9 02 00 00 00           movl     $2, %ecx
0x000ee6ac:  89 d0                    movl     %edx, %eax
0x000ee6ae:  99                       cltd     
0x000ee6af:  f7 f9                    idivl    %ecx
0x000ee6b1:  89 44 24 04              movl     %eax, 4(%esp)
0x000ee6b5:  8d 47 02                 leal     2(%edi), %eax
0x000ee6b8:  66 89 44 24 0a           movw     %ax, 0xa(%esp)
0x000ee6bd:  0f b7 44 24 08           movzwl   8(%esp), %eax
0x000ee6c2:  89 44 24 0c              movl     %eax, 0xc(%esp)
0x000ee6c6:  8b 4c 24 04              movl     4(%esp), %ecx
0x000ee6ca:  89 ef                    movl     %ebp, %edi
0x000ee6cc:  8b 54 24 08              movl     8(%esp), %edx
0x000ee6d0:  66 f3 6d                 rep insl %dx, %es:(%edi)

----------------
IN: 
0x000ee6d0:  66 f3 6d                 rep insl %dx, %es:(%edi)

----------------
IN: 
0x000ee6d3:  03 2c 24                 addl     (%esp), %ebp
0x000ee6d6:  66 8b 54 24 0a           movw     0xa(%esp), %dx
0x000ee6db:  ec                       inb      %dx, %al
0x000ee6dc:  8b 44 24 0c              movl     0xc(%esp), %eax
0x000ee6e0:  e8 d6 fe ff ff           calll    0xee5bb

----------------
IN: 
0x000ee6e5:  85 c0                    testl    %eax, %eax
0x000ee6e7:  79 06                    jns      0xee6ef

----------------
IN: 
0x000ee6ef:  25 89 00 00 00           andl     $0x89, %eax
0x000ee6f4:  4e                       decl     %esi
0x000ee6f5:  74 10                    je       0xee707

----------------
IN: 
0x000ee707:  83 f8 01                 cmpl     $1, %eax
0x000ee70a:  19 c0                    sbbl     %eax, %eax
0x000ee70c:  f7 d0                    notl     %eax
0x000ee70e:  83 e0 f9                 andl     $0xfffffff9, %eax
0x000ee711:  83 c4 10                 addl     $0x10, %esp
0x000ee714:  5b                       popl     %ebx
0x000ee715:  5e                       popl     %esi
0x000ee716:  5f                       popl     %edi
0x000ee717:  5d                       popl     %ebp
0x000ee718:  c3                       retl     

----------------
IN: 
0x07fae651:  89 c1                    movl     %eax, %ecx
0x07fae653:  b0 08                    movb     $8, %al
0x07fae655:  89 da                    movl     %ebx, %edx
0x07fae657:  ee                       outb     %al, %dx
0x07fae658:  89 c8                    movl     %ecx, %eax
0x07fae65a:  83 c4 20                 addl     $0x20, %esp
0x07fae65d:  5b                       popl     %ebx
0x07fae65e:  5e                       popl     %esi
0x07fae65f:  5f                       popl     %edi
0x07fae660:  c3                       retl     

----------------
IN: 
0x07fb9514:  85 c0                    testl    %eax, %eax
0x07fb9516:  0f 85 f8 00 00 00        jne      0x7fb9614

----------------
IN: 
0x07fb951c:  8d 94 24 8c 00 00 00     leal     0x8c(%esp), %edx
0x07fb9523:  89 f8                    movl     %edi, %eax
0x07fb9525:  e8 cb 48 ff ff           calll    0x7faddf5

----------------
IN: 
0x07faddf5:  57                       pushl    %edi
0x07faddf6:  56                       pushl    %esi
0x07faddf7:  53                       pushl    %ebx
0x07faddf8:  89 c6                    movl     %eax, %esi
0x07faddfa:  89 d7                    movl     %edx, %edi
0x07faddfc:  b8 2c 00 00 00           movl     $0x2c, %eax
0x07fade01:  e8 7d fa ff ff           calll    0x7fad883

----------------
IN: 
0x07fade06:  89 c3                    movl     %eax, %ebx
0x07fade08:  85 c0                    testl    %eax, %eax
0x07fade0a:  75 13                    jne      0x7fade1f

----------------
IN: 
0x07fade1f:  b9 2c 00 00 00           movl     $0x2c, %ecx
0x07fade24:  31 d2                    xorl     %edx, %edx
0x07fade26:  e8 96 e3 13 f8           calll    0xec1c1

----------------
IN: 
0x07fade2b:  8b 46 24                 movl     0x24(%esi), %eax
0x07fade2e:  89 43 24                 movl     %eax, 0x24(%ebx)
0x07fade31:  8a 56 28                 movb     0x28(%esi), %dl
0x07fade34:  88 53 28                 movb     %dl, 0x28(%ebx)
0x07fade37:  0f b6 40 08              movzbl   8(%eax), %eax
0x07fade3b:  01 c0                    addl     %eax, %eax
0x07fade3d:  0f b6 56 28              movzbl   0x28(%esi), %edx
0x07fade41:  01 d0                    addl     %edx, %eax
0x07fade43:  89 43 14                 movl     %eax, 0x14(%ebx)
0x07fade46:  66 8b 07                 movw     (%edi), %ax
0x07fade49:  66 c1 e8 07              shrw     $7, %ax
0x07fade4d:  83 e0 01                 andl     $1, %eax
0x07fade50:  88 43 18                 movb     %al, 0x18(%ebx)
0x07fade53:  89 d8                    movl     %ebx, %eax
0x07fade55:  5b                       popl     %ebx
0x07fade56:  5e                       popl     %esi
0x07fade57:  5f                       popl     %edi
0x07fade58:  c3                       retl     

----------------
IN: 
0x07fb952a:  89 c3                    movl     %eax, %ebx
0x07fb952c:  85 c0                    testl    %eax, %eax
0x07fb952e:  0f 84 e0 00 00 00        je       0x7fb9614

----------------
IN: 
0x07fb9534:  c6 00 21                 movb     $0x21, (%eax)
0x07fb9537:  66 c7 40 1a 00 08        movw     $0x800, 0x1a(%eax)
0x07fb953d:  c7 40 0c ff ff ff ff     movl     $0xffffffff, 0xc(%eax)
0x07fb9544:  c7 40 10 ff ff ff ff     movl     $0xffffffff, 0x10(%eax)
0x07fb954b:  0f b6 84 24 8d 00 00 00  movzbl   0x8d(%esp), %eax
0x07fb9553:  83 e0 1f                 andl     $0x1f, %eax
0x07fb9556:  66 83 f8 05              cmpw     $5, %ax
0x07fb955a:  0f 94 c1                 sete     %cl
0x07fb955d:  be ef 3e 0f 00           movl     $0xf3eef, %esi
0x07fb9562:  84 c9                    testb    %cl, %cl
0x07fb9564:  74 05                    je       0x7fb956b

----------------
IN: 
0x07fb9566:  be e8 3e 0f 00           movl     $0xf3ee8, %esi
0x07fb956b:  89 4c 24 24              movl     %ecx, 0x24(%esp)
0x07fb956f:  8d 84 24 8c 00 00 00     leal     0x8c(%esp), %eax
0x07fb9576:  e8 cd 22 ff ff           calll    0x7fab848

----------------
IN: 
0x07fab848:  ba 0f 00 00 00           movl     $0xf, %edx
0x07fab84d:  0f b7 88 a0 00 00 00     movzwl   0xa0(%eax), %ecx
0x07fab854:  0f b6 c2                 movzbl   %dl, %eax
0x07fab857:  0f a3 d1                 btl      %edx, %ecx
0x07fab85a:  72 05                    jb       0x7fab861

----------------
IN: 
0x07fab85c:  4a                       decl     %edx
0x07fab85d:  75 f5                    jne      0x7fab854

----------------
IN: 
0x07fab854:  0f b6 c2                 movzbl   %dl, %eax
0x07fab857:  0f a3 d1                 btl      %edx, %ecx
0x07fab85a:  72 05                    jb       0x7fab861

----------------
IN: 
0x07fab861:  c3                       retl     

----------------
IN: 
0x07fb957b:  89 c7                    movl     %eax, %edi
0x07fb957d:  8d 94 24 8c 00 00 00     leal     0x8c(%esp), %edx
0x07fb9584:  8d 44 24 37              leal     0x37(%esp), %eax
0x07fb9588:  e8 05 35 ff ff           calll    0x7faca92

----------------
IN: 
0x07faca92:  53                       pushl    %ebx
0x07faca93:  89 c3                    movl     %eax, %ebx
0x07faca95:  31 c9                    xorl     %ecx, %ecx
0x07faca97:  66 8b 44 4a 36           movw     0x36(%edx, %ecx, 2), %ax
0x07faca9c:  86 e0                    xchgb    %ah, %al
0x07faca9e:  66 89 04 4b              movw     %ax, (%ebx, %ecx, 2)
0x07facaa2:  41                       incl     %ecx
0x07facaa3:  83 f9 14                 cmpl     $0x14, %ecx
0x07facaa6:  75 ef                    jne      0x7faca97

----------------
IN: 
0x07faca97:  66 8b 44 4a 36           movw     0x36(%edx, %ecx, 2), %ax
0x07faca9c:  86 e0                    xchgb    %ah, %al
0x07faca9e:  66 89 04 4b              movw     %ax, (%ebx, %ecx, 2)
0x07facaa2:  41                       incl     %ecx
0x07facaa3:  83 f9 14                 cmpl     $0x14, %ecx
0x07facaa6:  75 ef                    jne      0x7faca97

----------------
IN: 
0x07facaa8:  c6 43 28 00              movb     $0, 0x28(%ebx)
0x07facaac:  89 d8                    movl     %ebx, %eax
0x07facaae:  e8 1c eb ff ff           calll    0x7fab5cf

----------------
IN: 
0x07fab5cf:  53                       pushl    %ebx
0x07fab5d0:  89 c3                    movl     %eax, %ebx
0x07fab5d2:  e8 bb 0b 14 f8           calll    0xec192

----------------
IN: 
0x07fab5d7:  8d 44 03 ff              leal     -1(%ebx, %eax), %eax
0x07fab5db:  39 d8                    cmpl     %ebx, %eax
0x07fab5dd:  72 11                    jb       0x7fab5f0

----------------
IN: 
0x07fab5df:  80 38 20                 cmpb     $0x20, (%eax)
0x07fab5e2:  7f 0c                    jg       0x7fab5f0

----------------
IN: 
0x07fab5e4:  48                       decl     %eax
0x07fab5e5:  c6 40 01 00              movb     $0, 1(%eax)
0x07fab5e9:  eb f0                    jmp      0x7fab5db

----------------
IN: 
0x07fab5db:  39 d8                    cmpl     %ebx, %eax
0x07fab5dd:  72 11                    jb       0x7fab5f0

----------------
IN: 
0x07fab5f0:  8a 03                    movb     (%ebx), %al
0x07fab5f2:  3c 20                    cmpb     $0x20, %al
0x07fab5f4:  7e f5                    jle      0x7fab5eb

----------------
IN: 
0x07fab5f6:  89 d8                    movl     %ebx, %eax
0x07fab5f8:  5b                       popl     %ebx
0x07fab5f9:  c3                       retl     

----------------
IN: 
0x07facab3:  89 d8                    movl     %ebx, %eax
0x07facab5:  5b                       popl     %ebx
0x07facab6:  c3                       retl     

----------------
IN: 
0x07fb958d:  89 74 24 18              movl     %esi, 0x18(%esp)
0x07fb9591:  89 7c 24 14              movl     %edi, 0x14(%esp)
0x07fb9595:  89 44 24 10              movl     %eax, 0x10(%esp)
0x07fb9599:  0f b6 43 28              movzbl   0x28(%ebx), %eax
0x07fb959d:  89 44 24 0c              movl     %eax, 0xc(%esp)
0x07fb95a1:  8b 43 24                 movl     0x24(%ebx), %eax
0x07fb95a4:  0f b6 40 08              movzbl   8(%eax), %eax
0x07fb95a8:  89 44 24 08              movl     %eax, 8(%esp)
0x07fb95ac:  c7 44 24 04 f6 3e 0f 00  movl     $0xf3ef6, 4(%esp)
0x07fb95b4:  c7 04 24 50 00 00 00     movl     $0x50, (%esp)
0x07fb95bb:  e8 75 93 ff ff           calll    0x7fb2935

----------------
IN: 
0x07fb95c0:  89 c6                    movl     %eax, %esi
0x07fb95c2:  89 44 24 04              movl     %eax, 4(%esp)
0x07fb95c6:  c7 04 24 18 3f 0f 00     movl     $0xf3f18, (%esp)
0x07fb95cd:  e8 f3 4c 13 f8           calll    0xee2c5

----------------
IN: 
0x07fb95d2:  8b 4c 24 24              movl     0x24(%esp), %ecx
0x07fb95d6:  84 c9                    testb    %cl, %cl
0x07fb95d8:  74 1e                    je       0x7fb95f8

----------------
IN: 
0x07fb95da:  8b 43 24                 movl     0x24(%ebx), %eax
0x07fb95dd:  0f b6 4b 28              movzbl   0x28(%ebx), %ecx
0x07fb95e1:  0f b6 50 07              movzbl   7(%eax), %edx
0x07fb95e5:  8b 40 10                 movl     0x10(%eax), %eax
0x07fb95e8:  e8 70 92 ff ff           calll    0x7fb285d

----------------
IN: 
0x07fb285d:  85 c0                    testl    %eax, %eax
0x07fb285f:  74 53                    je       0x7fb28b4

----------------
IN: 
0x07fb2861:  56                       pushl    %esi
0x07fb2862:  53                       pushl    %ebx
0x07fb2863:  81 ec 14 01 00 00        subl     $0x114, %esp
0x07fb2869:  89 d3                    movl     %edx, %ebx
0x07fb286b:  89 ce                    movl     %ecx, %esi
0x07fb286d:  89 c1                    movl     %eax, %ecx
0x07fb286f:  ba 73 32 0f 00           movl     $0xf3273, %edx
0x07fb2874:  8d 44 24 14              leal     0x14(%esp), %eax
0x07fb2878:  e8 e7 fb ff ff           calll    0x7fb2464

----------------
IN: 
0x07fb2508:  89 7c 24 0c              movl     %edi, 0xc(%esp)
0x07fb250c:  c7 44 24 08 43 32 0f 00  movl     $0xf3243, 8(%esp)
0x07fb2514:  29 de                    subl     %ebx, %esi
0x07fb2516:  89 74 24 04              movl     %esi, 4(%esp)
0x07fb251a:  89 1c 24                 movl     %ebx, (%esp)
0x07fb251d:  e8 68 f8 ff ff           calll    0x7fb1d8a

----------------
IN: 
0x07fb2522:  01 c3                    addl     %eax, %ebx
0x07fb2524:  89 d8                    movl     %ebx, %eax
0x07fb2526:  83 c4 14                 addl     $0x14, %esp
0x07fb2529:  5b                       popl     %ebx
0x07fb252a:  5e                       popl     %esi
0x07fb252b:  5f                       popl     %edi
0x07fb252c:  5d                       popl     %ebp
0x07fb252d:  c3                       retl     

----------------
IN: 
0x07fb287d:  89 74 24 10              movl     %esi, 0x10(%esp)
0x07fb2881:  89 5c 24 0c              movl     %ebx, 0xc(%esp)
0x07fb2885:  c7 44 24 08 ae 32 0f 00  movl     $0xf32ae, 8(%esp)
0x07fb288d:  8d 94 24 14 01 00 00     leal     0x114(%esp), %edx
0x07fb2894:  29 c2                    subl     %eax, %edx
0x07fb2896:  89 54 24 04              movl     %edx, 4(%esp)
0x07fb289a:  89 04 24                 movl     %eax, (%esp)
0x07fb289d:  e8 e8 f4 ff ff           calll    0x7fb1d8a

----------------
IN: 
0x07fb28a2:  8d 44 24 14              leal     0x14(%esp), %eax
0x07fb28a6:  e8 5e c5 ff ff           calll    0x7faee09

----------------
IN: 
0x07fb28ab:  81 c4 14 01 00 00        addl     $0x114, %esp
0x07fb28b1:  5b                       popl     %ebx
0x07fb28b2:  5e                       popl     %esi
0x07fb28b3:  c3                       retl     

----------------
IN: 
0x07fb95ed:  89 c1                    movl     %eax, %ecx
0x07fb95ef:  89 f2                    movl     %esi, %edx
0x07fb95f1:  89 d8                    movl     %ebx, %eax
0x07fb95f3:  e8 19 fd ff ff           calll    0x7fb9311

----------------
IN: 
0x07fb9311:  55                       pushl    %ebp
0x07fb9312:  57                       pushl    %edi
0x07fb9313:  56                       pushl    %esi
0x07fb9314:  53                       pushl    %ebx
0x07fb9315:  83 ec 10                 subl     $0x10, %esp
0x07fb9318:  89 c7                    movl     %eax, %edi
0x07fb931a:  89 d3                    movl     %edx, %ebx
0x07fb931c:  89 cd                    movl     %ecx, %ebp
0x07fb931e:  f6 05 60 5c 0f 00 01     testb    $1, 0xf5c60
0x07fb9325:  74 30                    je       0x7fb9357

----------------
IN: 
0x07fb9327:  e8 10 ff ff ff           calll    0x7fb923c

----------------
IN: 
0x07fb923c:  53                       pushl    %ebx
0x07fb923d:  81 ec 20 08 00 00        subl     $0x820, %esp
0x07fb9243:  89 c3                    movl     %eax, %ebx
0x07fb9245:  b9 14 00 00 00           movl     $0x14, %ecx
0x07fb924a:  31 d2                    xorl     %edx, %edx
0x07fb924c:  8d 44 24 0c              leal     0xc(%esp), %eax
0x07fb9250:  e8 6c 2f 13 f8           calll    0xec1c1

----------------
IN: 
0x07fb9255:  89 5c 24 10              movl     %ebx, 0x10(%esp)
0x07fb9259:  8d 44 24 0c              leal     0xc(%esp), %eax
0x07fb925d:  e8 cf 7e 13 f8           calll    0xf1131

----------------
IN: 
0x000f1131:  55                       pushl    %ebp
0x000f1132:  57                       pushl    %edi
0x000f1133:  56                       pushl    %esi
0x000f1134:  53                       pushl    %ebx
0x000f1135:  83 ec 2c                 subl     $0x2c, %esp
0x000f1138:  89 c3                    movl     %eax, %ebx
0x000f113a:  b8 88 13 00 00           movl     $0x1388, %eax
0x000f113f:  e8 15 c8 ff ff           calll    0xed959

----------------
IN: 
0x000f1144:  89 44 24 04              movl     %eax, 4(%esp)
0x000f1148:  31 ff                    xorl     %edi, %edi
0x000f114a:  8d 74 24 1a              leal     0x1a(%esp), %esi
0x000f114e:  8d 6c 24 0a              leal     0xa(%esp), %ebp
0x000f1152:  8b 44 24 04              movl     4(%esp), %eax
0x000f1156:  e8 57 c8 ff ff           calll    0xed9b2

----------------
IN: 
0x000f115b:  85 c0                    testl    %eax, %eax
0x000f115d:  74 0c                    je       0xf116b

----------------
IN: 
0x000f116b:  b9 10 00 00 00           movl     $0x10, %ecx
0x000f1170:  31 d2                    xorl     %edx, %edx
0x000f1172:  89 f0                    movl     %esi, %eax
0x000f1174:  e8 48 b0 ff ff           calll    0xec1c1

----------------
IN: 
0x000f1179:  c6 44 24 1a 00           movb     $0, 0x1a(%esp)
0x000f117e:  c6 43 08 20              movb     $0x20, 8(%ebx)
0x000f1182:  66 c7 43 0a 00 00        movw     $0, 0xa(%ebx)
0x000f1188:  c7 03 00 00 00 00        movl     $0, (%ebx)
0x000f118e:  89 73 10                 movl     %esi, 0x10(%ebx)
0x000f1191:  66 c7 43 0c 00 00        movw     $0, 0xc(%ebx)
0x000f1197:  89 d8                    movl     %ebx, %eax
0x000f1199:  e8 4b ff ff ff           calll    0xf10e9

----------------
IN: 
0x000f10e9:  56                       pushl    %esi
0x000f10ea:  53                       pushl    %ebx
0x000f10eb:  89 c3                    movl     %eax, %ebx
0x000f10ed:  0f b7 70 0a              movzwl   0xa(%eax), %esi
0x000f10f1:  8b 40 04                 movl     4(%eax), %eax
0x000f10f4:  0f b7 40 1a              movzwl   0x1a(%eax), %eax
0x000f10f8:  0f af c6                 imull    %esi, %eax
0x000f10fb:  3d 00 00 01 00           cmpl     $0x10000, %eax
0x000f1100:  7e 0d                    jle      0xf110f

----------------
IN: 
0x000f110f:  89 d8                    movl     %ebx, %eax
0x000f1111:  e8 85 f3 ff ff           calll    0xf049b

----------------
IN: 
0x000f049b:  55                       pushl    %ebp
0x000f049c:  57                       pushl    %edi
0x000f049d:  56                       pushl    %esi
0x000f049e:  53                       pushl    %ebx
0x000f049f:  81 ec ec 00 00 00        subl     $0xec, %esp
0x000f04a5:  89 c5                    movl     %eax, %ebp
0x000f04a7:  8b 40 04                 movl     4(%eax), %eax
0x000f04aa:  89 44 24 0c              movl     %eax, 0xc(%esp)
0x000f04ae:  8a 00                    movb     (%eax), %al
0x000f04b0:  3c 71                    cmpb     $0x71, %al
0x000f04b2:  0f 84 ae 06 00 00        je       0xf0b66

----------------
IN: 
0x000f04b8:  77 24                    ja       0xf04de

----------------
IN: 
0x000f04ba:  3c 51                    cmpb     $0x51, %al
0x000f04bc:  0f 84 8f 00 00 00        je       0xf0551

----------------
IN: 
0x000f04c2:  77 09                    ja       0xf04cd

----------------
IN: 
0x000f04c4:  3c 50                    cmpb     $0x50, %al
0x000f04c6:  74 63                    je       0xf052b

----------------
IN: 
0x000f04c8:  e9 53 05 00 00           jmp      0xf0a20

----------------
IN: 
0x000f0a20:  3c 80                    cmpb     $0x80, %al
0x000f0a22:  0f 84 56 01 00 00        je       0xf0b7e

----------------
IN: 
0x000f0a28:  77 1a                    ja       0xf0a44

----------------
IN: 
0x000f0a2a:  3c 70                    cmpb     $0x70, %al
0x000f0a2c:  0f 84 34 01 00 00        je       0xf0b66

----------------
IN: 
0x000f0a32:  3c 72                    cmpb     $0x72, %al
0x000f0a34:  0f 84 38 01 00 00        je       0xf0b72

----------------
IN: 
0x000f0a3a:  3c 21                    cmpb     $0x21, %al
0x000f0a3c:  0f 85 95 06 00 00        jne      0xf10d7

----------------
IN: 
0x000f0a42:  eb 1b                    jmp      0xf0a5f

----------------
IN: 
0x000f0a5f:  8a 45 08                 movb     8(%ebp), %al
0x000f0a62:  3c 05                    cmpb     $5, %al
0x000f0a64:  0f 84 f2 00 00 00        je       0xf0b5c

----------------
IN: 
0x000f0a6a:  3c 03                    cmpb     $3, %al
0x000f0a6c:  0f 84 ea 00 00 00        je       0xf0b5c

----------------
IN: 
0x000f0a72:  b9 0c 00 00 00           movl     $0xc, %ecx
0x000f0a77:  8d 54 24 4d              leal     0x4d(%esp), %edx
0x000f0a7b:  89 e8                    movl     %ebp, %eax
0x000f0a7d:  e8 04 c9 ff ff           calll    0xed386

----------------
IN: 
0x000ed386:  55                       pushl    %ebp
0x000ed387:  57                       pushl    %edi
0x000ed388:  56                       pushl    %esi
0x000ed389:  53                       pushl    %ebx
0x000ed38a:  89 c3                    movl     %eax, %ebx
0x000ed38c:  8a 40 08                 movb     8(%eax), %al
0x000ed38f:  3c 02                    cmpb     $2, %al
0x000ed391:  72 4c                    jb       0xed3df

----------------
IN: 
0x000ed393:  89 d5                    movl     %edx, %ebp
0x000ed395:  3c 03                    cmpb     $3, %al
0x000ed397:  76 11                    jbe      0xed3aa

----------------
IN: 
0x000ed399:  3c 20                    cmpb     $0x20, %al
0x000ed39b:  75 42                    jne      0xed3df

----------------
IN: 
0x000ed39d:  8b 73 10                 movl     0x10(%ebx), %esi
0x000ed3a0:  89 d7                    movl     %edx, %edi
0x000ed3a2:  f3 a4                    rep movsb (%esi), %es:(%edi)

----------------
IN: 
0x000ed3a2:  f3 a4                    rep movsb (%esi), %es:(%edi)

----------------
IN: 
0x000ed3a4:  0f b7 43 0c              movzwl   0xc(%ebx), %eax
0x000ed3a8:  eb 38                    jmp      0xed3e2

----------------
IN: 
0x000ed3e2:  5b                       popl     %ebx
0x000ed3e3:  5e                       popl     %esi
0x000ed3e4:  5f                       popl     %edi
0x000ed3e5:  5d                       popl     %ebp
0x000ed3e6:  c3                       retl     

----------------
IN: 
0x000f0a82:  89 c7                    movl     %eax, %edi
0x000f0a84:  85 c0                    testl    %eax, %eax
0x000f0a86:  0f 88 fa 04 00 00        js       0xf0f86

----------------
IN: 
0x000f0a8c:  8b 5d 04                 movl     4(%ebp), %ebx
0x000f0a8f:  8b 43 24                 movl     0x24(%ebx), %eax
0x000f0a92:  66 8b 30                 movw     (%eax), %si
0x000f0a95:  66 89 74 24 0c           movw     %si, 0xc(%esp)
0x000f0a9a:  66 8b 70 02              movw     2(%eax), %si
0x000f0a9e:  b9 0c 00 00 00           movl     $0xc, %ecx
0x000f0aa3:  31 d2                    xorl     %edx, %edx
0x000f0aa5:  8d 84 24 80 00 00 00     leal     0x80(%esp), %eax
0x000f0aac:  e8 10 b7 ff ff           calll    0xec1c1

----------------
IN: 
0x000f0ab1:  89 f8                    movl     %edi, %eax
0x000f0ab3:  88 84 24 83 00 00 00     movb     %al, 0x83(%esp)
0x000f0aba:  89 f8                    movl     %edi, %eax
0x000f0abc:  c1 f8 08                 sarl     $8, %eax
0x000f0abf:  88 84 24 84 00 00 00     movb     %al, 0x84(%esp)
0x000f0ac6:  c6 84 24 86 00 00 00 a0  movb     $0xa0, 0x86(%esp)
0x000f0ace:  8d 56 02                 leal     2(%esi), %edx
0x000f0ad1:  66 89 54 24 10           movw     %dx, 0x10(%esp)
0x000f0ad6:  b0 0a                    movb     $0xa, %al
0x000f0ad8:  ee                       outb     %al, %dx
0x000f0ad9:  8d 94 24 80 00 00 00     leal     0x80(%esp), %edx
0x000f0ae0:  89 d8                    movl     %ebx, %eax
0x000f0ae2:  e8 e3 da ff ff           calll    0xee5ca

----------------
IN: 
0x000f0ae7:  89 c3                    movl     %eax, %ebx
0x000f0ae9:  85 c0                    testl    %eax, %eax
0x000f0aeb:  75 60                    jne      0xf0b4d

----------------
IN: 
0x000f0aed:  0f b7 44 24 0c           movzwl   0xc(%esp), %eax
0x000f0af2:  89 44 24 14              movl     %eax, 0x14(%esp)
0x000f0af6:  e8 1e dc ff ff           calll    0xee719

----------------
IN: 
0x000f0afb:  89 c3                    movl     %eax, %ebx
0x000f0afd:  85 c0                    testl    %eax, %eax
0x000f0aff:  75 4c                    jne      0xf0b4d

----------------
IN: 
0x000f0b01:  b9 06 00 00 00           movl     $6, %ecx
0x000f0b06:  8d 74 24 4d              leal     0x4d(%esp), %esi
0x000f0b0a:  8b 54 24 0c              movl     0xc(%esp), %edx
0x000f0b0e:  26 66 f3 6f              rep outsl %es:(%esi), %dx

----------------
IN: 
0x000f0b0e:  26 66 f3 6f              rep outsl %es:(%esi), %dx

----------------
IN: 
0x000f0b12:  8b 54 24 10              movl     0x10(%esp), %edx
0x000f0b16:  ec                       inb      %dx, %al
0x000f0b17:  8b 44 24 14              movl     0x14(%esp), %eax
0x000f0b1b:  e8 9b da ff ff           calll    0xee5bb

----------------
IN: 
0x000f0b20:  85 c0                    testl    %eax, %eax
0x000f0b22:  78 27                    js       0xf0b4b

----------------
IN: 
0x000f0b24:  a8 01                    testb    $1, %al
0x000f0b26:  74 0d                    je       0xf0b35

----------------
IN: 
0x000f0b28:  8b 54 24 0c              movl     0xc(%esp), %edx
0x000f0b2c:  42                       incl     %edx
0x000f0b2d:  ec                       inb      %dx, %al
0x000f0b2e:  bb fe ff ff ff           movl     $0xfffffffe, %ebx
0x000f0b33:  eb 18                    jmp      0xf0b4d

----------------
IN: 
0x000f0b4d:  b0 08                    movb     $8, %al
0x000f0b4f:  8b 54 24 10              movl     0x10(%esp), %edx
0x000f0b53:  ee                       outb     %al, %dx
0x000f0b54:  83 fb 01                 cmpl     $1, %ebx
0x000f0b57:  e9 2e 03 00 00           jmp      0xf0e8a

----------------
IN: 
0x000f0e8a:  19 db                    sbbl     %ebx, %ebx
0x000f0e8c:  f7 d3                    notl     %ebx
0x000f0e8e:  83 e3 0c                 andl     $0xc, %ebx
0x000f0e91:  e9 46 02 00 00           jmp      0xf10dc

----------------
IN: 
0x000f10dc:  89 d8                    movl     %ebx, %eax
0x000f10de:  81 c4 ec 00 00 00        addl     $0xec, %esp
0x000f10e4:  5b                       popl     %ebx
0x000f10e5:  5e                       popl     %esi
0x000f10e6:  5f                       popl     %edi
0x000f10e7:  5d                       popl     %ebp
0x000f10e8:  c3                       retl     

----------------
IN: 
0x000f1116:  31 d2                    xorl     %edx, %edx
0x000f1118:  85 c0                    testl    %eax, %eax
0x000f111a:  74 10                    je       0xf112c

----------------
IN: 
0x000f111c:  0f b7 4b 0a              movzwl   0xa(%ebx), %ecx
0x000f1120:  89 c2                    movl     %eax, %edx
0x000f1122:  39 f1                    cmpl     %esi, %ecx
0x000f1124:  75 06                    jne      0xf112c

----------------
IN: 
0x000f1126:  66 c7 43 0a 00 00        movw     $0, 0xa(%ebx)
0x000f112c:  89 d0                    movl     %edx, %eax
0x000f112e:  5b                       popl     %ebx
0x000f112f:  5e                       popl     %esi
0x000f1130:  c3                       retl     

----------------
IN: 
0x000f119e:  85 c0                    testl    %eax, %eax
0x000f11a0:  0f 84 93 00 00 00        je       0xf1239

----------------
IN: 
0x000f11a6:  b9 10 00 00 00           movl     $0x10, %ecx
0x000f11ab:  31 d2                    xorl     %edx, %edx
0x000f11ad:  89 e8                    movl     %ebp, %eax
0x000f11af:  e8 0d b0 ff ff           calll    0xec1c1

----------------
IN: 
0x000f11b4:  c6 44 24 0a 03           movb     $3, 0xa(%esp)
0x000f11b9:  c6 44 24 0e 12           movb     $0x12, 0xe(%esp)
0x000f11be:  c6 43 08 20              movb     $0x20, 8(%ebx)
0x000f11c2:  66 c7 43 0a 01 00        movw     $1, 0xa(%ebx)
0x000f11c8:  89 33                    movl     %esi, (%ebx)
0x000f11ca:  89 6b 10                 movl     %ebp, 0x10(%ebx)
0x000f11cd:  66 c7 43 0c 12 00        movw     $0x12, 0xc(%ebx)
0x000f11d3:  89 d8                    movl     %ebx, %eax
0x000f11d5:  e8 0f ff ff ff           calll    0xf10e9

----------------
IN: 
0x000f0b35:  85 ff                    testl    %edi, %edi
0x000f0b37:  74 14                    je       0xf0b4d

----------------
IN: 
0x000f0b39:  bb fd ff ff ff           movl     $0xfffffffd, %ebx
0x000f0b3e:  a8 08                    testb    $8, %al
0x000f0b40:  74 0b                    je       0xf0b4d

----------------
IN: 
0x000f0b42:  89 fa                    movl     %edi, %edx
0x000f0b44:  89 e8                    movl     %ebp, %eax
0x000f0b46:  e8 38 db ff ff           calll    0xee683

----------------
IN: 
0x000f0b4b:  89 c3                    movl     %eax, %ebx
0x000f0b4d:  b0 08                    movb     $8, %al
0x000f0b4f:  8b 54 24 10              movl     0x10(%esp), %edx
0x000f0b53:  ee                       outb     %al, %dx
0x000f0b54:  83 fb 01                 cmpl     $1, %ebx
0x000f0b57:  e9 2e 03 00 00           jmp      0xf0e8a

----------------
IN: 
0x000f112c:  89 d0                    movl     %edx, %eax
0x000f112e:  5b                       popl     %ebx
0x000f112f:  5e                       popl     %esi
0x000f1130:  c3                       retl     

----------------
IN: 
0x000f11da:  85 c0                    testl    %eax, %eax
0x000f11dc:  0f 85 70 ff ff ff        jne      0xf1152

----------------
IN: 
0x000f11e2:  8a 44 24 26              movb     0x26(%esp), %al
0x000f11e6:  3c 3a                    cmpb     $0x3a, %al
0x000f11e8:  75 11                    jne      0xf11fb

----------------
IN: 
0x000f11ea:  c7 04 24 92 3d 0f 00     movl     $0xf3d92, (%esp)
0x000f11f1:  e8 cf d0 ff ff           calll    0xee2c5

----------------
IN: 
0x000f11f6:  83 c8 ff                 orl      $0xffffffff, %eax
0x000f11f9:  eb 3e                    jmp      0xf1239

----------------
IN: 
0x000f1239:  83 c4 2c                 addl     $0x2c, %esp
0x000f123c:  5b                       popl     %ebx
0x000f123d:  5e                       popl     %esi
0x000f123e:  5f                       popl     %edi
0x000f123f:  5d                       popl     %ebp
0x000f1240:  c3                       retl     

----------------
IN: 
0x07fb9262:  85 c0                    testl    %eax, %eax
0x07fb9264:  74 07                    je       0x7fb926d

----------------
IN: 
0x07fb9266:  31 c0                    xorl     %eax, %eax
0x07fb9268:  e9 9c 00 00 00           jmp      0x7fb9309

----------------
IN: 
0x07fb9309:  81 c4 20 08 00 00        addl     $0x820, %esp
0x07fb930f:  5b                       popl     %ebx
0x07fb9310:  c3                       retl     

----------------
IN: 
0x07fb932c:  89 c6                    movl     %eax, %esi
0x07fb932e:  85 c0                    testl    %eax, %eax
0x07fb9330:  74 25                    je       0x7fb9357

----------------
IN: 
0x07fb9357:  a1 88 fe fb 07           movl     0x7fbfe88, %eax
0x07fb935c:  89 ea                    movl     %ebp, %edx
0x07fb935e:  85 ed                    testl    %ebp, %ebp
0x07fb9360:  79 02                    jns      0x7fb9364

----------------
IN: 
0x07fb9362:  89 c2                    movl     %eax, %edx
0x07fb9364:  89 1c 24                 movl     %ebx, (%esp)
0x07fb9367:  89 f9                    movl     %edi, %ecx
0x07fb9369:  b8 03 00 00 00           movl     $3, %eax
0x07fb936e:  e8 3d 48 ff ff           calll    0x7fadbb0

----------------
IN: 
0x07fadc15:  3b 7b f8                 cmpl     -8(%ebx), %edi
0x07fadc18:  7c eb                    jl       0x7fadc05

----------------
IN: 
0x07fadc1a:  7f 20                    jg       0x7fadc3c

----------------
IN: 
0x07fadc3c:  89 1c 24                 movl     %ebx, (%esp)
0x07fadc3f:  8b 1b                    movl     (%ebx), %ebx
0x07fadc41:  eb be                    jmp      0x7fadc01

----------------
IN: 
0x07fadc01:  85 db                    testl    %ebx, %ebx
0x07fadc03:  75 10                    jne      0x7fadc15

----------------
IN: 
0x07fb9373:  83 c4 10                 addl     $0x10, %esp
0x07fb9376:  5b                       popl     %ebx
0x07fb9377:  5e                       popl     %esi
0x07fb9378:  5f                       popl     %edi
0x07fb9379:  5d                       popl     %ebp
0x07fb937a:  c3                       retl     

----------------
IN: 
0x07fb95f8:  85 db                    testl    %ebx, %ebx
0x07fb95fa:  74 18                    je       0x7fb9614

----------------
IN: 
0x07fb95fc:  66 8b 84 24 46 01 00 00  movw     0x146(%esp), %ax
0x07fb9604:  80 7c 24 23 00           cmpb     $0, 0x23(%esp)
0x07fb9609:  0f 85 7b 01 00 00        jne      0x7fb978a

----------------
IN: 
0x07fb960f:  e9 6c 01 00 00           jmp      0x7fb9780

----------------
IN: 
0x07fb9780:  66 25 61 df              andw     $0xdf61, %ax
0x07fb9784:  66 3d 41 40              cmpw     $0x4041, %ax
0x07fb9788:  74 14                    je       0x7fb979e

----------------
IN: 
0x07fb978a:  be 01 00 00 00           movl     $1, %esi
0x07fb978f:  fe 44 24 23              incb     0x23(%esp)
0x07fb9793:  80 7c 24 23 02           cmpb     $2, 0x23(%esp)
0x07fb9798:  0f 85 11 fc ff ff        jne      0x7fb93af

----------------
IN: 
0x07fb93af:  8b 44 24 30              movl     0x30(%esp), %eax
0x07fb93b3:  8b 28                    movl     (%eax), %ebp
0x07fb93b5:  0f b7 c5                 movzwl   %bp, %eax
0x07fb93b8:  89 c7                    movl     %eax, %edi
0x07fb93ba:  89 44 24 2c              movl     %eax, 0x2c(%esp)
0x07fb93be:  e8 9e 52 ff ff           calll    0x7fae661

----------------
IN: 
0x07fb94fd:  b9 a1 00 00 00           movl     $0xa1, %ecx
0x07fb9502:  8d 94 24 8c 00 00 00     leal     0x8c(%esp), %edx
0x07fb9509:  8b 7c 24 28              movl     0x28(%esp), %edi
0x07fb950d:  89 f8                    movl     %edi, %eax
0x07fb950f:  e8 9f 50 ff ff           calll    0x7fae5b3

----------------
IN: 
0x07fae653:  b0 08                    movb     $8, %al
0x07fae655:  89 da                    movl     %ebx, %edx
0x07fae657:  ee                       outb     %al, %dx
0x07fae658:  89 c8                    movl     %ecx, %eax
0x07fae65a:  83 c4 20                 addl     $0x20, %esp
0x07fae65d:  5b                       popl     %ebx
0x07fae65e:  5e                       popl     %esi
0x07fae65f:  5f                       popl     %edi
0x07fae660:  c3                       retl     

----------------
IN: 
0x07fb9614:  8d 55 07                 leal     7(%ebp), %edx
0x07fb9617:  ec                       inb      %dx, %al
0x07fb9618:  84 c0                    testb    %al, %al
0x07fb961a:  0f 84 6a 01 00 00        je       0x7fb978a

----------------
IN: 
0x07fb979e:  81 c4 8c 02 00 00        addl     $0x28c, %esp
0x07fb97a4:  5b                       popl     %ebx
0x07fb97a5:  5e                       popl     %esi
0x07fb97a6:  5f                       popl     %edi
0x07fb97a7:  5d                       popl     %ebp
0x07fb97a8:  c3                       retl     

----------------
IN: 
0x07fad981:  89 d8                    movl     %ebx, %eax
0x07fad983:  8b 5b 04                 movl     4(%ebx), %ebx
0x07fad986:  8b 25 a8 60 0f 00        movl     0xf60a8, %esp
0x07fad98c:  e8 29 fa ff ff           calll    0x7fad3ba

----------------
IN: 
0x07fad3ba:  53                       pushl    %ebx
0x07fad3bb:  52                       pushl    %edx
0x07fad3bc:  89 c3                    movl     %eax, %ebx
0x07fad3be:  8d 40 04                 leal     4(%eax), %eax
0x07fad3c1:  e8 9a e1 ff ff           calll    0x7fab560

----------------
IN: 
0x07fad3c6:  89 d8                    movl     %ebx, %eax
0x07fad3c8:  e8 67 ff ff ff           calll    0x7fad334

----------------
IN: 
0x07fad3cd:  81 3d ac 60 0f 00 ac 60  cmpl     $0xf60ac, 0xf60ac
0x07fad3d5:  0f 00
0x07fad3d7:  75 0c                    jne      0x7fad3e5

----------------
IN: 
0x07fad3e5:  58                       popl     %eax
0x07fad3e6:  5b                       popl     %ebx
0x07fad3e7:  c3                       retl     

----------------
IN: 
0x07fad991:  8b 63 fc                 movl     -4(%ebx), %esp
0x07fad994:  5d                       popl     %ebp
0x07fad995:  c3                       retl     

----------------
IN: 
0x000ee73e:  b8 fc ff ff ff           movl     $0xfffffffc, %eax
0x000ee743:  5b                       popl     %ebx
0x000ee744:  c3                       retl     

----------------
IN: 
0x07fb9620:  8b 4c 24 2c              movl     0x2c(%esp), %ecx
0x07fb9624:  ba 40 00 00 00           movl     $0x40, %edx
0x07fb9629:  b8 40 00 00 00           movl     $0x40, %eax
0x07fb962e:  e8 32 4f 13 f8           calll    0xee565

----------------
IN: 
0x07fb9633:  85 c0                    testl    %eax, %eax
0x07fb9635:  0f 88 4f 01 00 00        js       0x7fb978a

----------------
IN: 
0x07fb963b:  b9 ec 00 00 00           movl     $0xec, %ecx
0x07fb9640:  8d 94 24 8c 00 00 00     leal     0x8c(%esp), %edx
0x07fb9647:  8b 7c 24 28              movl     0x28(%esp), %edi
0x07fb964b:  89 f8                    movl     %edi, %eax
0x07fb964d:  e8 61 4f ff ff           calll    0x7fae5b3

----------------
IN: 
0x07fb9652:  85 c0                    testl    %eax, %eax
0x07fb9654:  0f 85 30 01 00 00        jne      0x7fb978a

----------------
IN: 
0x07fb965a:  8d 94 24 8c 00 00 00     leal     0x8c(%esp), %edx
0x07fb9661:  89 f8                    movl     %edi, %eax
0x07fb9663:  e8 8d 47 ff ff           calll    0x7faddf5

----------------
IN: 
0x07fb9668:  89 c3                    movl     %eax, %ebx
0x07fb966a:  85 c0                    testl    %eax, %eax
0x07fb966c:  0f 84 18 01 00 00        je       0x7fb978a

----------------
IN: 
0x07fb9672:  c6 00 20                 movb     $0x20, (%eax)
0x07fb9675:  66 c7 40 1a 00 02        movw     $0x200, 0x1a(%eax)
0x07fb967b:  66 8b 84 24 8e 00 00 00  movw     0x8e(%esp), %ax
0x07fb9683:  66 89 43 1e              movw     %ax, 0x1e(%ebx)
0x07fb9687:  66 8b 84 24 92 00 00 00  movw     0x92(%esp), %ax
0x07fb968f:  66 89 43 1c              movw     %ax, 0x1c(%ebx)
0x07fb9693:  8b 84 24 98 00 00 00     movl     0x98(%esp), %eax
0x07fb969a:  66 89 43 20              movw     %ax, 0x20(%ebx)
0x07fb969e:  f6 84 24 33 01 00 00 04  testb    $4, 0x133(%esp)
0x07fb96a6:  74 10                    je       0x7fb96b8

----------------
IN: 
0x07fb96a8:  8b b4 24 54 01 00 00     movl     0x154(%esp), %esi
0x07fb96af:  8b bc 24 58 01 00 00     movl     0x158(%esp), %edi
0x07fb96b6:  eb 09                    jmp      0x7fb96c1

----------------
IN: 
0x07fb96c1:  89 73 0c                 movl     %esi, 0xc(%ebx)
0x07fb96c4:  89 7b 10                 movl     %edi, 0x10(%ebx)
0x07fb96c7:  0f ac fe 0b              shrdl    $0xb, %edi, %esi
0x07fb96cb:  c1 ef 0b                 shrl     $0xb, %edi
0x07fb96ce:  83 ff 00                 cmpl     $0, %edi
0x07fb96d1:  77 0a                    ja       0x7fb96dd

----------------
IN: 
0x07fb96d3:  b1 4d                    movb     $0x4d, %cl
0x07fb96d5:  81 fe ff ff 00 00        cmpl     $0xffff, %esi
0x07fb96db:  76 09                    jbe      0x7fb96e6

----------------
IN: 
0x07fb96e6:  89 4c 24 24              movl     %ecx, 0x24(%esp)
0x07fb96ea:  8d 84 24 8c 00 00 00     leal     0x8c(%esp), %eax
0x07fb96f1:  e8 52 21 ff ff           calll    0x7fab848

----------------
IN: 
0x07fb96f6:  89 c7                    movl     %eax, %edi
0x07fb96f8:  8d 94 24 8c 00 00 00     leal     0x8c(%esp), %edx
0x07fb96ff:  8d 44 24 37              leal     0x37(%esp), %eax
0x07fb9703:  e8 8a 33 ff ff           calll    0x7faca92

----------------
IN: 
0x07fb9708:  8b 4c 24 24              movl     0x24(%esp), %ecx
0x07fb970c:  0f be c9                 movsbl   %cl, %ecx
0x07fb970f:  89 4c 24 1c              movl     %ecx, 0x1c(%esp)
0x07fb9713:  89 74 24 18              movl     %esi, 0x18(%esp)
0x07fb9717:  89 7c 24 14              movl     %edi, 0x14(%esp)
0x07fb971b:  89 44 24 10              movl     %eax, 0x10(%esp)
0x07fb971f:  0f b6 43 28              movzbl   0x28(%ebx), %eax
0x07fb9723:  89 44 24 0c              movl     %eax, 0xc(%esp)
0x07fb9727:  8b 43 24                 movl     0x24(%ebx), %eax
0x07fb972a:  0f b6 40 08              movzbl   8(%eax), %eax
0x07fb972e:  89 44 24 08              movl     %eax, 8(%esp)
0x07fb9732:  c7 44 24 04 1c 3f 0f 00  movl     $0xf3f1c, 4(%esp)
0x07fb973a:  c7 04 24 50 00 00 00     movl     $0x50, (%esp)
0x07fb9741:  e8 ef 91 ff ff           calll    0x7fb2935

----------------
IN: 
0x000edc16:  8b 55 00                 movl     (%ebp), %edx
0x000edc19:  89 f8                    movl     %edi, %eax
0x000edc1b:  84 c0                    testb    %al, %al
0x000edc1d:  75 05                    jne      0xedc24

----------------
IN: 
0x000edc1f:  83 c5 04                 addl     $4, %ebp
0x000edc22:  eb 03                    jmp      0xedc27

----------------
IN: 
0x07fb9746:  89 c6                    movl     %eax, %esi
0x07fb9748:  89 44 24 04              movl     %eax, 4(%esp)
0x07fb974c:  c7 04 24 18 3f 0f 00     movl     $0xf3f18, (%esp)
0x07fb9753:  e8 6d 4b 13 f8           calll    0xee2c5

----------------
IN: 
0x07fb9758:  8b 43 24                 movl     0x24(%ebx), %eax
0x07fb975b:  0f b6 4b 28              movzbl   0x28(%ebx), %ecx
0x07fb975f:  0f b6 50 07              movzbl   7(%eax), %edx
0x07fb9763:  8b 40 10                 movl     0x10(%eax), %eax
0x07fb9766:  e8 f2 90 ff ff           calll    0x7fb285d

----------------
IN: 
0x07fb976b:  89 c1                    movl     %eax, %ecx
0x07fb976d:  89 f2                    movl     %esi, %edx
0x07fb976f:  89 d8                    movl     %ebx, %eax
0x07fb9771:  e8 cd 44 ff ff           calll    0x7fadc43

----------------
IN: 
0x07fadc43:  56                       pushl    %esi
0x07fadc44:  53                       pushl    %ebx
0x07fadc45:  53                       pushl    %ebx
0x07fadc46:  8b 35 84 fe fb 07        movl     0x7fbfe84, %esi
0x07fadc4c:  89 cb                    movl     %ecx, %ebx
0x07fadc4e:  85 c9                    testl    %ecx, %ecx
0x07fadc50:  79 02                    jns      0x7fadc54

----------------
IN: 
0x07fadc52:  89 f3                    movl     %esi, %ebx
0x07fadc54:  89 14 24                 movl     %edx, (%esp)
0x07fadc57:  89 c1                    movl     %eax, %ecx
0x07fadc59:  89 da                    movl     %ebx, %edx
0x07fadc5b:  b8 02 00 00 00           movl     $2, %eax
0x07fadc60:  e8 4b ff ff ff           calll    0x7fadbb0

----------------
IN: 
0x07fadc65:  58                       popl     %eax
0x07fadc66:  5b                       popl     %ebx
0x07fadc67:  5e                       popl     %esi
0x07fadc68:  c3                       retl     

----------------
IN: 
0x07fb9776:  85 db                    testl    %ebx, %ebx
0x07fb9778:  0f 85 7e fe ff ff        jne      0x7fb95fc

----------------
IN: 
0x07fb088a:  89 0c 24                 movl     %ecx, (%esp)
0x07fb088d:  0f b6 04 3e              movzbl   (%esi, %edi), %eax
0x07fb0891:  ba c8 00 00 00           movl     $0xc8, %edx
0x07fb0896:  e8 67 fe ff ff           calll    0x7fb0702

----------------
IN: 
0x07fb089b:  85 c0                    testl    %eax, %eax
0x07fb089d:  75 22                    jne      0x7fb08c1

----------------
IN: 
0x07fb089f:  47                       incl     %edi
0x07fb08a0:  8b 0c 24                 movl     (%esp), %ecx
0x07fb08a3:  eb e1                    jmp      0x7fb0886

----------------
IN: 
0x07fb0886:  39 cf                    cmpl     %ecx, %edi
0x07fb0888:  7d 1b                    jge      0x7fb08a5

----------------
IN: 
0x07fb0a12:  85 c0                    testl    %eax, %eax
0x07fb0a14:  75 20                    jne      0x7fb0a36

----------------
IN: 
0x07fb0a16:  c6 05 ac b7 0e 00 61     movb     $0x61, 0xeb7ac
0x07fb0a1d:  31 d2                    xorl     %edx, %edx
0x07fb0a1f:  b0 f4                    movb     $0xf4, %al
0x07fb0a21:  e8 11 fd ff ff           calll    0x7fb0737

----------------
IN: 
0x07fad0a3:  eb ed                    jmp      0x7fad092

Servicing hardware INT=0x08
----------------
IN: 
0x07fb0a26:  85 c0                    testl    %eax, %eax
0x07fb0a28:  75 0c                    jne      0x7fb0a36

----------------
IN: 
0x07fb0a2a:  c7 04 24 44 2d 0f 00     movl     $0xf2d44, (%esp)
0x07fb0a31:  e8 8f d8 13 f8           calll    0xee2c5

----------------
IN: 
0x07fb0a36:  83 c4 0c                 addl     $0xc, %esp
0x07fb0a39:  5b                       popl     %ebx
0x07fb0a3a:  5e                       popl     %esi
0x07fb0a3b:  c3                       retl     

----------------
IN: 
0x07fad3d9:  c7 04 24 22 23 0f 00     movl     $0xf2322, (%esp)
0x07fad3e0:  e8 e0 0e 14 f8           calll    0xee2c5

----------------
IN: 
0x07fad0a5:  c3                       retl     

----------------
IN: 
0x07fbc8f4:  e8 54 5d ff ff           calll    0x7fb264d

----------------
IN: 
0x07fb264d:  55                       pushl    %ebp
0x07fb264e:  89 e5                    movl     %esp, %ebp
0x07fb2650:  57                       pushl    %edi
0x07fb2651:  56                       pushl    %esi
0x07fb2652:  53                       pushl    %ebx
0x07fb2653:  83 e4 f8                 andl     $0xfffffff8, %esp
0x07fb2656:  81 ec 18 03 00 00        subl     $0x318, %esp
0x07fb265c:  c7 04 24 8f 32 0f 00     movl     $0xf328f, (%esp)
0x07fb2663:  e8 5d bc 13 f8           calll    0xee2c5

----------------
IN: 
0x07fb2668:  b9 00 03 00 00           movl     $0x300, %ecx
0x07fb266d:  31 d2                    xorl     %edx, %edx
0x07fb266f:  8d 44 24 18              leal     0x18(%esp), %eax
0x07fb2673:  e8 49 9b 13 f8           calll    0xec1c1

----------------
IN: 
0x07fb2678:  8b 1d 98 fe fb 07        movl     0x7fbfe98, %ebx
0x07fb267e:  a1 38 fe fb 07           movl     0x7fbfe38, %eax
0x07fb2683:  8d 70 fc                 leal     -4(%eax), %esi
0x07fb2686:  83 fe fc                 cmpl     $0xfc, %esi
0x07fb2689:  74 26                    je       0x7fb26b1

----------------
IN: 
0x07fb268b:  8b 46 14                 movl     0x14(%esi), %eax
0x07fb268e:  24 7f                    andb     $0x7f, %al
0x07fb2690:  66 3d 00 03              cmpw     $0x300, %ax
0x07fb2694:  74 13                    je       0x7fb26a9

----------------
IN: 
0x07fb2696:  83 7e 1c 00              cmpl     $0, 0x1c(%esi)
0x07fb269a:  75 0d                    jne      0x7fb26a9

----------------
IN: 
0x07fb269c:  8d 4c 24 18              leal     0x18(%esp), %ecx
0x07fb26a0:  31 d2                    xorl     %edx, %edx
0x07fb26a2:  89 f0                    movl     %esi, %eax
0x07fb26a4:  e8 2c fd ff ff           calll    0x7fb23d5

----------------
IN: 
0x07faec76:  89 f1                    movl     %esi, %ecx
0x07faec78:  ba 30 00 00 00           movl     $0x30, %edx
0x07faec7d:  89 f8                    movl     %edi, %eax
0x07faec7f:  e8 48 d5 13 f8           calll    0xec1cc

----------------
IN: 
0x07faec84:  31 db                    xorl     %ebx, %ebx
0x07faec86:  89 d8                    movl     %ebx, %eax
0x07faec88:  83 c4 10                 addl     $0x10, %esp
0x07faec8b:  5b                       popl     %ebx
0x07faec8c:  5e                       popl     %esi
0x07faec8d:  5f                       popl     %edi
0x07faec8e:  5d                       popl     %ebp
0x07faec8f:  c3                       retl     

----------------
IN: 
0x07fb26a9:  8b 76 04                 movl     4(%esi), %esi
0x07fb26ac:  83 ee 04                 subl     $4, %esi
0x07fb26af:  eb d5                    jmp      0x7fb2686

----------------
IN: 
0x07fb2686:  83 fe fc                 cmpl     $0xfc, %esi
0x07fb2689:  74 26                    je       0x7fb26b1

----------------
IN: 
0x07fb243e:  8d 90 00 00 f4 ff        leal     -0xc0000(%eax), %edx
0x07fb2444:  c1 ea 0b                 shrl     $0xb, %edx
0x07fb2447:  89 1c d6                 movl     %ebx, (%esi, %edx, 8)
0x07fb244a:  c7 44 d6 04 02 00 00 00  movl     $2, 4(%esi, %edx, 8)
0x07fb2452:  0f b7 13                 movzwl   (%ebx), %edx
0x07fb2455:  89 f9                    movl     %edi, %ecx
0x07fb2457:  e8 34 c8 ff ff           calll    0x7faec90

----------------
IN: 
0x07faed4d:  0f b7 43 1a              movzwl   0x1a(%ebx), %eax
0x07faed51:  01 d8                    addl     %ebx, %eax
0x07faed53:  81 38 24 50 6e 50        cmpl     $0x506e5024, (%eax)
0x07faed59:  75 13                    jne      0x7faed6e

----------------
IN: 
0x07faed5b:  85 c0                    testl    %eax, %eax
0x07faed5d:  74 0f                    je       0x7faed6e

----------------
IN: 
0x000c9803:  e9 a2 00                 jmp      0x98a8

----------------
IN: 
0x000c98a8:  60                       pushaw   
0x000c98a9:  1e                       pushw    %ds
0x000c98aa:  06                       pushw    %es
0x000c98ab:  0f a0                    pushw    %fs
0x000c98ad:  0f a8                    pushw    %gs
0x000c98af:  fc                       cld      
0x000c98b0:  0e                       pushw    %cs
0x000c98b1:  1f                       popw     %ds
0x000c98b2:  be 27 03                 movw     $0x327, %si
0x000c98b5:  31 ff                    xorw     %di, %di
0x000c98b7:  e8 4c 04                 callw    0x9d06

----------------
IN: 
0x000c9d06:  50                       pushw    %ax
0x000c9d07:  ac                       lodsb    (%si), %al
0x000c9d08:  84 c0                    testb    %al, %al
0x000c9d0a:  74 05                    je       0x9d11

----------------
IN: 
0x000c9d0c:  e8 d0 ff                 callw    0x9cdf

----------------
IN: 
0x000c9cdf:  50                       pushw    %ax
0x000c9ce0:  53                       pushw    %bx
0x000c9ce1:  55                       pushw    %bp
0x000c9ce2:  85 ff                    testw    %di, %di
0x000c9ce4:  74 05                    je       0x9ceb

----------------
IN: 
0x000c9ceb:  bb 07 00                 movw     $7, %bx
0x000c9cee:  b4 0e                    movb     $0xe, %ah
0x000c9cf0:  3c 0a                    cmpb     $0xa, %al
0x000c9cf2:  75 04                    jne      0x9cf8

----------------
IN: 
0x000c9cf4:  cd 10                    int      $0x10

----------------
IN: 
0x000c9cf6:  b0 0d                    movb     $0xd, %al
0x000c9cf8:  cd 10                    int      $0x10

----------------
IN: 
0x000c9cfa:  5d                       popw     %bp
0x000c9cfb:  5b                       popw     %bx
0x000c9cfc:  58                       popw     %ax
0x000c9cfd:  c3                       retw     

----------------
IN: 
0x000c9d0f:  eb f6                    jmp      0x9d07

----------------
IN: 
0x000c9d07:  ac                       lodsb    (%si), %al
0x000c9d08:  84 c0                    testb    %al, %al
0x000c9d0a:  74 05                    je       0x9d11

----------------
IN: 
0x000c9cf8:  cd 10                    int      $0x10

----------------
IN: 
0x000c9d11:  58                       popw     %ax
0x000c9d12:  c3                       retw     

----------------
IN: 
0x000c98ba:  8e eb                    movw     %bx, %gs
0x000c98bc:  31 ff                    xorw     %di, %di
0x000c98be:  e8 3d 04                 callw    0x9cfe

----------------
IN: 
0x000c9cfe:  50                       pushw    %ax
0x000c9cff:  b0 20                    movb     $0x20, %al
0x000c9d01:  e8 db ff                 callw    0x9cdf

----------------
IN: 
0x000c9d04:  58                       popw     %ax
0x000c9d05:  c3                       retw     

----------------
IN: 
0x000c98c1:  a3 79 03                 movw     %ax, 0x379
0x000c98c4:  e8 74 04                 callw    0x9d3b

----------------
IN: 
0x000c9d3b:  50                       pushw    %ax
0x000c9d3c:  86 c4                    xchgb    %al, %ah
0x000c9d3e:  e8 e4 ff                 callw    0x9d25

----------------
IN: 
0x000c9d25:  c0 c8 04                 rorb     $4, %al
0x000c9d28:  e8 03 00                 callw    0x9d2e

----------------
IN: 
0x000c9d2e:  50                       pushw    %ax
0x000c9d2f:  24 0f                    andb     $0xf, %al
0x000c9d31:  3c 0a                    cmpb     $0xa, %al
0x000c9d33:  1c 69                    sbbb     $0x69, %al
0x000c9d35:  2f                       das      
0x000c9d36:  e8 a6 ff                 callw    0x9cdf

----------------
IN: 
0x000c9d39:  58                       popw     %ax
0x000c9d3a:  c3                       retw     

----------------
IN: 
0x000c9d2b:  c0 c8 04                 rorb     $4, %al
0x000c9d2e:  50                       pushw    %ax
0x000c9d2f:  24 0f                    andb     $0xf, %al
0x000c9d31:  3c 0a                    cmpb     $0xa, %al
0x000c9d33:  1c 69                    sbbb     $0x69, %al
0x000c9d35:  2f                       das      
0x000c9d36:  e8 a6 ff                 callw    0x9cdf

----------------
IN: 
0x000c9d41:  b0 3a                    movb     $0x3a, %al
0x000c9d43:  e8 99 ff                 callw    0x9cdf

----------------
IN: 
0x000c9d46:  88 e0                    movb     %ah, %al
0x000c9d48:  c0 e8 03                 shrb     $3, %al
0x000c9d4b:  e8 d7 ff                 callw    0x9d25

----------------
IN: 
0x000c9d4e:  b0 2e                    movb     $0x2e, %al
0x000c9d50:  e8 8c ff                 callw    0x9cdf

----------------
IN: 
0x000c9d53:  88 e0                    movb     %ah, %al
0x000c9d55:  24 07                    andb     $7, %al
0x000c9d57:  e8 d4 ff                 callw    0x9d2e

----------------
IN: 
0x000c9d5a:  58                       popw     %ax
0x000c9d5b:  c3                       retw     

----------------
IN: 
0x000c98c7:  bf 7a 00                 movw     $0x7a, %di
0x000c98ca:  e8 6e 04                 callw    0x9d3b

----------------
IN: 
0x000c9ce6:  88 05                    movb     %al, (%di)
0x000c9ce8:  47                       incw     %di
0x000c9ce9:  eb 0f                    jmp      0x9cfa

----------------
IN: 
0x000c98cd:  c6 06 74 00 20           movb     $0x20, 0x74
0x000c98d2:  31 ff                    xorw     %di, %di
0x000c98d4:  e8 27 04                 callw    0x9cfe

----------------
IN: 
0x000c98d7:  8c c8                    movw     %cs, %ax
0x000c98d9:  e8 42 04                 callw    0x9d1e

----------------
IN: 
0x000c9d1e:  86 c4                    xchgb    %al, %ah
0x000c9d20:  e8 02 00                 callw    0x9d25

----------------
IN: 
0x000c9d23:  86 c4                    xchgb    %al, %ah
0x000c9d25:  c0 c8 04                 rorb     $4, %al
0x000c9d28:  e8 03 00                 callw    0x9d2e

----------------
IN: 
0x000c98dc:  66 53                    pushl    %ebx
0x000c98de:  66 52                    pushl    %edx
0x000c98e0:  66 57                    pushl    %edi
0x000c98e2:  f9                       stc      
0x000c98e3:  b8 01 b1                 movw     $0xb101, %ax
0x000c98e6:  cd 1a                    int      $0x1a

----------------
IN: 
0x000ffe6e:  80 fc b1                 cmpb     $0xb1, %ah
0x000ffe71:  0f 84 c7 d3              je       0xd23c

----------------
IN: 
0x000fd23c:  fa                       cli      
0x000fd23d:  fc                       cld      
0x000fd23e:  66 50                    pushl    %eax
0x000fd240:  66 51                    pushl    %ecx
0x000fd242:  66 52                    pushl    %edx
0x000fd244:  66 53                    pushl    %ebx
0x000fd246:  66 55                    pushl    %ebp
0x000fd248:  66 56                    pushl    %esi
0x000fd24a:  66 57                    pushl    %edi
0x000fd24c:  06                       pushw    %es
0x000fd24d:  1e                       pushw    %ds
0x000fd24e:  8c d0                    movw     %ss, %ax
0x000fd250:  8e d8                    movw     %ax, %ds
0x000fd252:  66 89 e3                 movl     %esp, %ebx
0x000fd255:  66 0f b7 e4              movzwl   %sp, %esp
0x000fd259:  66 89 e0                 movl     %esp, %eax
0x000fd25c:  66 e8 ec f8 ff ff        calll    0xfcb4e

----------------
IN: 
0x000fcb4e:  66 55                    pushl    %ebp
0x000fcb50:  66 57                    pushl    %edi
0x000fcb52:  66 56                    pushl    %esi
0x000fcb54:  66 53                    pushl    %ebx
0x000fcb56:  66 89 c3                 movl     %eax, %ebx
0x000fcb59:  67 8a 40 1c              movb     0x1c(%eax), %al
0x000fcb5d:  3c 09                    cmpb     $9, %al
0x000fcb5f:  0f 84 e1 01              je       0xcd44

----------------
IN: 
0x000fcb63:  77 7f                    ja       0xcbe4

----------------
IN: 
0x000fcb65:  3c 02                    cmpb     $2, %al
0x000fcb67:  0f 84 d8 00              je       0xcc43

----------------
IN: 
0x000fcb6b:  77 2f                    ja       0xcb9c

----------------
IN: 
0x000fcb6d:  fe c8                    decb     %al
0x000fcb6f:  0f 85 29 03              jne      0xce9c

----------------
IN: 
0x000fcb73:  67 c6 43 1c 01           movb     $1, 0x1c(%ebx)
0x000fcb78:  67 c7 43 10 10 02        movw     $0x210, 0x10(%ebx)
0x000fcb7e:  2e 66 a1 6c 5c           movl     %cs:0x5c6c, %eax
0x000fcb83:  67 88 43 18              movb     %al, 0x18(%ebx)
0x000fcb87:  67 66 c7 43 14 50 43 49  movl     $0x20494350, 0x14(%ebx)
0x000fcb8f:  20
0x000fcb90:  67 66 c7 43 04 0e d2 0f  movl     $0xfd20e, 4(%ebx)
0x000fcb98:  00
0x000fcb99:  e9 f2 02                 jmp      0xce8e

----------------
IN: 
0x000fce8e:  66 89 d8                 movl     %ebx, %eax
0x000fce91:  66 5b                    popl     %ebx
0x000fce93:  66 5e                    popl     %esi
0x000fce95:  66 5f                    popl     %edi
0x000fce97:  66 5d                    popl     %ebp
0x000fce99:  e9 18 14                 jmp      0xe2b4

----------------
IN: 
0x000fe2b4:  67 c6 40 1d 00           movb     $0, 0x1d(%eax)
0x000fe2b9:  67 83 60 24 fe           andw     $0xfffe, 0x24(%eax)
0x000fe2be:  66 c3                    retl     

----------------
IN: 
0x000fd262:  66 89 dc                 movl     %ebx, %esp
0x000fd265:  1f                       popw     %ds
0x000fd266:  07                       popw     %es
0x000fd267:  66 5f                    popl     %edi
0x000fd269:  66 5e                    popl     %esi
0x000fd26b:  66 5d                    popl     %ebp
0x000fd26d:  66 5b                    popl     %ebx
0x000fd26f:  66 5a                    popl     %edx
0x000fd271:  66 59                    popl     %ecx
0x000fd273:  66 58                    popl     %eax
0x000fd275:  cf                       iretw    

----------------
IN: 
0x000c98e8:  72 56                    jb       0x9940

----------------
IN: 
0x000c98ea:  66 81 fa 50 43 49 20     cmpl     $0x20494350, %edx
0x000c98f1:  75 4d                    jne      0x9940

----------------
IN: 
0x000c98f3:  84 e4                    testb    %ah, %ah
0x000c98f5:  75 49                    jne      0x9940

----------------
IN: 
0x000c98f7:  be 40 03                 movw     $0x340, %si
0x000c98fa:  31 ff                    xorw     %di, %di
0x000c98fc:  e8 07 04                 callw    0x9d06

----------------
IN: 
0x000c98ff:  88 f8                    movb     %bh, %al
0x000c9901:  e8 2a 04                 callw    0x9d2e

----------------
IN: 
0x000c9904:  b0 2e                    movb     $0x2e, %al
0x000c9906:  e8 d6 03                 callw    0x9cdf

----------------
IN: 
0x000c9909:  88 d8                    movb     %bl, %al
0x000c990b:  e8 17 04                 callw    0x9d25

----------------
IN: 
0x000c990e:  80 ff 03                 cmpb     $3, %bh
0x000c9911:  72 2d                    jb       0x9940

----------------
IN: 
0x000c9940:  0e                       pushw    %cs
0x000c9941:  0f a9                    popw     %gs
0x000c9943:  66 5f                    popl     %edi
0x000c9945:  66 5a                    popl     %edx
0x000c9947:  66 5b                    popl     %ebx
0x000c9949:  bb ff ef                 movw     $0xefff, %bx
0x000c994c:  43                       incw     %bx
0x000c994d:  74 2a                    je       0x9979

----------------
IN: 
0x000c994f:  8e c3                    movw     %bx, %es
0x000c9951:  26 66 81 3e 00 00 24 50  cmpl     $0x506e5024, %es:0
0x000c9959:  6e 50
0x000c995b:  75 ef                    jne      0x994c

----------------
IN: 
0x000c994c:  43                       incw     %bx
0x000c994d:  74 2a                    je       0x9979

----------------
IN: 
0x000c995d:  31 d2                    xorw     %dx, %dx
0x000c995f:  31 f6                    xorw     %si, %si
0x000c9961:  26 0f b6 0e 05 00        movzbw   %es:5, %cx
0x000c9967:  26 ac                    lodsb    %es:(%si), %al
0x000c9969:  00 c2                    addb     %al, %dl
0x000c996b:  e2 fa                    loop     0x9967

----------------
IN: 
0x000c9967:  26 ac                    lodsb    %es:(%si), %al
0x000c9969:  00 c2                    addb     %al, %dl
0x000c996b:  e2 fa                    loop     0x9967

----------------
IN: 
0x000c996d:  75 dd                    jne      0x994c

----------------
IN: 
0x000c996f:  be 45 03                 movw     $0x345, %si
0x000c9972:  31 ff                    xorw     %di, %di
0x000c9974:  e8 8f 03                 callw    0x9d06

----------------
IN: 
0x000c9977:  eb 00                    jmp      0x9979

----------------
IN: 
0x000c9979:  bb ff df                 movw     $0xdfff, %bx
0x000c997c:  43                       incw     %bx
0x000c997d:  0f 84 ad 00              je       0x9a2e

----------------
IN: 
0x000c9981:  8e c3                    movw     %bx, %es
0x000c9983:  26 66 81 3e 00 00 24 50  cmpl     $0x4d4d5024, %es:0
0x000c998b:  4d 4d
0x000c998d:  75 ed                    jne      0x997c

----------------
IN: 
0x000c997c:  43                       incw     %bx
0x000c997d:  0f 84 ad 00              je       0x9a2e

----------------
IN: 
0x000c998f:  31 d2                    xorw     %dx, %dx
0x000c9991:  31 f6                    xorw     %si, %si
0x000c9993:  26 0f b6 0e 05 00        movzbw   %es:5, %cx
0x000c9999:  26 ac                    lodsb    %es:(%si), %al
0x000c999b:  00 c2                    addb     %al, %dl
0x000c999d:  e2 fa                    loop     0x9999

----------------
IN: 
0x000c9999:  26 ac                    lodsb    %es:(%si), %al
0x000c999b:  00 c2                    addb     %al, %dl
0x000c999d:  e2 fa                    loop     0x9999

----------------
IN: 
0x000c999f:  75 db                    jne      0x997c

----------------
IN: 
0x000c99a1:  be 4a 03                 movw     $0x34a, %si
0x000c99a4:  31 ff                    xorw     %di, %di
0x000c99a6:  e8 5d 03                 callw    0x9d06

----------------
IN: 
0x000c99a9:  66 60                    pushal   
0x000c99ab:  66 0f b6 0e 02 00        movzbl   2, %ecx
0x000c99b1:  03 0e 7f 03              addw     0x37f, %cx
0x000c99b5:  83 c1 07                 addw     $7, %cx
0x000c99b8:  83 e1 f8                 andw     $0xfff8, %cx
0x000c99bb:  66 c1 e1 05              shll     $5, %ecx
0x000c99bf:  66 bb 00 10 ae 18        movl     $0x18ae1000, %ebx
0x000c99c5:  bd 0e 03                 movw     $0x30e, %bp
0x000c99c8:  e8 ef 00                 callw    0x9aba

----------------
IN: 
0x000c9aba:  66 50                    pushl    %eax
0x000c9abc:  57                       pushw    %di
0x000c9abd:  bf 20 00                 movw     $0x20, %di
0x000c9ac0:  66 53                    pushl    %ebx
0x000c9ac2:  6a 01                    pushw    $1
0x000c9ac4:  26 ff 1e 07 00           lcallw   *%es:7

----------------
IN: 
0x07fbde3e:  8b 4b 02                 movl     2(%ebx), %ecx
0x07fbde41:  31 db                    xorl     %ebx, %ebx
0x07fbde43:  31 d2                    xorl     %edx, %edx
0x07fbde45:  83 f9 ff                 cmpl     $0xff, %ecx
0x07fbde48:  74 29                    je       0x7fbde73

----------------
IN: 
0x07fbde4a:  8b 04 95 9c fe fb 07     movl     0x7fbfe9c(, %edx, 4), %eax
0x07fbde51:  8b 00                    movl     (%eax), %eax
0x07fbde53:  85 c0                    testl    %eax, %eax
0x07fbde55:  74 0f                    je       0x7fbde66

----------------
IN: 
0x07fbde57:  3b 40 08                 cmpl     8(%eax), %eax
0x07fbde5a:  75 f5                    jne      0x7fbde51

----------------
IN: 
0x07fbde51:  8b 00                    movl     (%eax), %eax
0x07fbde53:  85 c0                    testl    %eax, %eax
0x07fbde55:  74 0f                    je       0x7fbde66

----------------
IN: 
0x07fbde66:  42                       incl     %edx
0x07fbde67:  83 fa 05                 cmpl     $5, %edx
0x07fbde6a:  75 de                    jne      0x7fbde4a

----------------
IN: 
0x07fbde5c:  39 48 28                 cmpl     %ecx, 0x28(%eax)
0x07fbde5f:  75 f0                    jne      0x7fbde51

----------------
IN: 
0x07fbde6c:  31 db                    xorl     %ebx, %ebx
0x07fbde6e:  eb 03                    jmp      0x7fbde73

----------------
IN: 
0x000c9ac9:  83 c4 06                 addw     $6, %sp
0x000c9acc:  52                       pushw    %dx
0x000c9acd:  50                       pushw    %ax
0x000c9ace:  66 5e                    popl     %esi
0x000c9ad0:  66 46                    incl     %esi
0x000c9ad2:  74 0c                    je       0x9ae0

----------------
IN: 
0x000c9ad4:  66 4e                    decl     %esi
0x000c9ad6:  74 08                    je       0x9ae0

----------------
IN: 
0x000c9ae0:  6a 02                    pushw    $2
0x000c9ae2:  66 53                    pushl    %ebx
0x000c9ae4:  66 51                    pushl    %ecx
0x000c9ae6:  6a 00                    pushw    $0
0x000c9ae8:  26 ff 1e 07 00           lcallw   *%es:7

----------------
IN: 
0x07fbdd0b:  bd b0 fe fb 07           movl     $0x7fbfeb0, %ebp
0x07fbdd10:  b8 b4 fe fb 07           movl     $0x7fbfeb4, %eax
0x07fbdd15:  eb 0a                    jmp      0x7fbdd21

----------------
IN: 
0x07fbdd21:  85 ff                    testl    %edi, %edi
0x07fbdd23:  75 46                    jne      0x7fbdd6b

----------------
IN: 
0x07fbddb0:  89 f1                    movl     %esi, %ecx
0x07fbddb2:  89 fa                    movl     %edi, %edx
0x07fbddb4:  89 e8                    movl     %ebp, %eax
0x07fbddb6:  e8 9a fa fe ff           calll    0x7fad855

----------------
IN: 
0x07fbddbb:  89 c3                    movl     %eax, %ebx
0x07fbddbd:  85 c0                    testl    %eax, %eax
0x07fbddbf:  75 54                    jne      0x7fbde15

----------------
IN: 
0x07fbde15:  85 db                    testl    %ebx, %ebx
0x07fbde17:  74 5a                    je       0x7fbde73

----------------
IN: 
0x07fbde20:  89 d8                    movl     %ebx, %eax
0x07fbde22:  e8 a1 da fe ff           calll    0x7fab8c8

----------------
IN: 
0x07fbde27:  85 c0                    testl    %eax, %eax
0x07fbde29:  74 48                    je       0x7fbde73

----------------
IN: 
0x07fbde2b:  39 d8                    cmpl     %ebx, %eax
0x07fbde2d:  74 44                    je       0x7fbde73

----------------
IN: 
0x07fbde2f:  83 78 10 00              cmpl     $0, 0x10(%eax)
0x07fbde33:  74 3e                    je       0x7fbde73

----------------
IN: 
0x07fbde35:  8b 4c 24 0c              movl     0xc(%esp), %ecx
0x07fbde39:  89 48 14                 movl     %ecx, 0x14(%eax)
0x07fbde3c:  eb 35                    jmp      0x7fbde73

----------------
IN: 
0x000c9aed:  83 c4 0c                 addw     $0xc, %sp
0x000c9af0:  52                       pushw    %dx
0x000c9af1:  50                       pushw    %ax
0x000c9af2:  66 5e                    popl     %esi
0x000c9af4:  bf 2b 00                 movw     $0x2b, %di
0x000c9af7:  89 f8                    movw     %di, %ax
0x000c9af9:  31 ff                    xorw     %di, %di
0x000c9afb:  e8 e1 01                 callw    0x9cdf

----------------
IN: 
0x000c9afe:  66 89 f0                 movl     %esi, %eax
0x000c9b01:  e8 0f 02                 callw    0x9d13

----------------
IN: 
0x000c9d13:  66 c1 c8 10              rorl     $0x10, %eax
0x000c9d17:  e8 04 00                 callw    0x9d1e

----------------
IN: 
0x000c9d1a:  66 c1 c8 10              rorl     $0x10, %eax
0x000c9d1e:  86 c4                    xchgb    %al, %ah
0x000c9d20:  e8 02 00                 callw    0x9d25

----------------
IN: 
0x000c9b04:  66 46                    incl     %esi
0x000c9b06:  74 02                    je       0x9b0a

----------------
IN: 
0x000c9b08:  66 4e                    decl     %esi
0x000c9b0a:  5f                       popw     %di
0x000c9b0b:  66 58                    popl     %eax
0x000c9b0d:  c3                       retw     

----------------
IN: 
0x000c99cb:  66 89 36 7b 03           movl     %esi, 0x37b
0x000c99d0:  74 20                    je       0x99f2

----------------
IN: 
0x000c99d2:  06                       pushw    %es
0x000c99d3:  31 c0                    xorw     %ax, %ax
0x000c99d5:  8e c0                    movw     %ax, %es
0x000c99d7:  66 89 f7                 movl     %esi, %edi
0x000c99da:  66 31 f6                 xorl     %esi, %esi
0x000c99dd:  66 0f b6 0e 02 00        movzbl   2, %ecx
0x000c99e3:  66 c1 e1 07              shll     $7, %ecx
0x000c99e7:  67 66 f3 a5              rep movsl (%esi), %es:(%edi)

----------------
IN: 
0x000c99e7:  67 66 f3 a5              rep movsl (%esi), %es:(%edi)

----------------
IN: 
0x000c99eb:  07                       popw     %es
0x000c99ec:  a0 a2 00                 movb     0xa2, %al
0x000c99ef:  a2 02 00                 movb     %al, 2
0x000c99f2:  66 b9 9f 9e 00 00        movl     $0x9e9f, %ecx
0x000c99f8:  66 81 c1 ff 20 00 00     addl     $0x20ff, %ecx
0x000c99ff:  66 81 e1 00 e0 ff ff     andl     $0xffffe000, %ecx
0x000c9a06:  66 89 cb                 movl     %ecx, %ebx
0x000c9a09:  c1 eb 0c                 shrw     $0xc, %bx
0x000c9a0c:  66 81 cb 00 20 ae 18     orl      $0x18ae2000, %ebx
0x000c9a13:  bd 25 03                 movw     $0x325, %bp
0x000c9a16:  e8 a1 00                 callw    0x9aba

----------------
IN: 
0x000c9a19:  66 81 c6 ff 0f 00 00     addl     $0xfff, %esi
0x000c9a20:  66 81 e6 00 f0 ff ff     andl     $0xfffff000, %esi
0x000c9a27:  66 89 36 81 03           movl     %esi, 0x381
0x000c9a2c:  66 61                    popal    
0x000c9a2e:  31 db                    xorw     %bx, %bx
0x000c9a30:  31 f6                    xorw     %si, %si
0x000c9a32:  0f b6 0e 02 00           movzbw   2, %cx
0x000c9a37:  c1 e1 09                 shlw     $9, %cx
0x000c9a3a:  ac                       lodsb    (%si), %al
0x000c9a3b:  00 c3                    addb     %al, %bl
0x000c9a3d:  e2 fb                    loop     0x9a3a

----------------
IN: 
0x000c9a3a:  ac                       lodsb    (%si), %al
0x000c9a3b:  00 c3                    addb     %al, %bl
0x000c9a3d:  e2 fb                    loop     0x9a3a

----------------
IN: 
0x000c9a3f:  28 1e 06 00              subb     %bl, 6
0x000c9a43:  8c e8                    movw     %gs, %ax
0x000c9a45:  8e c0                    movw     %ax, %es
0x000c9a47:  0f b6 0e 02 00           movzbw   2, %cx
0x000c9a4c:  31 ff                    xorw     %di, %di
0x000c9a4e:  e8 ad 02                 callw    0x9cfe

----------------
IN: 
0x000c9a51:  e8 ca 02                 callw    0x9d1e

----------------
IN: 
0x000c9a54:  8c ce                    movw     %cs, %si
0x000c9a56:  39 f0                    cmpw     %si, %ax
0x000c9a58:  74 0d                    je       0x9a67

----------------
IN: 
0x000c9a67:  c1 e1 09                 shlw     $9, %cx
0x000c9a6a:  31 f6                    xorw     %si, %si
0x000c9a6c:  31 ff                    xorw     %di, %di
0x000c9a6e:  2e f3 a4                 rep movsb %cs:(%si), %es:(%di)

----------------
IN: 
0x000c9a6e:  2e f3 a4                 rep movsb %cs:(%si), %es:(%di)

----------------
IN: 
0x000c9a6e:  2e f3 a4                 rep movsb %cs:(%si), %es:(%di)

----------------
IN: 
0x000c9a6e:  2e f3 a4                 rep movsb %cs:(%si), %es:(%di)

----------------
IN: 
0x000c9a6e:  2e f3 a4                 rep movsb %cs:(%si), %es:(%di)

----------------
IN: 
0x000c9a6e:  2e f3 a4                 rep movsb %cs:(%si), %es:(%di)

----------------
IN: 
0x000c9a6e:  2e f3 a4                 rep movsb %cs:(%si), %es:(%di)

----------------
IN: 
0x000c9a6e:  2e f3 a4                 rep movsb %cs:(%si), %es:(%di)

----------------
IN: 
0x000c9a71:  f6 06 79 03 07           testb    $7, 0x379
0x000c9a76:  75 30                    jne      0x9aa8

----------------
IN: 
0x000c9a78:  be 56 03                 movw     $0x356, %si
0x000c9a7b:  31 ff                    xorw     %di, %di
0x000c9a7d:  e8 86 02                 callw    0x9d06

----------------
IN: 
0x000c9d06:  50                       pushw    %ax
0x000c9d07:  ac                       lodsb    (%si), %al
0x000c9d08:  84 c0                    testb    %al, %al
0x000c9d0a:  74 05                    je       0x9d11

----------------
IN: 
0x000c9d0c:  e8 d0 ff                 callw    0x9cdf

----------------
IN: 
0x000c9cdf:  50                       pushw    %ax
0x000c9ce0:  53                       pushw    %bx
0x000c9ce1:  55                       pushw    %bp
0x000c9ce2:  85 ff                    testw    %di, %di
0x000c9ce4:  74 05                    je       0x9ceb

----------------
IN: 
0x000c9ceb:  bb 07 00                 movw     $7, %bx
0x000c9cee:  b4 0e                    movb     $0xe, %ah
0x000c9cf0:  3c 0a                    cmpb     $0xa, %al
0x000c9cf2:  75 04                    jne      0x9cf8

----------------
IN: 
0x000c9cf4:  cd 10                    int      $0x10

----------------
IN: 
0x000c9cf6:  b0 0d                    movb     $0xd, %al
0x000c9cf8:  cd 10                    int      $0x10

----------------
IN: 
0x000c9cfa:  5d                       popw     %bp
0x000c9cfb:  5b                       popw     %bx
0x000c9cfc:  58                       popw     %ax
0x000c9cfd:  c3                       retw     

----------------
IN: 
0x000c9d0f:  eb f6                    jmp      0x9d07

----------------
IN: 
0x000c9d07:  ac                       lodsb    (%si), %al
0x000c9d08:  84 c0                    testb    %al, %al
0x000c9d0a:  74 05                    je       0x9d11

----------------
IN: 
0x000c9cf8:  cd 10                    int      $0x10

----------------
IN: 
0x000c9d11:  58                       popw     %ax
0x000c9d12:  c3                       retw     

----------------
IN: 
0x000c9a80:  be 70 00                 movw     $0x70, %si
0x000c9a83:  e8 80 02                 callw    0x9d06

----------------
IN: 
0x000c9a86:  be 72 03                 movw     $0x372, %si
0x000c9a89:  e8 7a 02                 callw    0x9d06

----------------
IN: 
0x000c9a8c:  bb 02 ff                 movw     $0xff02, %bx
0x000c9a8f:  e8 c7 01                 callw    0x9c59

----------------
IN: 
0x000c9c59:  51                       pushw    %cx
0x000c9c5a:  50                       pushw    %ax
0x000c9c5b:  b4 01                    movb     $1, %ah
0x000c9c5d:  cd 16                    int      $0x16

----------------
IN: 
0x000fe82e:  66 68 14 bc 00 00        pushl    $0xbc14
0x000fe834:  e9 6c eb                 jmp      0xd3a3

----------------
IN: 
0x000fd3a3:  fa                       cli      
0x000fd3a4:  fc                       cld      
0x000fd3a5:  1e                       pushw    %ds
0x000fd3a6:  66 50                    pushl    %eax
0x000fd3a8:  66 b8 80 dc 00 00        movl     $0xdc80, %eax
0x000fd3ae:  8e d8                    movw     %ax, %ds
0x000fd3b0:  66 a1 10 f0              movl     0xf010, %eax
0x000fd3b4:  66 83 e8 30              subl     $0x30, %eax
0x000fd3b8:  67 66 8f 40 1c           popl     0x1c(%eax)
0x000fd3bd:  67 8f 00                 popw     (%eax)
0x000fd3c0:  67 66 89 78 04           movl     %edi, 4(%eax)
0x000fd3c5:  67 66 89 70 08           movl     %esi, 8(%eax)
0x000fd3ca:  67 66 89 68 0c           movl     %ebp, 0xc(%eax)
0x000fd3cf:  67 66 89 58 10           movl     %ebx, 0x10(%eax)
0x000fd3d4:  67 66 89 50 14           movl     %edx, 0x14(%eax)
0x000fd3d9:  67 66 89 48 18           movl     %ecx, 0x18(%eax)
0x000fd3de:  67 8c 40 02              movw     %es, 2(%eax)
0x000fd3e2:  66 59                    popl     %ecx
0x000fd3e4:  67 66 89 60 28           movl     %esp, 0x28(%eax)
0x000fd3e9:  67 8c 50 2c              movw     %ss, 0x2c(%eax)
0x000fd3ed:  67 66 8f 40 20           popl     0x20(%eax)
0x000fd3f2:  67 8f 40 24              popw     0x24(%eax)
0x000fd3f6:  8c da                    movw     %ds, %dx
0x000fd3f8:  8e d2                    movw     %dx, %ss

----------------
IN: 
0x000fd3fa:  66 89 c4                 movl     %eax, %esp

----------------
IN: 
0x000fd3fd:  66 ff d1                 calll    *%ecx

----------------
IN: 
0x000fbc14:  66 53                    pushl    %ebx
0x000fbc16:  66 89 c3                 movl     %eax, %ebx
0x000fbc19:  66 e8 ca 32 00 00        calll    0xfeee9

----------------
IN: 
0x000feee9:  66 56                    pushl    %esi
0x000feeeb:  66 53                    pushl    %ebx
0x000feeed:  66 52                    pushl    %edx
0x000feeef:  66 bb 40 00 00 00        movl     $0x40, %ebx
0x000feef5:  8e c3                    movw     %bx, %es
0x000feef7:  26 a1 17 00              movw     %es:0x17, %ax
0x000feefb:  c1 e8 04                 shrw     $4, %ax
0x000feefe:  66 83 e0 07              andl     $7, %eax
0x000fef02:  67 88 44 24 03           movb     %al, 3(%esp)
0x000fef07:  8e c3                    movw     %bx, %es
0x000fef09:  26 8a 0e 97 00           movb     %es:0x97, %cl
0x000fef0e:  66 89 ce                 movl     %ecx, %esi
0x000fef11:  88 ca                    movb     %cl, %dl
0x000fef13:  66 83 e2 07              andl     $7, %edx
0x000fef17:  38 d0                    cmpb     %dl, %al
0x000fef19:  74 33                    je       0xef4e

----------------
IN: 
0x000fef4e:  66 58                    popl     %eax
0x000fef50:  66 5b                    popl     %ebx
0x000fef52:  66 5e                    popl     %esi
0x000fef54:  66 c3                    retl     

----------------
IN: 
0x000fbc1f:  67 8a 43 1d              movb     0x1d(%ebx), %al
0x000fbc23:  3c 0a                    cmpb     $0xa, %al
0x000fbc25:  0f 84 87 00              je       0xbcb0

----------------
IN: 
0x000fbc29:  77 28                    ja       0xbc53

----------------
IN: 
0x000fbc2b:  3c 02                    cmpb     $2, %al
0x000fbc2d:  74 54                    je       0xbc83

----------------
IN: 
0x000fbc2f:  77 10                    ja       0xbc41

----------------
IN: 
0x000fbc31:  84 c0                    testb    %al, %al
0x000fbc33:  74 49                    je       0xbc7e

----------------
IN: 
0x000fbc35:  fe c8                    decb     %al
0x000fbc37:  0f 85 cf 00              jne      0xbd0a

----------------
IN: 
0x000fbc3b:  66 31 c9                 xorl     %ecx, %ecx
0x000fbc3e:  e9 85 00                 jmp      0xbcc6

----------------
IN: 
0x000fbcc6:  66 31 d2                 xorl     %edx, %edx
0x000fbcc9:  66 89 d8                 movl     %ebx, %eax
0x000fbccc:  66 5b                    popl     %ebx
0x000fbcce:  e9 19 fb                 jmp      0xb7ea

----------------
IN: 
0x000fb7ea:  66 55                    pushl    %ebp
0x000fb7ec:  66 57                    pushl    %edi
0x000fb7ee:  66 56                    pushl    %esi
0x000fb7f0:  66 53                    pushl    %ebx
0x000fb7f2:  66 89 c6                 movl     %eax, %esi
0x000fb7f5:  66 89 d5                 movl     %edx, %ebp
0x000fb7f8:  66 89 cf                 movl     %ecx, %edi
0x000fb7fb:  66 e8 0c ce ff ff        calll    0xf860d

----------------
IN: 
0x000f8618:  66 b9 0d 86 00 00        movl     $0x860d, %ecx
0x000f861e:  66 31 d2                 xorl     %edx, %edx
0x000f8621:  66 31 c0                 xorl     %eax, %eax
0x000f8624:  e9 e3 e6                 jmp      0x6d0a

----------------
IN: 
0x000fb801:  66 bb 40 00 00 00        movl     $0x40, %ebx
0x000fb807:  8e c3                    movw     %bx, %es
0x000fb809:  26 8b 16 1a 00           movw     %es:0x1a, %dx
0x000fb80e:  8e c3                    movw     %bx, %es
0x000fb810:  26 a1 1c 00              movw     %es:0x1c, %ax
0x000fb814:  39 c2                    cmpw     %ax, %dx
0x000fb816:  75 15                    jne      0xb82d

----------------
IN: 
0x000fb818:  66 85 ed                 testl    %ebp, %ebp
0x000fb81b:  75 08                    jne      0xb825

----------------
IN: 
0x000fb81d:  67 83 4e 24 40           orw      $0x40, 0x24(%esi)
0x000fb822:  e9 9c 00                 jmp      0xb8c1

----------------
IN: 
0x000fb8c1:  66 5b                    popl     %ebx
0x000fb8c3:  66 5e                    popl     %esi
0x000fb8c5:  66 5f                    popl     %edi
0x000fb8c7:  66 5d                    popl     %ebp
0x000fb8c9:  66 c3                    retl     

----------------
IN: 
0x000fd400:  66 89 e0                 movl     %esp, %eax
0x000fd403:  67 8e 50 2c              movw     0x2c(%eax), %ss

----------------
IN: 
0x000fd407:  67 66 8b 60 28           movl     0x28(%eax), %esp

----------------
IN: 
0x000fd40c:  66 5a                    popl     %edx
0x000fd40e:  5a                       popw     %dx
0x000fd40f:  67 ff 70 24              pushw    0x24(%eax)
0x000fd413:  67 66 ff 70 20           pushl    0x20(%eax)
0x000fd418:  67 66 8b 78 04           movl     4(%eax), %edi
0x000fd41d:  67 66 8b 70 08           movl     8(%eax), %esi
0x000fd422:  67 66 8b 68 0c           movl     0xc(%eax), %ebp
0x000fd427:  67 66 8b 58 10           movl     0x10(%eax), %ebx
0x000fd42c:  67 66 8b 50 14           movl     0x14(%eax), %edx
0x000fd431:  67 66 8b 48 18           movl     0x18(%eax), %ecx
0x000fd436:  67 8e 40 02              movw     2(%eax), %es
0x000fd43a:  67 66 ff 70 1c           pushl    0x1c(%eax)
0x000fd43f:  67 8e 18                 movw     (%eax), %ds
0x000fd442:  66 58                    popl     %eax
0x000fd444:  cf                       iretw    

----------------
IN: 
0x000c9c5f:  74 06                    je       0x9c67

----------------
IN: 
0x000c9c67:  b9 00 00                 movw     $0, %cx
0x000c9c6a:  49                       decw     %cx
0x000c9c6b:  78 15                    js       0x9c82

----------------
IN: 
0x000c9c82:  58                       popw     %ax
0x000c9c83:  59                       popw     %cx
0x000c9c84:  c3                       retw     

----------------
IN: 
0x000c9a92:  9c                       pushfw   
0x000c9a93:  31 ff                    xorw     %di, %di
0x000c9a95:  e8 c4 02                 callw    0x9d5c

----------------
IN: 
0x000c9d5c:  50                       pushw    %ax
0x000c9d5d:  51                       pushw    %cx
0x000c9d5e:  b0 0d                    movb     $0xd, %al
0x000c9d60:  e8 7c ff                 callw    0x9cdf

----------------
IN: 
0x000c9d63:  b9 4f 00                 movw     $0x4f, %cx
0x000c9d66:  e8 95 ff                 callw    0x9cfe

----------------
IN: 
0x000c9cfe:  50                       pushw    %ax
0x000c9cff:  b0 20                    movb     $0x20, %al
0x000c9d01:  e8 db ff                 callw    0x9cdf

----------------
IN: 
0x000c9d04:  58                       popw     %ax
0x000c9d05:  c3                       retw     

----------------
IN: 
0x000c9d69:  e2 fb                    loop     0x9d66

----------------
IN: 
0x000c9d66:  e8 95 ff                 callw    0x9cfe

----------------
IN: 
0x000c9d6b:  e8 71 ff                 callw    0x9cdf

----------------
IN: 
0x000c9d6e:  59                       popw     %cx
0x000c9d6f:  58                       popw     %ax
0x000c9d70:  c3                       retw     

----------------
IN: 
0x000c9a98:  be 76 03                 movw     $0x376, %si
0x000c9a9b:  e8 68 02                 callw    0x9d06

----------------
IN: 
0x000c9a9e:  9d                       popfw    

----------------
IN: 
0x000c9a9f:  75 07                    jne      0x9aa8

----------------
IN: 
0x000c9aa8:  b0 0a                    movb     $0xa, %al
0x000c9aaa:  31 ff                    xorw     %di, %di
0x000c9aac:  e8 30 02                 callw    0x9cdf

----------------
IN: 
0x000c9aaf:  0f a9                    popw     %gs
0x000c9ab1:  0f a1                    popw     %fs
0x000c9ab3:  07                       popw     %es
0x000c9ab4:  1f                       popw     %ds
0x000c9ab5:  61                       popaw    
0x000c9ab6:  b8 20 00                 movw     $0x20, %ax
0x000c9ab9:  cb                       lretw    

----------------
IN: 
0x07fb26b1:  8d 4c 24 18              leal     0x18(%esp), %ecx
0x07fb26b5:  31 d2                    xorl     %edx, %edx
0x07fb26b7:  b8 a5 32 0f 00           movl     $0xf32a5, %eax
0x07fb26bc:  e8 f2 c6 ff ff           calll    0x7faedb3

----------------
IN: 
0x07faba16:  89 d8                    movl     %ebx, %eax
0x07faba18:  5b                       popl     %ebx
0x07faba19:  5e                       popl     %esi
0x07faba1a:  5f                       popl     %edi
0x07faba1b:  5d                       popl     %ebp
0x07faba1c:  c3                       retl     

----------------
IN: 
0x07faedd5:  e8 2e e6 ff ff           calll    0x7fad408

----------------
IN: 
0x07fad408:  57                       pushl    %edi
0x07fad409:  56                       pushl    %esi
0x07fad40a:  53                       pushl    %ebx
0x07fad40b:  89 c6                    movl     %eax, %esi
0x07fad40d:  8b b8 84 00 00 00        movl     0x84(%eax), %edi
0x07fad413:  89 f8                    movl     %edi, %eax
0x07fad415:  e8 38 e5 ff ff           calll    0x7fab952

----------------
IN: 
0x07fad41a:  89 c3                    movl     %eax, %ebx
0x07fad41c:  85 c0                    testl    %eax, %eax
0x07fad41e:  75 13                    jne      0x7fad433

----------------
IN: 
0x07fad433:  89 f9                    movl     %edi, %ecx
0x07fad435:  89 c2                    movl     %eax, %edx
0x07fad437:  89 f0                    movl     %esi, %eax
0x07fad439:  ff 96 88 00 00 00        calll    *0x88(%esi)

----------------
IN: 
0x07fad43f:  85 c0                    testl    %eax, %eax
0x07fad441:  0f 9f c0                 setg     %al
0x07fad444:  0f b6 c0                 movzbl   %al, %eax
0x07fad447:  f7 d8                    negl     %eax
0x07fad449:  21 d8                    andl     %ebx, %eax
0x07fad44b:  5b                       popl     %ebx
0x07fad44c:  5e                       popl     %esi
0x07fad44d:  5f                       popl     %edi
0x07fad44e:  c3                       retl     

----------------
IN: 
0x07faedda:  85 c0                    testl    %eax, %eax
0x07faeddc:  74 e7                    je       0x7faedc5

----------------
IN: 
0x07faedde:  31 ed                    xorl     %ebp, %ebp
0x07faede0:  85 f6                    testl    %esi, %esi
0x07faede2:  74 10                    je       0x7faedf4

----------------
IN: 
0x07faede4:  8d 90 00 00 f4 ff        leal     -0xc0000(%eax), %edx
0x07faedea:  c1 ea 0b                 shrl     $0xb, %edx
0x07faeded:  89 1c d6                 movl     %ebx, (%esi, %edx, 8)
0x07faedf0:  89 6c d6 04              movl     %ebp, 4(%esi, %edx, 8)
0x07faedf4:  8b 4c 24 04              movl     4(%esp), %ecx
0x07faedf8:  31 d2                    xorl     %edx, %edx
0x07faedfa:  e8 91 fe ff ff           calll    0x7faec90

----------------
IN: 
0x07faedff:  eb c4                    jmp      0x7faedc5

----------------
IN: 
0x07faedc5:  89 da                    movl     %ebx, %edx
0x07faedc7:  8b 04 24                 movl     (%esp), %eax
0x07faedca:  e8 10 cc ff ff           calll    0x7fab9df

----------------
IN: 
0x07fab9f8:  8b 1f                    movl     (%edi), %ebx
0x07fab9fa:  eb 12                    jmp      0x7faba0e

----------------
IN: 
0x07fb26c1:  31 c0                    xorl     %eax, %eax
0x07fb26c3:  e8 8a 92 ff ff           calll    0x7fab952

----------------
IN: 
0x07fb26c8:  3b 1d 98 fe fb 07        cmpl     0x7fbfe98, %ebx
0x07fb26ce:  0f 83 81 01 00 00        jae      0x7fb2855

----------------
IN: 
0x07fb26d4:  66 81 3b 55 aa           cmpw     $0xaa55, (%ebx)
0x07fb26d9:  74 0f                    je       0x7fb26ea

----------------
IN: 
0x07fb26ea:  89 d8                    movl     %ebx, %eax
0x07fb26ec:  e8 cb d1 13 f8           calll    0xef8bc

----------------
IN: 
0x07fb26f1:  85 c0                    testl    %eax, %eax
0x07fb26f3:  74 e6                    je       0x7fb26db

----------------
IN: 
0x07fb26f5:  0f b6 43 02              movzbl   2(%ebx), %eax
0x07fb26f9:  c1 e0 09                 shll     $9, %eax
0x07fb26fc:  05 ff 07 00 00           addl     $0x7ff, %eax
0x07fb2701:  25 00 f8 ff ff           andl     $0xfffff800, %eax
0x07fb2706:  01 d8                    addl     %ebx, %eax
0x07fb2708:  89 44 24 14              movl     %eax, 0x14(%esp)
0x07fb270c:  0f b7 73 1a              movzwl   0x1a(%ebx), %esi
0x07fb2710:  01 de                    addl     %ebx, %esi
0x07fb2712:  81 3e 24 50 6e 50        cmpl     $0x506e5024, (%esi)
0x07fb2718:  75 04                    jne      0x7fb271e

----------------
IN: 
0x07fb271a:  85 f6                    testl    %esi, %esi
0x07fb271c:  75 3c                    jne      0x7fb275a

----------------
IN: 
0x07fb275a:  89 d8                    movl     %ebx, %eax
0x07fb275c:  c1 e8 04                 shrl     $4, %eax
0x07fb275f:  0f b7 c0                 movzwl   %ax, %eax
0x07fb2762:  89 c7                    movl     %eax, %edi
0x07fb2764:  c1 e7 04                 shll     $4, %edi
0x07fb2767:  89 7c 24 0c              movl     %edi, 0xc(%esp)
0x07fb276b:  c7 44 24 10 01 00 00 00  movl     $1, 0x10(%esp)
0x07fb2773:  c1 e0 10                 shll     $0x10, %eax
0x07fb2776:  89 44 24 08              movl     %eax, 8(%esp)
0x07fb277a:  8b 44 24 10              movl     0x10(%esp), %eax
0x07fb277e:  8d 48 ff                 leal     -1(%eax), %ecx
0x07fb2781:  66 83 7e 1a 00           cmpw     $0, 0x1a(%esi)
0x07fb2786:  74 55                    je       0x7fb27dd

----------------
IN: 
0x07fb2788:  89 da                    movl     %ebx, %edx
0x07fb278a:  8d 44 24 18              leal     0x18(%esp), %eax
0x07fb278e:  e8 40 fe ff ff           calll    0x7fb25d3

----------------
IN: 
0x07fb25d3:  56                       pushl    %esi
0x07fb25d4:  53                       pushl    %ebx
0x07fb25d5:  81 ec 10 01 00 00        subl     $0x110, %esp
0x07fb25db:  89 ce                    movl     %ecx, %esi
0x07fb25dd:  8d 9a 00 00 f4 ff        leal     -0xc0000(%edx), %ebx
0x07fb25e3:  c1 eb 0b                 shrl     $0xb, %ebx
0x07fb25e6:  8b 0c d8                 movl     (%eax, %ebx, 8), %ecx
0x07fb25e9:  8b 44 d8 04              movl     4(%eax, %ebx, 8), %eax
0x07fb25ed:  89 c3                    movl     %eax, %ebx
0x07fb25ef:  09 cb                    orl      %ecx, %ebx
0x07fb25f1:  74 4e                    je       0x7fb2641

----------------
IN: 
0x07fb25f3:  a8 02                    testb    $2, %al
0x07fb25f5:  74 3e                    je       0x7fb2635

----------------
IN: 
0x07fb25f7:  ba 73 32 0f 00           movl     $0xf3273, %edx
0x07fb25fc:  8d 44 24 10              leal     0x10(%esp), %eax
0x07fb2600:  e8 5f fe ff ff           calll    0x7fb2464

----------------
IN: 
0x07fb2605:  85 f6                    testl    %esi, %esi
0x07fb2607:  74 21                    je       0x7fb262a

----------------
IN: 
0x07fb262a:  8d 44 24 10              leal     0x10(%esp), %eax
0x07fb262e:  e8 d6 c7 ff ff           calll    0x7faee09

----------------
IN: 
0x07fb2633:  eb 0f                    jmp      0x7fb2644

----------------
IN: 
0x07fb2644:  81 c4 10 01 00 00        addl     $0x110, %esp
0x07fb264a:  5b                       popl     %ebx
0x07fb264b:  5e                       popl     %esi
0x07fb264c:  c3                       retl     

----------------
IN: 
0x07fb2793:  66 8b 56 10              movw     0x10(%esi), %dx
0x07fb2797:  0f b7 4e 1a              movzwl   0x1a(%esi), %ecx
0x07fb279b:  bf 75 32 0f 00           movl     $0xf3275, %edi
0x07fb27a0:  66 85 d2                 testw    %dx, %dx
0x07fb27a3:  74 07                    je       0x7fb27ac

----------------
IN: 
0x07fb27a5:  0f b7 fa                 movzwl   %dx, %edi
0x07fb27a8:  03 7c 24 0c              addl     0xc(%esp), %edi
0x07fb27ac:  0b 4c 24 08              orl      8(%esp), %ecx
0x07fb27b0:  8b 15 80 fe fb 07        movl     0x7fbfe80, %edx
0x07fb27b6:  89 54 24 04              movl     %edx, 4(%esp)
0x07fb27ba:  89 c2                    movl     %eax, %edx
0x07fb27bc:  85 c0                    testl    %eax, %eax
0x07fb27be:  79 04                    jns      0x7fb27c4

----------------
IN: 
0x07fb27c0:  8b 54 24 04              movl     4(%esp), %edx
0x07fb27c4:  89 3c 24                 movl     %edi, (%esp)
0x07fb27c7:  b8 80 00 00 00           movl     $0x80, %eax
0x07fb27cc:  e8 df b3 ff ff           calll    0x7fadbb0

----------------
IN: 
0x07fb27d1:  c7 05 80 fe fb 07 0f 27  movl     $0x270f, 0x7fbfe80
0x07fb27d9:  00 00
0x07fb27db:  eb 50                    jmp      0x7fb282d

----------------
IN: 
0x07fb282d:  0f b7 76 06              movzwl   6(%esi), %esi
0x07fb2831:  66 85 f6                 testw    %si, %si
0x07fb2834:  74 16                    je       0x7fb284c

----------------
IN: 
0x07fb284c:  8b 5c 24 14              movl     0x14(%esp), %ebx
0x07fb2850:  e9 73 fe ff ff           jmp      0x7fb26c8

----------------
IN: 
0x07fb271e:  31 c9                    xorl     %ecx, %ecx
0x07fb2720:  89 da                    movl     %ebx, %edx
0x07fb2722:  8d 44 24 18              leal     0x18(%esp), %eax
0x07fb2726:  e8 a8 fe ff ff           calll    0x7fb25d3

----------------
IN: 
0x07fb2635:  8d 41 04                 leal     4(%ecx), %eax
0x07fb2638:  89 f2                    movl     %esi, %edx
0x07fb263a:  e8 96 f7 ff ff           calll    0x7fb1dd5

----------------
IN: 
0x07fb1dd5:  56                       pushl    %esi
0x07fb1dd6:  53                       pushl    %ebx
0x07fb1dd7:  81 ec 10 01 00 00        subl     $0x110, %esp
0x07fb1ddd:  89 d6                    movl     %edx, %esi
0x07fb1ddf:  89 44 24 0c              movl     %eax, 0xc(%esp)
0x07fb1de3:  c7 44 24 08 ca 31 0f 00  movl     $0xf31ca, 8(%esp)
0x07fb1deb:  c7 44 24 04 00 01 00 00  movl     $0x100, 4(%esp)
0x07fb1df3:  8d 5c 24 10              leal     0x10(%esp), %ebx
0x07fb1df7:  89 1c 24                 movl     %ebx, (%esp)
0x07fb1dfa:  e8 8b ff ff ff           calll    0x7fb1d8a

----------------
IN: 
0x07fb1dff:  85 f6                    testl    %esi, %esi
0x07fb1e01:  74 23                    je       0x7fb1e26

----------------
IN: 
0x07fb1e26:  89 d8                    movl     %ebx, %eax
0x07fb1e28:  e8 dc cf ff ff           calll    0x7faee09

----------------
IN: 
0x07fb1e2d:  81 c4 10 01 00 00        addl     $0x110, %esp
0x07fb1e33:  5b                       popl     %ebx
0x07fb1e34:  5e                       popl     %esi
0x07fb1e35:  c3                       retl     

----------------
IN: 
0x07fb263f:  eb 03                    jmp      0x7fb2644

----------------
IN: 
0x07fb272b:  c1 eb 04                 shrl     $4, %ebx
0x07fb272e:  89 d9                    movl     %ebx, %ecx
0x07fb2730:  c1 e1 10                 shll     $0x10, %ecx
0x07fb2733:  83 c9 03                 orl      $3, %ecx
0x07fb2736:  8b 1d 84 fe fb 07        movl     0x7fbfe84, %ebx
0x07fb273c:  89 c2                    movl     %eax, %edx
0x07fb273e:  85 c0                    testl    %eax, %eax
0x07fb2740:  79 02                    jns      0x7fb2744

----------------
IN: 
0x07fb2742:  89 da                    movl     %ebx, %edx
0x07fb2744:  c7 04 24 7d 32 0f 00     movl     $0xf327d, (%esp)
0x07fb274b:  b8 81 00 00 00           movl     $0x81, %eax
0x07fb2750:  e8 5b b4 ff ff           calll    0x7fadbb0

----------------
IN: 
0x07fadc1c:  3b 73 f0                 cmpl     -0x10(%ebx), %esi
0x07fadc1f:  7c e4                    jl       0x7fadc05

----------------
IN: 
0x07fadc21:  7f 19                    jg       0x7fadc3c

----------------
IN: 
0x07fb2755:  e9 f2 00 00 00           jmp      0x7fb284c

----------------
IN: 
0x07fb2855:  8d 65 f4                 leal     -0xc(%ebp), %esp
0x07fb2858:  5b                       popl     %ebx
0x07fb2859:  5e                       popl     %esi
0x07fb285a:  5f                       popl     %edi
0x07fb285b:  5d                       popl     %ebp
0x07fb285c:  c3                       retl     

----------------
IN: 
0x07fbc8f9:  ba 01 00 00 00           movl     $1, %edx
0x07fbc8fe:  31 c9                    xorl     %ecx, %ecx
0x07fbc900:  b8 35 44 0f 00           movl     $0xf4435, %eax
0x07fbc905:  e8 76 06 ff ff           calll    0x7facf80

----------------
IN: 
0x07fbc90a:  09 c2                    orl      %eax, %edx
0x07fbc90c:  0f 84 ba 06 00 00        je       0x7fbcfcc

----------------
IN: 
0x07fbcfcc:  e8 c1 00 ff ff           calll    0x7fad092

----------------
IN: 
0x07fbcfd1:  a0 94 53 0f 00           movb     0xf5394, %al
0x07fbcfd6:  3c 01                    cmpb     $1, %al
0x07fbcfd8:  74 09                    je       0x7fbcfe3

----------------
IN: 
0x07fbcfda:  3c 02                    cmpb     $2, %al
0x07fbcfdc:  74 37                    je       0x7fbd015

----------------
IN: 
0x07fbcfde:  e9 c2 01 00 00           jmp      0x7fbd1a5

----------------
IN: 
0x07fbd1a5:  ba f3 4a 0f 00           movl     $0xf4af3, %edx
0x07fbd1aa:  b8 04 00 00 00           movl     $4, %eax
0x07fbd1af:  e8 84 06 13 f8           calll    0xed838

----------------
IN: 
0x000ed838:  56                       pushl    %esi
0x000ed839:  53                       pushl    %ebx
0x000ed83a:  83 ec 0c                 subl     $0xc, %esp
0x000ed83d:  89 c6                    movl     %eax, %esi
0x000ed83f:  89 d3                    movl     %edx, %ebx
0x000ed841:  89 d0                    movl     %edx, %eax
0x000ed843:  e8 4a e9 ff ff           calll    0xec192

----------------
IN: 
0x000ed848:  89 44 24 08              movl     %eax, 8(%esp)
0x000ed84c:  89 5c 24 04              movl     %ebx, 4(%esp)
0x000ed850:  89 04 24                 movl     %eax, (%esp)
0x000ed853:  89 d9                    movl     %ebx, %ecx
0x000ed855:  ba 05 00 00 00           movl     $5, %edx
0x000ed85a:  89 f0                    movl     %esi, %eax
0x000ed85c:  e8 32 ff ff ff           calll    0xed793

----------------
IN: 
0x000ed793:  80 3d 81 b7 0e 00 00     cmpb     $0, 0xeb781
0x000ed79a:  0f 84 97 00 00 00        je       0xed837

----------------
IN: 
0x000ed837:  c3                       retl     

----------------
IN: 
0x000ed861:  83 c4 0c                 addl     $0xc, %esp
0x000ed864:  5b                       popl     %ebx
0x000ed865:  5e                       popl     %esi
0x000ed866:  c3                       retl     

----------------
IN: 
0x07fbd1b4:  31 db                    xorl     %ebx, %ebx
0x07fbd1b6:  c7 44 24 08 04 00 00 00  movl     $4, 8(%esp)
0x07fbd1be:  c7 44 24 04 64 e3 fb 07  movl     $0x7fbe364, 4(%esp)
0x07fbd1c6:  c7 04 24 00 00 00 00     movl     $0, (%esp)
0x07fbd1cd:  31 c9                    xorl     %ecx, %ecx
0x07fbd1cf:  ba 04 00 00 00           movl     $4, %edx
0x07fbd1d4:  89 d8                    movl     %ebx, %eax
0x07fbd1d6:  e8 b8 05 13 f8           calll    0xed793

----------------
IN: 
0x07fbd1db:  43                       incl     %ebx
0x07fbd1dc:  83 fb 08                 cmpl     $8, %ebx
0x07fbd1df:  75 d5                    jne      0x7fbd1b6

----------------
IN: 
0x07fbd1b6:  c7 44 24 08 04 00 00 00  movl     $4, 8(%esp)
0x07fbd1be:  c7 44 24 04 64 e3 fb 07  movl     $0x7fbe364, 4(%esp)
0x07fbd1c6:  c7 04 24 00 00 00 00     movl     $0, (%esp)
0x07fbd1cd:  31 c9                    xorl     %ecx, %ecx
0x07fbd1cf:  ba 04 00 00 00           movl     $4, %edx
0x07fbd1d4:  89 d8                    movl     %ebx, %eax
0x07fbd1d6:  e8 b8 05 13 f8           calll    0xed793

----------------
IN: 
0x07fbd1e1:  b8 03 4b 0f 00           movl     $0xf4b03, %eax
0x07fbd1e6:  e8 1e 1c ff ff           calll    0x7faee09

----------------
IN: 
0x07fbd1eb:  85 c0                    testl    %eax, %eax
0x07fbd1ed:  78 15                    js       0x7fbd204

----------------
IN: 
0x07fbd204:  a1 7c fe fb 07           movl     0x7fbfe7c, %eax
0x07fbd209:  8d 68 f0                 leal     -0x10(%eax), %ebp
0x07fbd20c:  83 fd f0                 cmpl     $0xf0, %ebp
0x07fbd20f:  0f 84 e0 03 00 00        je       0x7fbd5f5

----------------
IN: 
0x07fbd215:  8b 45 00                 movl     (%ebp), %eax
0x07fbd218:  83 f8 02                 cmpl     $2, %eax
0x07fbd21b:  0f 84 87 00 00 00        je       0x7fbd2a8

----------------
IN: 
0x07fbd2a8:  8b 5d 04                 movl     4(%ebp), %ebx
0x07fbd2ab:  0f b6 05 75 04 00 00     movzbl   0x475, %eax
0x07fbd2b2:  89 44 24 40              movl     %eax, 0x40(%esp)
0x07fbd2b6:  89 d9                    movl     %ebx, %ecx
0x07fbd2b8:  ba 75 04 00 00           movl     $0x475, %edx
0x07fbd2bd:  b8 20 60 0f 00           movl     $0xf6020, %eax
0x07fbd2c2:  e8 21 01 ff ff           calll    0x7fad3e8

----------------
IN: 
0x07fad3e8:  53                       pushl    %ebx
0x07fad3e9:  0f b6 1a                 movzbl   (%edx), %ebx
0x07fad3ec:  80 fb 0f                 cmpb     $0xf, %bl
0x07fad3ef:  76 10                    jbe      0x7fad401

----------------
IN: 
0x07fad401:  89 0c 98                 movl     %ecx, (%eax, %ebx, 4)
0x07fad404:  fe 02                    incb     (%edx)
0x07fad406:  5b                       popl     %ebx
0x07fad407:  c3                       retl     

----------------
IN: 
0x07fbd2c7:  80 3b 20                 cmpb     $0x20, (%ebx)
0x07fbd2ca:  75 24                    jne      0x7fbd2f0

----------------
IN: 
0x07fbd2cc:  8b 4b 14                 movl     0x14(%ebx), %ecx
0x07fbd2cf:  89 c8                    movl     %ecx, %eax
0x07fbd2d1:  c1 e8 02                 shrl     $2, %eax
0x07fbd2d4:  83 c0 39                 addl     $0x39, %eax
0x07fbd2d7:  83 c8 80                 orl      $0xffffff80, %eax
0x07fbd2da:  e6 70                    outb     %al, $0x70
0x07fbd2dc:  e4 71                    inb      $0x71, %al
0x07fbd2de:  0f b6 c0                 movzbl   %al, %eax
0x07fbd2e1:  83 e1 03                 andl     $3, %ecx
0x07fbd2e4:  01 c9                    addl     %ecx, %ecx
0x07fbd2e6:  d3 f8                    sarl     %cl, %eax
0x07fbd2e8:  83 e0 03                 andl     $3, %eax
0x07fbd2eb:  e9 92 00 00 00           jmp      0x7fbd382

----------------
IN: 
0x07fbd382:  88 43 19                 movb     %al, 0x19(%ebx)
0x07fbd385:  8b 7b 1c                 movl     0x1c(%ebx), %edi
0x07fbd388:  66 89 7c 24 30           movw     %di, 0x30(%esp)
0x07fbd38d:  0f b7 4b 1e              movzwl   0x1e(%ebx), %ecx
0x07fbd391:  8b 7b 20                 movl     0x20(%ebx), %edi
0x07fbd394:  66 89 7c 24 38           movw     %di, 0x38(%esp)
0x07fbd399:  8b 7b 0c                 movl     0xc(%ebx), %edi
0x07fbd39c:  89 7c 24 44              movl     %edi, 0x44(%esp)
0x07fbd3a0:  8b 53 10                 movl     0x10(%ebx), %edx
0x07fbd3a3:  3c 02                    cmpb     $2, %al
0x07fbd3a5:  0f 84 a8 00 00 00        je       0x7fbd453

----------------
IN: 
0x07fbd453:  89 cf                    movl     %ecx, %edi
0x07fbd455:  8b 74 24 30              movl     0x30(%esp), %esi
0x07fbd459:  b8 e6 43 0f 00           movl     $0xf43e6, %eax
0x07fbd45e:  66 81 ff 00 04           cmpw     $0x400, %di
0x07fbd463:  76 16                    jbe      0x7fbd47b

----------------
IN: 
0x07fbd47b:  8b 54 24 38              movl     0x38(%esp), %edx
0x07fbd47f:  66 89 54 24 28           movw     %dx, 0x28(%esp)
0x07fbd484:  eb 20                    jmp      0x7fbd4a6

----------------
IN: 
0x07fbd4a6:  8b 54 24 44              movl     0x44(%esp), %edx
0x07fbd4aa:  89 54 24 24              movl     %edx, 0x24(%esp)
0x07fbd4ae:  0f b7 54 24 28           movzwl   0x28(%esp), %edx
0x07fbd4b3:  89 54 24 20              movl     %edx, 0x20(%esp)
0x07fbd4b7:  0f b7 d6                 movzwl   %si, %edx
0x07fbd4ba:  89 54 24 1c              movl     %edx, 0x1c(%esp)
0x07fbd4be:  0f b7 d7                 movzwl   %di, %edx
0x07fbd4c1:  89 54 24 18              movl     %edx, 0x18(%esp)
0x07fbd4c5:  89 44 24 14              movl     %eax, 0x14(%esp)
0x07fbd4c9:  0f b7 44 24 38           movzwl   0x38(%esp), %eax
0x07fbd4ce:  89 44 24 10              movl     %eax, 0x10(%esp)
0x07fbd4d2:  0f b7 44 24 30           movzwl   0x30(%esp), %eax
0x07fbd4d7:  89 44 24 0c              movl     %eax, 0xc(%esp)
0x07fbd4db:  89 4c 24 08              movl     %ecx, 8(%esp)
0x07fbd4df:  89 5c 24 04              movl     %ebx, 4(%esp)
0x07fbd4e3:  c7 04 24 08 4b 0f 00     movl     $0xf4b08, (%esp)
0x07fbd4ea:  e8 d6 0d 13 f8           calll    0xee2c5

----------------
IN: 
0x07fbd4ef:  66 89 73 02              movw     %si, 2(%ebx)
0x07fbd4f3:  66 89 7b 04              movw     %di, 4(%ebx)
0x07fbd4f7:  8b 44 24 28              movl     0x28(%esp), %eax
0x07fbd4fb:  66 89 43 06              movw     %ax, 6(%ebx)
0x07fbd4ff:  83 7c 24 40 01           cmpl     $1, 0x40(%esp)
0x07fbd504:  0f 8f bd 00 00 00        jg       0x7fbd5c7

----------------
IN: 
0x07fbd50a:  66 8b 53 1e              movw     0x1e(%ebx), %dx
0x07fbd50e:  8b 43 1c                 movl     0x1c(%ebx), %eax
0x07fbd511:  66 89 44 24 30           movw     %ax, 0x30(%esp)
0x07fbd516:  8b 4b 20                 movl     0x20(%ebx), %ecx
0x07fbd519:  66 89 4c 24 38           movw     %cx, 0x38(%esp)
0x07fbd51e:  0f b7 05 0e 04 00 00     movzwl   0x40e, %eax
0x07fbd525:  8b 4c 24 40              movl     0x40(%esp), %ecx
0x07fbd529:  8d 4c 01 03              leal     3(%ecx, %eax), %ecx
0x07fbd52d:  c1 e1 04                 shll     $4, %ecx
0x07fbd530:  8d 59 0d                 leal     0xd(%ecx), %ebx
0x07fbd533:  66 c7 43 05 ff ff        movw     $0xffff, 5(%ebx)
0x07fbd539:  66 83 7c 24 30 09        cmpw     $9, 0x30(%esp)
0x07fbd53f:  19 c0                    sbbl     %eax, %eax
0x07fbd541:  83 e0 f8                 andl     $0xfffffff8, %eax
0x07fbd544:  83 e8 38                 subl     $0x38, %eax
0x07fbd547:  88 43 08                 movb     %al, 8(%ebx)
0x07fbd54a:  66 89 53 0c              movw     %dx, 0xc(%ebx)
0x07fbd54e:  66 89 79 0d              movw     %di, 0xd(%ecx)
0x07fbd552:  89 f0                    movl     %esi, %eax
0x07fbd554:  88 43 02                 movb     %al, 2(%ebx)
0x07fbd557:  8a 44 24 28              movb     0x28(%esp), %al
0x07fbd55b:  88 43 0e                 movb     %al, 0xe(%ebx)
0x07fbd55e:  66 39 d7                 cmpw     %dx, %di
0x07fbd561:  75 12                    jne      0x7fbd575

----------------
IN: 
0x07fbd563:  66 3b 74 24 30           cmpw     0x30(%esp), %si
0x07fbd568:  75 0b                    jne      0x7fbd575

----------------
IN: 
0x07fbd56a:  8b 44 24 38              movl     0x38(%esp), %eax
0x07fbd56e:  66 39 44 24 28           cmpw     %ax, 0x28(%esp)
0x07fbd573:  74 25                    je       0x7fbd59a

----------------
IN: 
0x07fbd59a:  83 7c 24 40 00           cmpl     $0, 0x40(%esp)
0x07fbd59f:  66 a1 0e 04 00 00        movw     0x40e, %ax
0x07fbd5a5:  75 11                    jne      0x7fbd5b8

----------------
IN: 
0x07fbd5a7:  66 c7 05 04 01 00 00 3d  movw     $0x3d, 0x104
0x07fbd5af:  00
0x07fbd5b0:  66 a3 06 01 00 00        movw     %ax, 0x106
0x07fbd5b6:  eb 0f                    jmp      0x7fbd5c7

----------------
IN: 
0x07fbd5c7:  31 d2                    xorl     %edx, %edx
0x07fbd5c9:  b8 02 00 00 00           movl     $2, %eax
0x07fbd5ce:  eb 18                    jmp      0x7fbd5e8

----------------
IN: 
0x07fbd5e8:  e8 4a e4 fe ff           calll    0x7faba37

----------------
IN: 
0x07faba37:  53                       pushl    %ebx
0x07faba38:  83 f8 02                 cmpl     $2, %eax
0x07faba3b:  75 37                    jne      0x7faba74

----------------
IN: 
0x07faba3d:  8b 0d 54 ff fb 07        movl     0x7fbff54, %ecx
0x07faba43:  8d 59 01                 leal     1(%ecx), %ebx
0x07faba46:  89 1d 54 ff fb 07        movl     %ebx, 0x7fbff54
0x07faba4c:  85 c9                    testl    %ecx, %ecx
0x07faba4e:  75 3a                    jne      0x7faba8a

----------------
IN: 
0x07faba50:  8b 0d 98 53 0f 00        movl     0xf5398, %ecx
0x07faba56:  83 f9 13                 cmpl     $0x13, %ecx
0x07faba59:  77 2f                    ja       0x7faba8a

----------------
IN: 
0x07faba5b:  8d 59 01                 leal     1(%ecx), %ebx
0x07faba5e:  89 1d 98 53 0f 00        movl     %ebx, 0xf5398
0x07faba64:  89 04 cd 9c 53 0f 00     movl     %eax, 0xf539c(, %ecx, 8)
0x07faba6b:  89 14 cd a0 53 0f 00     movl     %edx, 0xf53a0(, %ecx, 8)
0x07faba72:  eb 16                    jmp      0x7faba8a

----------------
IN: 
0x07faba8a:  5b                       popl     %ebx
0x07faba8b:  c3                       retl     

----------------
IN: 
0x07fbd5ed:  8b 45 10                 movl     0x10(%ebp), %eax
0x07fbd5f0:  e9 14 fc ff ff           jmp      0x7fbd209

----------------
IN: 
0x07fbd209:  8d 68 f0                 leal     -0x10(%eax), %ebp
0x07fbd20c:  83 fd f0                 cmpl     $0xf0, %ebp
0x07fbd20f:  0f 84 e0 03 00 00        je       0x7fbd5f5

----------------
IN: 
0x07fbd221:  7f 08                    jg       0x7fbd22b

----------------
IN: 
0x07fbd22b:  83 f8 03                 cmpl     $3, %eax
0x07fbd22e:  0f 84 9c 03 00 00        je       0x7fbd5d0

----------------
IN: 
0x07fbd234:  3d 81 00 00 00           cmpl     $0x81, %eax
0x07fbd239:  0f 85 a3 03 00 00        jne      0x7fbd5e2

----------------
IN: 
0x07fbd23f:  0f b7 55 04              movzwl   4(%ebp), %edx
0x07fbd243:  0f b7 45 06              movzwl   6(%ebp), %eax
0x07fbd247:  c1 e0 04                 shll     $4, %eax
0x07fbd24a:  31 c9                    xorl     %ecx, %ecx
0x07fbd24c:  e8 d2 25 13 f8           calll    0xef823

----------------
IN: 
0x000ca803:  06                       pushw    %es
0x000ca804:  0e                       pushw    %cs
0x000ca805:  07                       popw     %es
0x000ca806:  31 c0                    xorw     %ax, %ax
0x000ca808:  b9 00 10                 movw     $0x1000, %cx
0x000ca80b:  8d 3e 00 03              leaw     0x300, %di
0x000ca80f:  fc                       cld      
0x000ca810:  f3 ab                    rep stosw %ax, %es:(%di)

----------------
IN: 
0x000ca810:  f3 ab                    rep stosw %ax, %es:(%di)

----------------
IN: 
0x000ca812:  07                       popw     %es
0x000ca813:  b8 20 00                 movw     $0x20, %ax
0x000ca816:  e7 7e                    outw     %ax, $0x7e
0x000ca818:  cb                       lretw    

----------------
IN: 
0x07fbd251:  e9 71 03 00 00           jmp      0x7fbd5c7

----------------
IN: 
0x07fbd223:  48                       decl     %eax
0x07fbd224:  74 30                    je       0x7fbd256

----------------
IN: 
0x07fbd256:  8b 4d 04                 movl     4(%ebp), %ecx
0x07fbd259:  ba a0 60 0f 00           movl     $0xf60a0, %edx
0x07fbd25e:  b8 e0 5f 0f 00           movl     $0xf5fe0, %eax
0x07fbd263:  e8 80 01 ff ff           calll    0x7fad3e8

----------------
IN: 
0x07fbd268:  80 3d a0 60 0f 00 01     cmpb     $1, 0xf60a0
0x07fbd26f:  75 1a                    jne      0x7fbd28b

----------------
IN: 
0x07fbd271:  a1 10 04 00 00           movl     0x410, %eax
0x07fbd276:  83 e0 be                 andl     $0xffffffbe, %eax
0x07fbd279:  83 c8 01                 orl      $1, %eax
0x07fbd27c:  66 a3 10 04 00 00        movw     %ax, 0x410
0x07fbd282:  c6 05 8f 04 00 00 07     movb     $7, 0x48f
0x07fbd289:  eb 11                    jmp      0x7fbd29c

----------------
IN: 
0x07fbd29c:  31 d2                    xorl     %edx, %edx
0x07fbd29e:  b8 01 00 00 00           movl     $1, %eax
0x07fbd2a3:  e9 40 03 00 00           jmp      0x7fbd5e8

----------------
IN: 
0x07faba74:  83 f8 01                 cmpl     $1, %eax
0x07faba77:  75 d7                    jne      0x7faba50

----------------
IN: 
0x07faba79:  8b 0d 50 ff fb 07        movl     0x7fbff50, %ecx
0x07faba7f:  8d 59 01                 leal     1(%ecx), %ebx
0x07faba82:  89 1d 50 ff fb 07        movl     %ebx, 0x7fbff50
0x07faba88:  eb c2                    jmp      0x7faba4c

----------------
IN: 
0x07faba4c:  85 c9                    testl    %ecx, %ecx
0x07faba4e:  75 3a                    jne      0x7faba8a

----------------
IN: 
0x07fbd5d0:  8b 4d 04                 movl     4(%ebp), %ecx
0x07fbd5d3:  ba 6c ff fb 07           movl     $0x7fbff6c, %edx
0x07fbd5d8:  b8 60 60 0f 00           movl     $0xf6060, %eax
0x07fbd5dd:  e8 06 fe fe ff           calll    0x7fad3e8

----------------
IN: 
0x07fbd5e2:  8b 55 04                 movl     4(%ebp), %edx
0x07fbd5e5:  8b 45 00                 movl     (%ebp), %eax
0x07fbd5e8:  e8 4a e4 fe ff           calll    0x7faba37

----------------
IN: 
0x07fbd5f5:  31 d2                    xorl     %edx, %edx
0x07fbd5f7:  b8 01 00 00 00           movl     $1, %eax
0x07fbd5fc:  e8 36 e4 fe ff           calll    0x7faba37

----------------
IN: 
0x07fbd601:  31 d2                    xorl     %edx, %edx
0x07fbd603:  b8 02 00 00 00           movl     $2, %eax
0x07fbd608:  e8 2a e4 fe ff           calll    0x7faba37

----------------
IN: 
0x07fbd60d:  80 3d 6c ff fb 07 00     cmpb     $0, 0x7fbff6c
0x07fbd614:  74 52                    je       0x7fbd668

----------------
IN: 
0x07fbd616:  e8 a6 07 ff ff           calll    0x7faddc1

----------------
IN: 
0x07faddc1:  53                       pushl    %ebx
0x07faddc2:  31 db                    xorl     %ebx, %ebx
0x07faddc4:  83 3d dc 5f 0f 00 00     cmpl     $0, 0xf5fdc
0x07faddcb:  75 24                    jne      0x7faddf1

----------------
IN: 
0x07faddcd:  b8 00 08 00 00           movl     $0x800, %eax
0x07faddd2:  e8 9b fa ff ff           calll    0x7fad872

----------------
IN: 
0x07fad872:  b9 10 00 00 00           movl     $0x10, %ecx
0x07fad877:  89 c2                    movl     %eax, %edx
0x07fad879:  b8 c0 fe fb 07           movl     $0x7fbfec0, %eax
0x07fad87e:  e9 d2 ff ff ff           jmp      0x7fad855

----------------
IN: 
0x07faddd7:  85 c0                    testl    %eax, %eax
0x07faddd9:  75 11                    jne      0x7faddec

----------------
IN: 
0x07faddec:  a3 dc 5f 0f 00           movl     %eax, 0xf5fdc
0x07faddf1:  89 d8                    movl     %ebx, %eax
0x07faddf3:  5b                       popl     %ebx
0x07faddf4:  c3                       retl     

----------------
IN: 
0x07fbd61b:  85 c0                    testl    %eax, %eax
0x07fbd61d:  78 49                    js       0x7fbd668

----------------
IN: 
0x07fbd61f:  b8 24 00 00 00           movl     $0x24, %eax
0x07fbd624:  e8 5a 02 ff ff           calll    0x7fad883

----------------
IN: 
0x07fbd629:  89 c3                    movl     %eax, %ebx
0x07fbd62b:  85 c0                    testl    %eax, %eax
0x07fbd62d:  75 11                    jne      0x7fbd640

----------------
IN: 
0x07fbd640:  a3 d8 5f 0f 00           movl     %eax, 0xf5fd8
0x07fbd645:  b9 24 00 00 00           movl     $0x24, %ecx
0x07fbd64a:  31 d2                    xorl     %edx, %edx
0x07fbd64c:  e8 70 eb 12 f8           calll    0xec1c1

----------------
IN: 
0x07fbd651:  c6 03 40                 movb     $0x40, (%ebx)
0x07fbd654:  66 c7 43 1a 00 02        movw     $0x200, 0x1a(%ebx)
0x07fbd65a:  c7 43 0c ff ff ff ff     movl     $0xffffffff, 0xc(%ebx)
0x07fbd661:  c7 43 10 ff ff ff ff     movl     $0xffffffff, 0x10(%ebx)
0x07fbd668:  c7 05 70 5c 0f 00 00 00  movl     $0, 0xf5c70
0x07fbd670:  00 00
0x07fbd672:  c7 05 77 5c 0f 00 00 00  movl     $0, 0xf5c77
0x07fbd67a:  00 00
0x07fbd67c:  e8 d5 ec 12 f8           calll    0xec356

----------------
IN: 
0x07fbd681:  89 c3                    movl     %eax, %ebx
0x07fbd683:  a1 98 fe fb 07           movl     0x7fbfe98, %eax
0x07fbd688:  89 d9                    movl     %ebx, %ecx
0x07fbd68a:  29 c1                    subl     %eax, %ecx
0x07fbd68c:  31 d2                    xorl     %edx, %edx
0x07fbd68e:  e8 2e eb 12 f8           calll    0xec1c1

----------------
IN: 
0x07fbd693:  66 c7 03 55 aa           movw     $0xaa55, (%ebx)
0x07fbd698:  ba 00 00 0f 00           movl     $0xf0000, %edx
0x07fbd69d:  29 da                    subl     %ebx, %edx
0x07fbd69f:  c1 ea 09                 shrl     $9, %edx
0x07fbd6a2:  81 fa ff 00 00 00        cmpl     $0xff, %edx
0x07fbd6a8:  7e 05                    jle      0x7fbd6af

----------------
IN: 
0x07fbd6af:  88 53 02                 movb     %dl, 2(%ebx)
0x07fbd6b2:  0f b7 0d 13 04 00 00     movzwl   0x413, %ecx
0x07fbd6b9:  c1 e1 0a                 shll     $0xa, %ecx
0x07fbd6bc:  89 c8                    movl     %ecx, %eax
0x07fbd6be:  99                       cltd     
0x07fbd6bf:  c7 44 24 08 02 00 00 00  movl     $2, 8(%esp)
0x07fbd6c7:  be 00 00 0a 00           movl     $0xa0000, %esi
0x07fbd6cc:  29 ce                    subl     %ecx, %esi
0x07fbd6ce:  89 34 24                 movl     %esi, (%esp)
0x07fbd6d1:  c7 44 24 04 00 00 00 00  movl     $0, 4(%esp)
0x07fbd6d9:  e8 17 00 ff ff           calll    0x7fad6f5

----------------
IN: 
0x07fad66e:  03 41 08                 addl     8(%ecx), %eax
0x07fad671:  13 51 0c                 adcl     0xc(%ecx), %edx
0x07fad674:  39 54 24 10              cmpl     %edx, 0x10(%esp)
0x07fad678:  72 11                    jb       0x7fad68b

----------------
IN: 
0x07fad67a:  77 06                    ja       0x7fad682

----------------
IN: 
0x07fad67c:  39 44 24 0c              cmpl     %eax, 0xc(%esp)
0x07fad680:  72 09                    jb       0x7fad68b

----------------
IN: 
0x07fad682:  89 f0                    movl     %esi, %eax
0x07fad684:  e8 c6 eb ff ff           calll    0x7fac24f

----------------
IN: 
0x07fac24f:  8b 15 84 5c 0f 00        movl     0xf5c84, %edx
0x07fac255:  8d 4a ff                 leal     -1(%edx), %ecx
0x07fac258:  89 0d 84 5c 0f 00        movl     %ecx, 0xf5c84
0x07fac25e:  29 c1                    subl     %eax, %ecx
0x07fac260:  6b c9 14                 imull    $0x14, %ecx, %ecx
0x07fac263:  8d 50 01                 leal     1(%eax), %edx
0x07fac266:  6b d2 14                 imull    $0x14, %edx, %edx
0x07fac269:  81 c2 88 5c 0f 00        addl     $0xf5c88, %edx
0x07fac26f:  6b c0 14                 imull    $0x14, %eax, %eax
0x07fac272:  05 88 5c 0f 00           addl     $0xf5c88, %eax
0x07fac277:  e9 96 ff ff ff           jmp      0x7fac212

----------------
IN: 
0x07fac21a:  89 c7                    movl     %eax, %edi
0x07fac21c:  89 d6                    movl     %edx, %esi
0x07fac21e:  f3 a4                    rep movsb (%esi), %es:(%edi)

----------------
IN: 
0x07fac21e:  f3 a4                    rep movsb (%esi), %es:(%edi)

----------------
IN: 
0x07fac220:  eb 28                    jmp      0x7fac24a

----------------
IN: 
0x07fac24a:  5b                       popl     %ebx
0x07fac24b:  5e                       popl     %esi
0x07fac24c:  5f                       popl     %edi
0x07fac24d:  5d                       popl     %ebp
0x07fac24e:  c3                       retl     

----------------
IN: 
0x07fad689:  eb bb                    jmp      0x7fad646

----------------
IN: 
0x07fad646:  3b 35 84 5c 0f 00        cmpl     0xf5c84, %esi
0x07fad64c:  7d 6c                    jge      0x7fad6ba

----------------
IN: 
0x07fbd6de:  8b 35 b8 fe fb 07        movl     0x7fbfeb8, %esi
0x07fbd6e4:  31 ff                    xorl     %edi, %edi
0x07fbd6e6:  85 f6                    testl    %esi, %esi
0x07fbd6e8:  74 06                    je       0x7fbd6f0

----------------
IN: 
0x07fbd6ea:  89 f7                    movl     %esi, %edi
0x07fbd6ec:  8b 36                    movl     (%esi), %esi
0x07fbd6ee:  eb f6                    jmp      0x7fbd6e6

----------------
IN: 
0x07fbd6e6:  85 f6                    testl    %esi, %esi
0x07fbd6e8:  74 06                    je       0x7fbd6f0

----------------
IN: 
0x07fbd6f0:  8b 47 08                 movl     8(%edi), %eax
0x07fbd6f3:  8b 4f 0c                 movl     0xc(%edi), %ecx
0x07fbd6f6:  29 c1                    subl     %eax, %ecx
0x07fbd6f8:  31 d2                    xorl     %edx, %edx
0x07fbd6fa:  e8 c2 ea 12 f8           calll    0xec1c1

----------------
IN: 
0x07fbd6ff:  8b 47 0c                 movl     0xc(%edi), %eax
0x07fbd702:  89 44 24 10              movl     %eax, 0x10(%esp)
0x07fbd706:  8b 47 08                 movl     8(%edi), %eax
0x07fbd709:  89 44 24 0c              movl     %eax, 0xc(%esp)
0x07fbd70d:  89 5c 24 08              movl     %ebx, 8(%esp)
0x07fbd711:  a1 98 fe fb 07           movl     0x7fbfe98, %eax
0x07fbd716:  89 44 24 04              movl     %eax, 4(%esp)
0x07fbd71a:  c7 04 24 43 4b 0f 00     movl     $0xf4b43, (%esp)
0x07fbd721:  e8 9f 0b 13 f8           calll    0xee2c5

----------------
IN: 
0x07fbd726:  a1 bc fe fb 07           movl     0x7fbfebc, %eax
0x07fbd72b:  85 c0                    testl    %eax, %eax
0x07fbd72d:  74 06                    je       0x7fbd735

----------------
IN: 
0x07fbd72f:  89 c6                    movl     %eax, %esi
0x07fbd731:  8b 00                    movl     (%eax), %eax
0x07fbd733:  eb f6                    jmp      0x7fbd72b

----------------
IN: 
0x07fbd72b:  85 c0                    testl    %eax, %eax
0x07fbd72d:  74 06                    je       0x7fbd735

----------------
IN: 
0x07fbd735:  85 f6                    testl    %esi, %esi
0x07fbd737:  74 3c                    je       0x7fbd775

----------------
IN: 
0x07fbd739:  8b 4e 08                 movl     8(%esi), %ecx
0x07fbd73c:  31 db                    xorl     %ebx, %ebx
0x07fbd73e:  8b 76 0c                 movl     0xc(%esi), %esi
0x07fbd741:  29 ce                    subl     %ecx, %esi
0x07fbd743:  81 e6 00 f0 ff ff        andl     $0xfffff000, %esi
0x07fbd749:  89 c8                    movl     %ecx, %eax
0x07fbd74b:  89 da                    movl     %ebx, %edx
0x07fbd74d:  c7 44 24 08 01 00 00 00  movl     $1, 8(%esp)
0x07fbd755:  89 34 24                 movl     %esi, (%esp)
0x07fbd758:  c7 44 24 04 00 00 00 00  movl     $0, 4(%esp)
0x07fbd760:  e8 90 ff fe ff           calll    0x7fad6f5

----------------
IN: 
0x07fad5a6:  46                       incl     %esi
0x07fad5a7:  eb c5                    jmp      0x7fad56e

----------------
IN: 
0x07fad56e:  39 d6                    cmpl     %edx, %esi
0x07fad570:  0f 8d cd 00 00 00        jge      0x7fad643

----------------
IN: 
0x07fad5ce:  8b 7c 24 0c              movl     0xc(%esp), %edi
0x07fad5d2:  8b 6c 24 10              movl     0x10(%esp), %ebp
0x07fad5d6:  29 cf                    subl     %ecx, %edi
0x07fad5d8:  19 dd                    sbbl     %ebx, %ebp
0x07fad5da:  89 7c 24 24              movl     %edi, 0x24(%esp)
0x07fad5de:  89 6c 24 28              movl     %ebp, 0x28(%esp)
0x07fad5e2:  89 4c 24 14              movl     %ecx, 0x14(%esp)
0x07fad5e6:  89 5c 24 18              movl     %ebx, 0x18(%esp)
0x07fad5ea:  eb 57                    jmp      0x7fad643

----------------
IN: 
0x07fad68b:  8b 7c 24 0c              movl     0xc(%esp), %edi
0x07fad68f:  8b 6c 24 10              movl     0x10(%esp), %ebp
0x07fad693:  89 39                    movl     %edi, (%ecx)
0x07fad695:  89 69 04                 movl     %ebp, 4(%ecx)
0x07fad698:  29 f8                    subl     %edi, %eax
0x07fad69a:  19 ea                    sbbl     %ebp, %edx
0x07fad69c:  89 41 08                 movl     %eax, 8(%ecx)
0x07fad69f:  89 51 0c                 movl     %edx, 0xc(%ecx)
0x07fad6a2:  8b 5c 24 2c              movl     0x2c(%esp), %ebx
0x07fad6a6:  3b 59 10                 cmpl     0x10(%ecx), %ebx
0x07fad6a9:  75 0f                    jne      0x7fad6ba

----------------
IN: 
0x07fbd765:  89 74 24 04              movl     %esi, 4(%esp)
0x07fbd769:  c7 04 24 6a 4b 0f 00     movl     $0xf4b6a, (%esp)
0x07fbd770:  e8 50 0b 13 f8           calll    0xee2c5

----------------
IN: 
0x07fbd775:  e8 17 e2 fe ff           calll    0x7fab991

----------------
IN: 
0x07fbd77a:  a1 84 5c 0f 00           movl     0xf5c84, %eax
0x07fbd77f:  89 44 24 04              movl     %eax, 4(%esp)
0x07fbd783:  c7 04 24 89 4b 0f 00     movl     $0xf4b89, (%esp)
0x07fbd78a:  e8 36 0b 13 f8           calll    0xee2c5

----------------
IN: 
0x07fbd78f:  bb 88 5c 0f 00           movl     $0xf5c88, %ebx
0x07fbd794:  31 f6                    xorl     %esi, %esi
0x07fbd796:  3b 35 84 5c 0f 00        cmpl     0xf5c84, %esi
0x07fbd79c:  7d 64                    jge      0x7fbd802

----------------
IN: 
0x07fbd79e:  8b 03                    movl     (%ebx), %eax
0x07fbd7a0:  8b 53 04                 movl     4(%ebx), %edx
0x07fbd7a3:  89 c7                    movl     %eax, %edi
0x07fbd7a5:  89 d5                    movl     %edx, %ebp
0x07fbd7a7:  03 7b 08                 addl     8(%ebx), %edi
0x07fbd7aa:  13 6b 0c                 adcl     0xc(%ebx), %ebp
0x07fbd7ad:  89 7c 24 28              movl     %edi, 0x28(%esp)
0x07fbd7b1:  89 6c 24 2c              movl     %ebp, 0x2c(%esp)
0x07fbd7b5:  8b 4b 10                 movl     0x10(%ebx), %ecx
0x07fbd7b8:  8d 69 ff                 leal     -1(%ecx), %ebp
0x07fbd7bb:  bf f5 43 0f 00           movl     $0xf43f5, %edi
0x07fbd7c0:  83 fd 04                 cmpl     $4, %ebp
0x07fbd7c3:  77 07                    ja       0x7fbd7cc

----------------
IN: 
0x07fbd7c5:  8b 3c ad b8 de fb 07     movl     0x7fbdeb8(, %ebp, 4), %edi
0x07fbd7cc:  89 7c 24 1c              movl     %edi, 0x1c(%esp)
0x07fbd7d0:  89 4c 24 18              movl     %ecx, 0x18(%esp)
0x07fbd7d4:  8b 7c 24 28              movl     0x28(%esp), %edi
0x07fbd7d8:  8b 6c 24 2c              movl     0x2c(%esp), %ebp
0x07fbd7dc:  89 7c 24 10              movl     %edi, 0x10(%esp)
0x07fbd7e0:  89 6c 24 14              movl     %ebp, 0x14(%esp)
0x07fbd7e4:  89 44 24 08              movl     %eax, 8(%esp)
0x07fbd7e8:  89 54 24 0c              movl     %edx, 0xc(%esp)
0x07fbd7ec:  89 74 24 04              movl     %esi, 4(%esp)
0x07fbd7f0:  c7 04 24 a1 4b 0f 00     movl     $0xf4ba1, (%esp)
0x07fbd7f7:  e8 c9 0a 13 f8           calll    0xee2c5

----------------
IN: 
0x07fbd7fc:  46                       incl     %esi
0x07fbd7fd:  83 c3 14                 addl     $0x14, %ebx
0x07fbd800:  eb 94                    jmp      0x7fbd796

----------------
IN: 
0x07fbd796:  3b 35 84 5c 0f 00        cmpl     0xf5c84, %esi
0x07fbd79c:  7d 64                    jge      0x7fbd802

----------------
IN: 
0x000edcd4:  83 e9 08                 subl     $8, %ecx
0x000edcd7:  89 04 24                 movl     %eax, (%esp)
0x000edcda:  89 d8                    movl     %ebx, %eax
0x000edcdc:  e8 6a e4 ff ff           calll    0xec14b

----------------
IN: 
0x000edce1:  b9 08 00 00 00           movl     $8, %ecx
0x000edce6:  8b 54 24 04              movl     4(%esp), %edx
0x000edcea:  89 d8                    movl     %ebx, %eax
0x000edcec:  e8 d7 e3 ff ff           calll    0xec0c8

----------------
IN: 
0x07fbd802:  c7 05 08 61 0f 00 02 00  movl     $2, 0xf6108
0x07fbd80a:  00 00
0x07fbd80c:  8a 1d ff ff 0f 00        movb     0xfffff, %bl
0x07fbd812:  ba 00 00 01 00           movl     $0x10000, %edx
0x07fbd817:  b8 00 00 0f 00           movl     $0xf0000, %eax
0x07fbd81c:  e8 4e f8 12 f8           calll    0xed06f

----------------
IN: 
0x07fbd821:  29 c3                    subl     %eax, %ebx
0x07fbd823:  88 1d ff ff 0f 00        movb     %bl, 0xfffff
0x07fbd829:  e8 c1 21 13 f8           calll    0xef9ef

----------------
IN: 
0x000ef9ef:  53                       pushl    %ebx
0x000ef9f0:  53                       pushl    %ebx
0x000ef9f1:  e8 6c c6 ff ff           calll    0xec062

----------------
IN: 
0x000ef9f6:  85 c0                    testl    %eax, %eax
0x000ef9f8:  75 40                    jne      0xefa3a

----------------
IN: 
0x000ef9fa:  8b 1d f4 50 0f 00        movl     0xf50f4, %ebx
0x000efa00:  85 db                    testl    %ebx, %ebx
0x000efa02:  79 0e                    jns      0xefa12

----------------
IN: 
0x000efa12:  0f b7 db                 movzwl   %bx, %ebx
0x000efa15:  ba 02 00 00 00           movl     $2, %edx
0x000efa1a:  89 d8                    movl     %ebx, %eax
0x000efa1c:  e8 5a c8 ff ff           calll    0xec27b

----------------
IN: 
0x000efa21:  ba 59 00 00 00           movl     $0x59, %edx
0x000efa26:  66 3d 37 12              cmpw     $0x1237, %ax
0x000efa2a:  74 05                    je       0xefa31

----------------
IN: 
0x000efa31:  89 d8                    movl     %ebx, %eax
0x000efa33:  59                       popl     %ecx
0x000efa34:  5b                       popl     %ebx
0x000efa35:  e9 fb c9 ff ff           jmp      0xec435

----------------
IN: 
0x000ec435:  55                       pushl    %ebp
0x000ec436:  57                       pushl    %edi
0x000ec437:  56                       pushl    %esi
0x000ec438:  53                       pushl    %ebx
0x000ec439:  83 ec 10                 subl     $0x10, %esp
0x000ec43c:  89 d7                    movl     %edx, %edi
0x000ec43e:  0f 09                    wbinvd   
0x000ec440:  89 d3                    movl     %edx, %ebx
0x000ec442:  83 e3 fc                 andl     $0xfffffffc, %ebx
0x000ec445:  89 de                    movl     %ebx, %esi
0x000ec447:  89 1c 24                 movl     %ebx, (%esp)
0x000ec44a:  0f b7 d8                 movzwl   %ax, %ebx
0x000ec44d:  89 f2                    movl     %esi, %edx
0x000ec44f:  89 d8                    movl     %ebx, %eax
0x000ec451:  e8 03 fe ff ff           calll    0xec259

----------------
IN: 
0x000ec456:  89 44 24 08              movl     %eax, 8(%esp)
0x000ec45a:  89 f0                    movl     %esi, %eax
0x000ec45c:  83 c0 04                 addl     $4, %eax
0x000ec45f:  89 44 24 04              movl     %eax, 4(%esp)
0x000ec463:  89 c2                    movl     %eax, %edx
0x000ec465:  89 d8                    movl     %ebx, %eax
0x000ec467:  e8 ed fd ff ff           calll    0xec259

----------------
IN: 
0x000ec46c:  89 44 24 0c              movl     %eax, 0xc(%esp)
0x000ec470:  83 e7 03                 andl     $3, %edi
0x000ec473:  8d 6c 3c 08              leal     8(%esp, %edi), %ebp
0x000ec477:  e8 da fe ff ff           calll    0xec356

----------------
IN: 
0x000ec47c:  be 00 00 0c 00           movl     $0xc0000, %esi
0x000ec481:  31 c9                    xorl     %ecx, %ecx
0x000ec483:  8d 96 00 80 00 00        leal     0x8000(%esi), %edx
0x000ec489:  39 d0                    cmpl     %edx, %eax
0x000ec48b:  73 11                    jae      0xec49e

----------------
IN: 
0x000ec49e:  c6 44 0d 01 11           movb     $0x11, 1(%ebp, %ecx)
0x000ec4a3:  41                       incl     %ecx
0x000ec4a4:  83 f9 06                 cmpl     $6, %ecx
0x000ec4a7:  74 04                    je       0xec4ad

----------------
IN: 
0x000ec4a9:  89 d6                    movl     %edx, %esi
0x000ec4ab:  eb d6                    jmp      0xec483

----------------
IN: 
0x000ec483:  8d 96 00 80 00 00        leal     0x8000(%esi), %edx
0x000ec489:  39 d0                    cmpl     %edx, %eax
0x000ec48b:  73 11                    jae      0xec49e

----------------
IN: 
0x000ec48d:  81 c6 00 40 00 00        addl     $0x4000, %esi
0x000ec493:  39 f0                    cmpl     %esi, %eax
0x000ec495:  72 16                    jb       0xec4ad

----------------
IN: 
0x000ec4ad:  c6 44 3c 08 10           movb     $0x10, 8(%esp, %edi)
0x000ec4b2:  8b 4c 24 08              movl     8(%esp), %ecx
0x000ec4b6:  8b 14 24                 movl     (%esp), %edx
0x000ec4b9:  89 d8                    movl     %ebx, %eax
0x000ec4bb:  e8 0c fd ff ff           calll    0xec1cc

----------------
IN: 
0x000ec4c0:  8b 4c 24 0c              movl     0xc(%esp), %ecx
0x000ec4c4:  8b 54 24 04              movl     4(%esp), %edx
0x000ec4c8:  89 d8                    movl     %ebx, %eax
0x000ec4ca:  e8 fd fc ff ff           calll    0xec1cc

----------------
IN: 
0x000ec4cf:  83 c4 10                 addl     $0x10, %esp
0x000ec4d2:  5b                       popl     %ebx
0x000ec4d3:  5e                       popl     %esi
0x000ec4d4:  5f                       popl     %edi
0x000ec4d5:  5d                       popl     %ebp
0x000ec4d6:  c3                       retl     

----------------
IN: 
0x07fbd82e:  e8 2a 42 13 f8           calll    0xf1a5d

----------------
IN: 
0x000f1a5d:  83 ec 28                 subl     $0x28, %esp
0x000f1a60:  b9 00 90 08 00           movl     $0x89000, %ecx
0x000f1a65:  31 d2                    xorl     %edx, %edx
0x000f1a67:  b8 00 70 00 00           movl     $0x7000, %eax
0x000f1a6c:  e8 50 a7 ff ff           calll    0xec1c1

----------------
IN: 
0x000f1a71:  b9 26 00 00 00           movl     $0x26, %ecx
0x000f1a76:  31 d2                    xorl     %edx, %edx
0x000f1a78:  8d 44 24 02              leal     2(%esp), %eax
0x000f1a7c:  e8 40 a7 ff ff           calll    0xec1c1

----------------
IN: 
0x000f1a81:  66 c7 44 24 26 00 02     movw     $0x200, 0x26(%esp)
0x000f1a88:  ba 98 d0 0f 00           movl     $0xfd098, %edx
0x000f1a8d:  0f b7 d2                 movzwl   %dx, %edx
0x000f1a90:  8d 44 24 02              leal     2(%esp), %eax
0x000f1a94:  e8 62 c5 ff ff           calll    0xedffb

----------------
IN: 
0x000fd098:  cd 19                    int      $0x19

----------------
IN: 
0x000fe6f2:  e9 8f ed                 jmp      0xd484

----------------
IN: 
0x000fd484:  31 d2                    xorw     %dx, %dx
0x000fd486:  8e d2                    movw     %dx, %ss

----------------
IN: 
0x000fd488:  66 bc 00 70 00 00        movl     $0x7000, %esp

----------------
IN: 
0x000fd48e:  66 ba b7 1b 0f 00        movl     $0xf1bb7, %edx
0x000fd494:  e9 c3 fa                 jmp      0xcf5a

----------------
IN: 
0x000fcf5a:  fa                       cli      
0x000fcf5b:  fc                       cld      
0x000fcf5c:  66 89 c1                 movl     %eax, %ecx
0x000fcf5f:  66 b8 8f 00 00 00        movl     $0x8f, %eax
0x000fcf65:  e6 70                    outb     %al, $0x70
0x000fcf67:  e4 71                    inb      $0x71, %al
0x000fcf69:  e4 92                    inb      $-0x6e, %al
0x000fcf6b:  0c 02                    orb      $2, %al
0x000fcf6d:  e6 92                    outb     %al, $0x92
0x000fcf6f:  66 89 c8                 movl     %ecx, %eax
0x000fcf72:  2e 0f 01 1e f8 60        lidtw    %cs:0x60f8
0x000fcf78:  2e 0f 01 16 b8 60        lgdtw    %cs:0x60b8
0x000fcf7e:  0f 20 c1                 movl     %cr0, %ecx
0x000fcf81:  66 81 e1 ff ff ff 1f     andl     $0x1fffffff, %ecx
0x000fcf88:  66 83 c9 01              orl      $1, %ecx
0x000fcf8c:  0f 22 c1                 movl     %ecx, %cr0

----------------
IN: 
0x000fcf97:  b9 10 00 00 00           movl     $0x10, %ecx
0x000fcf9c:  8e d9                    movl     %ecx, %ds

----------------
IN: 
0x000fcf9e:  8e c1                    movl     %ecx, %es

----------------
IN: 
0x000f1bb7:  83 ec 08                 subl     $8, %esp
0x000f1bba:  c7 44 24 04 94 4f 0f 00  movl     $0xf4f94, 4(%esp)
0x000f1bc2:  c7 04 24 cf 4d 0f 00     movl     $0xf4dcf, (%esp)
0x000f1bc9:  e8 f7 c6 ff ff           calll    0xee2c5

----------------
IN: 
0x000f1bce:  c7 04 24 da 4d 0f 00     movl     $0xf4dda, (%esp)
0x000f1bd5:  e8 eb c6 ff ff           calll    0xee2c5

----------------
IN: 
0x000f1bda:  c7 05 98 b7 0e 00 00 00  movl     $0, 0xeb798
0x000f1be2:  00 00
0x000f1be4:  31 c0                    xorl     %eax, %eax
0x000f1be6:  83 c4 08                 addl     $8, %esp
0x000f1be9:  e9 68 f9 ff ff           jmp      0xf1556

----------------
IN: 
0x000f1556:  57                       pushl    %edi
0x000f1557:  56                       pushl    %esi
0x000f1558:  53                       pushl    %ebx
0x000f1559:  83 ec 34                 subl     $0x34, %esp
0x000f155c:  3b 05 98 53 0f 00        cmpl     0xf5398, %eax
0x000f1562:  0f 8d 33 01 00 00        jge      0xf169b

----------------
IN: 
0x000f1568:  8d 14 c5 9c 53 0f 00     leal     0xf539c(, %eax, 8), %edx
0x000f156f:  8b 04 c5 9c 53 0f 00     movl     0xf539c(, %eax, 8), %eax
0x000f1576:  83 f8 03                 cmpl     $3, %eax
0x000f1579:  74 61                    je       0xf15dc

----------------
IN: 
0x000f157b:  7f 26                    jg       0xf15a3

----------------
IN: 
0x000f157d:  83 f8 01                 cmpl     $1, %eax
0x000f1580:  74 3c                    je       0xf15be

----------------
IN: 
0x000f1582:  83 f8 02                 cmpl     $2, %eax
0x000f1585:  0f 85 15 01 00 00        jne      0xf16a0

----------------
IN: 
0x000f158b:  c7 04 24 56 3e 0f 00     movl     $0xf3e56, (%esp)
0x000f1592:  e8 4f ed ff ff           calll    0xf02e6

----------------
IN: 
0x000edde9:  b9 a8 cf 0f 00           movl     $0xfcfa8, %ecx
0x000eddee:  83 3d 08 61 0f 00 01     cmpl     $1, 0xf6108
0x000eddf5:  75 05                    jne      0xeddfc

----------------
IN: 
0x000eddfc:  89 f0                    movl     %esi, %eax
0x000eddfe:  ba 36 61 00 00           movl     $0x6136, %edx
0x000ede03:  ff e1                    jmpl     *%ecx

----------------
IN: 
0x000fcfa8:  b9 20 00 00 00           movl     $0x20, %ecx
0x000fcfad:  8e d9                    movl     %ecx, %ds

----------------
IN: 
0x000fcfaf:  8e c1                    movl     %ecx, %es

----------------
IN: 
0x000fcfb1:  8e d1                    movl     %ecx, %ss

----------------
IN: 
0x000fcfb3:  8e e1                    movl     %ecx, %fs

----------------
IN: 
0x000fcfb5:  8e e9                    movl     %ecx, %gs
0x000fcfb7:  66 ea d2 cf 18 00        ljmpw    $0x18:$0xcfd2

----------------
IN: 
0x000f1597:  ba 01 00 00 00           movl     $1, %edx
0x000f159c:  b8 80 00 00 00           movl     $0x80, %eax
0x000f15a1:  eb 2f                    jmp      0xf15d2

----------------
IN: 
0x000f15d2:  e8 a0 ed ff ff           calll    0xf0377

----------------
IN: 
0x000f0377:  56                       pushl    %esi
0x000f0378:  53                       pushl    %ebx
0x000f0379:  83 ec 34                 subl     $0x34, %esp
0x000f037c:  89 c3                    movl     %eax, %ebx
0x000f037e:  89 d6                    movl     %edx, %esi
0x000f0380:  b9 26 00 00 00           movl     $0x26, %ecx
0x000f0385:  31 d2                    xorl     %edx, %edx
0x000f0387:  8d 44 24 0e              leal     0xe(%esp), %eax
0x000f038b:  e8 31 be ff ff           calll    0xec1c1

----------------
IN: 
0x000f0390:  66 c7 44 24 32 00 02     movw     $0x200, 0x32(%esp)
0x000f0397:  88 5c 24 22              movb     %bl, 0x22(%esp)
0x000f039b:  66 c7 44 24 10 c0 07     movw     $0x7c0, 0x10(%esp)
0x000f03a2:  c6 44 24 2b 02           movb     $2, 0x2b(%esp)
0x000f03a7:  c6 44 24 2a 01           movb     $1, 0x2a(%esp)
0x000f03ac:  c6 44 24 26 01           movb     $1, 0x26(%esp)
0x000f03b1:  ba 8c d0 0f 00           movl     $0xfd08c, %edx
0x000f03b6:  0f b7 d2                 movzwl   %dx, %edx
0x000f03b9:  8d 44 24 0e              leal     0xe(%esp), %eax
0x000f03bd:  e8 39 dc ff ff           calll    0xedffb

----------------
IN: 
0x000fd08c:  cd 13                    int      $0x13

----------------
IN: 
0x000fe3fe:  e9 44 f0                 jmp      0xd445

----------------
IN: 
0x000fd445:  66 68 77 ba 00 00        pushl    $0xba77
0x000fd44b:  e9 55 ff                 jmp      0xd3a3

----------------
IN: 
0x000fba77:  66 57                    pushl    %edi
0x000fba79:  66 56                    pushl    %esi
0x000fba7b:  66 53                    pushl    %ebx
0x000fba7d:  67 8a 50 14              movb     0x14(%eax), %dl
0x000fba81:  67 80 78 1d 4b           cmpb     $0x4b, 0x1d(%eax)
0x000fba86:  75 47                    jne      0xbacf

----------------
IN: 
0x000fbacf:  66 b9 80 dc 00 00        movl     $0xdc80, %ecx
0x000fbad5:  66 0f b7 c9              movzwl   %cx, %ecx
0x000fbad9:  8e c1                    movw     %cx, %es
0x000fbadb:  26 8a 1e ed ef           movb     %es:0xefed, %bl
0x000fbae0:  84 db                    testb    %bl, %bl
0x000fbae2:  74 3e                    je       0xbb22

----------------
IN: 
0x000fbb22:  66 0f b6 d2              movzbl   %dl, %edx
0x000fbb26:  66 5b                    popl     %ebx
0x000fbb28:  66 5e                    popl     %esi
0x000fbb2a:  66 5f                    popl     %edi
0x000fbb2c:  e9 17 fc                 jmp      0xb746

----------------
IN: 
0x000fb746:  84 d2                    testb    %dl, %dl
0x000fb748:  78 3a                    js       0xb784

----------------
IN: 
0x000fb784:  80 fa df                 cmpb     $0xdf, %dl
0x000fb787:  76 19                    jbe      0xb7a2

----------------
IN: 
0x000fb7a2:  66 83 c2 80              addl     $-0x80, %edx
0x000fb7a6:  80 fa 0f                 cmpb     $0xf, %dl
0x000fb7a9:  77 16                    ja       0xb7c1

----------------
IN: 
0x000fb7ab:  66 0f b6 d2              movzbl   %dl, %edx
0x000fb7af:  2e 67 66 8b 14 95 20 60  movl     %cs:0x6020(, %edx, 4), %edx
0x000fb7b7:  00 00
0x000fb7b9:  66 85 d2                 testl    %edx, %edx
0x000fb7bc:  74 03                    je       0xb7c1

----------------
IN: 
0x000fb7be:  e9 55 fc                 jmp      0xb416

----------------
IN: 
0x000fb416:  66 53                    pushl    %ebx
0x000fb418:  66 89 c3                 movl     %eax, %ebx
0x000fb41b:  66 b9 40 00 00 00        movl     $0x40, %ecx
0x000fb421:  8e c1                    movw     %cx, %es
0x000fb423:  66 31 c0                 xorl     %eax, %eax
0x000fb426:  26 a2 8e 00              movb     %al, %es:0x8e
0x000fb42a:  67 8a 43 1d              movb     0x1d(%ebx), %al
0x000fb42e:  3c 14                    cmpb     $0x14, %al
0x000fb430:  0f 84 46 01              je       0xb57a

----------------
IN: 
0x000fb434:  77 6c                    ja       0xb4a2

----------------
IN: 
0x000fb436:  3c 05                    cmpb     $5, %al
0x000fb438:  0f 84 14 01              je       0xb550

----------------
IN: 
0x000fb43c:  77 2c                    ja       0xb46a

----------------
IN: 
0x000fb43e:  3c 02                    cmpb     $2, %al
0x000fb440:  0f 84 f6 00              je       0xb53a

----------------
IN: 
0x000fb53a:  66 b9 02 00 00 00        movl     $2, %ecx
0x000fb540:  eb 06                    jmp      0xb548

----------------
IN: 
0x000fb548:  66 89 d8                 movl     %ebx, %eax
0x000fb54b:  66 5b                    popl     %ebx
0x000fb54d:  e9 7b fb                 jmp      0xb0cb

----------------
IN: 
0x000fb0cb:  66 57                    pushl    %edi
0x000fb0cd:  66 56                    pushl    %esi
0x000fb0cf:  66 53                    pushl    %ebx
0x000fb0d1:  66 83 ec 18              subl     $0x18, %esp
0x000fb0d5:  66 89 c3                 movl     %eax, %ebx
0x000fb0d8:  67 66 89 54 24 08        movl     %edx, 8(%esp)
0x000fb0de:  67 88 4c 24 0c           movb     %cl, 0xc(%esp)
0x000fb0e3:  67 66 0f b6 48 1c        movzbl   0x1c(%eax), %ecx
0x000fb0e9:  67 8a 40 19              movb     0x19(%eax), %al
0x000fb0ed:  67 88 44 24 02           movb     %al, 2(%esp)
0x000fb0f2:  67 66 0f b6 73 18        movzbl   0x18(%ebx), %esi
0x000fb0f8:  66 89 f0                 movl     %esi, %eax
0x000fb0fb:  66 83 e0 3f              andl     $0x3f, %eax
0x000fb0ff:  67 88 44 24 03           movb     %al, 3(%esp)
0x000fb104:  66 0f b6 f8              movzbl   %al, %edi
0x000fb108:  67 8a 43 15              movb     0x15(%ebx), %al
0x000fb10c:  67 88 44 24 01           movb     %al, 1(%esp)
0x000fb111:  88 c8                    movb     %cl, %al
0x000fb113:  fe c8                    decb     %al
0x000fb115:  78 04                    js       0xb11b

----------------
IN: 
0x000fb117:  85 ff                    testw    %di, %di
0x000fb119:  75 09                    jne      0xb124

----------------
IN: 
0x000fb124:  66 c1 e6 02              shll     $2, %esi
0x000fb128:  81 e6 00 03              andw     $0x300, %si
0x000fb12c:  67 66 0f b6 44 24 02     movzbl   2(%esp), %eax
0x000fb133:  66 09 c6                 orl      %eax, %esi
0x000fb136:  67 89 4c 24 0e           movw     %cx, 0xe(%esp)
0x000fb13b:  66 89 d0                 movl     %edx, %eax
0x000fb13e:  66 e8 49 bc ff ff        calll    0xf6d8d

----------------
IN: 
0x000f6d8d:  66 53                    pushl    %ebx
0x000f6d8f:  2e 66 8b 16 d8 5f        movl     %cs:0x5fd8, %edx
0x000f6d95:  66 39 d0                 cmpl     %edx, %eax
0x000f6d98:  75 4d                    jne      0x6de7

----------------
IN: 
0x000f6de7:  67 66 8d 50 04           leal     4(%eax), %edx
0x000f6dec:  66 89 d1                 movl     %edx, %ecx
0x000f6def:  66 c1 e9 04              shrl     $4, %ecx
0x000f6df3:  8e c1                    movw     %cx, %es
0x000f6df5:  66 83 e2 0f              andl     $0xf, %edx
0x000f6df9:  26 67 8b 0a              movw     %es:0(%edx), %cx
0x000f6dfd:  67 66 8d 50 02           leal     2(%eax), %edx
0x000f6e02:  66 89 d3                 movl     %edx, %ebx
0x000f6e05:  66 c1 eb 04              shrl     $4, %ebx
0x000f6e09:  8e c3                    movw     %bx, %es
0x000f6e0b:  66 83 e2 0f              andl     $0xf, %edx
0x000f6e0f:  26 67 8b 1a              movw     %es:0(%edx), %bx
0x000f6e13:  66 83 c0 06              addl     $6, %eax
0x000f6e17:  66 89 c2                 movl     %eax, %edx
0x000f6e1a:  66 c1 ea 04              shrl     $4, %edx
0x000f6e1e:  8e c2                    movw     %dx, %es
0x000f6e20:  66 83 e0 0f              andl     $0xf, %eax
0x000f6e24:  26 67 8b 10              movw     %es:0(%eax), %dx
0x000f6e28:  66 c1 e1 10              shll     $0x10, %ecx
0x000f6e2c:  66 0f b7 c3              movzwl   %bx, %eax
0x000f6e30:  66 09 c8                 orl      %ecx, %eax
0x000f6e33:  66 0f b7 d2              movzwl   %dx, %edx
0x000f6e37:  66 5b                    popl     %ebx
0x000f6e39:  66 c3                    retl     

----------------
IN: 
0x000fb144:  66 89 c1                 movl     %eax, %ecx
0x000fb147:  66 c1 e9 10              shrl     $0x10, %ecx
0x000fb14b:  39 ce                    cmpw     %cx, %si
0x000fb14d:  73 0f                    jae      0xb15e

----------------
IN: 
0x000fb14f:  67 66 0f b6 4c 24 01     movzbl   1(%esp), %ecx
0x000fb156:  39 c1                    cmpw     %ax, %cx
0x000fb158:  73 04                    jae      0xb15e

----------------
IN: 
0x000fb15a:  39 d7                    cmpw     %dx, %di
0x000fb15c:  76 08                    jbe      0xb166

----------------
IN: 
0x000fb166:  67 66 0f b6 4c 24 03     movzbl   3(%esp), %ecx
0x000fb16d:  66 0f b7 f6              movzwl   %si, %esi
0x000fb171:  66 0f b7 c0              movzwl   %ax, %eax
0x000fb175:  66 0f af f0              imull    %eax, %esi
0x000fb179:  67 66 0f b6 44 24 01     movzbl   1(%esp), %eax
0x000fb180:  66 01 c6                 addl     %eax, %esi
0x000fb183:  66 0f b7 d2              movzwl   %dx, %edx
0x000fb187:  66 0f af f2              imull    %edx, %esi
0x000fb18b:  67 66 8d 44 31 ff        leal     -1(%ecx, %esi), %eax
0x000fb191:  67 66 89 44 24 10        movl     %eax, 0x10(%esp)
0x000fb197:  67 66 c7 44 24 14 00 00  movl     $0, 0x14(%esp)
0x000fb19f:  00 00
0x000fb1a1:  67 66 0f b7 43 02        movzwl   2(%ebx), %eax
0x000fb1a7:  66 c1 e0 04              shll     $4, %eax
0x000fb1ab:  67 66 0f b7 53 10        movzwl   0x10(%ebx), %edx
0x000fb1b1:  66 01 d0                 addl     %edx, %eax
0x000fb1b4:  67 66 89 44 24 04        movl     %eax, 4(%esp)
0x000fb1ba:  67 66 8d 44 24 04        leal     4(%esp), %eax
0x000fb1c0:  66 e8 12 f9 ff ff        calll    0xfaad8

----------------
IN: 
0x000faad8:  66 55                    pushl    %ebp
0x000faada:  66 57                    pushl    %edi
0x000faadc:  66 56                    pushl    %esi
0x000faade:  66 53                    pushl    %ebx
0x000faae0:  66 51                    pushl    %ecx
0x000faae2:  66 89 c3                 movl     %eax, %ebx
0x000faae5:  67 66 0f b7 70 0a        movzwl   0xa(%eax), %esi
0x000faaeb:  67 66 8b 68 04           movl     4(%eax), %ebp
0x000faaf0:  67 66 8d 45 1a           leal     0x1a(%ebp), %eax
0x000faaf5:  66 89 c2                 movl     %eax, %edx
0x000faaf8:  66 c1 ea 04              shrl     $4, %edx
0x000faafc:  8e c2                    movw     %dx, %es
0x000faafe:  66 83 e0 0f              andl     $0xf, %eax
0x000fab02:  26 67 8b 00              movw     %es:0(%eax), %ax
0x000fab06:  66 0f b7 c0              movzwl   %ax, %eax
0x000fab0a:  66 0f af c6              imull    %esi, %eax
0x000fab0e:  66 3d 00 00 01 00        cmpl     $0x10000, %eax
0x000fab14:  7e 0f                    jle      0xab25

----------------
IN: 
0x000fab25:  66 89 e8                 movl     %ebp, %eax
0x000fab28:  66 c1 e8 04              shrl     $4, %eax
0x000fab2c:  8e c0                    movw     %ax, %es
0x000fab2e:  66 89 e8                 movl     %ebp, %eax
0x000fab31:  66 83 e0 0f              andl     $0xf, %eax
0x000fab35:  26 67 8a 00              movb     %es:0(%eax), %al
0x000fab39:  3c 20                    cmpb     $0x20, %al
0x000fab3b:  0f 84 b9 00              je       0xabf8

----------------
IN: 
0x000fabf8:  67 8a 43 08              movb     8(%ebx), %al
0x000fabfc:  3c 02                    cmpb     $2, %al
0x000fabfe:  74 16                    je       0xac16

----------------
IN: 
0x000fac16:  66 31 d2                 xorl     %edx, %edx
0x000fac19:  eb 06                    jmp      0xac21

----------------
IN: 
0x000fac21:  66 89 d8                 movl     %ebx, %eax
0x000fac24:  66 e8 9e fb ff ff        calll    0xfa7c8

----------------
IN: 
0x000fa7c8:  66 55                    pushl    %ebp
0x000fa7ca:  66 57                    pushl    %edi
0x000fa7cc:  66 56                    pushl    %esi
0x000fa7ce:  66 53                    pushl    %ebx
0x000fa7d0:  66 83 ec 0c              subl     $0xc, %esp
0x000fa7d4:  66 89 c7                 movl     %eax, %edi
0x000fa7d7:  66 89 d5                 movl     %edx, %ebp
0x000fa7da:  67 66 8b 58 0c           movl     0xc(%eax), %ebx
0x000fa7df:  67 66 8b 70 10           movl     0x10(%eax), %esi
0x000fa7e4:  66 b9 0c 00 00 00        movl     $0xc, %ecx
0x000fa7ea:  66 31 d2                 xorl     %edx, %edx
0x000fa7ed:  66 89 e0                 movl     %esp, %eax
0x000fa7f0:  66 e8 f9 3b 00 00        calll    0xfe3ef

----------------
IN: 
0x000fa7f6:  67 8b 4f 0a              movw     0xa(%edi), %cx
0x000fa7fa:  81 f9 ff 00              cmpw     $0xff, %cx
0x000fa7fe:  77 1b                    ja       0xa81b

----------------
IN: 
0x000fa800:  66 0f b7 c1              movzwl   %cx, %eax
0x000fa804:  66 31 d2                 xorl     %edx, %edx
0x000fa807:  66 01 d8                 addl     %ebx, %eax
0x000fa80a:  66 11 f2                 adcl     %esi, %edx
0x000fa80d:  66 83 fa 00              cmpl     $0, %edx
0x000fa811:  77 08                    ja       0xa81b

----------------
IN: 
0x000fa813:  66 3d ff ff ff 0f        cmpl     $0xfffffff, %eax
0x000fa819:  76 50                    jbe      0xa86b

----------------
IN: 
0x000fa86b:  66 83 fd 01              cmpl     $1, %ebp
0x000fa86f:  66 19 c0                 sbbl     %eax, %eax
0x000fa872:  66 83 e0 f0              andl     $0xfffffff0, %eax
0x000fa876:  66 83 c0 30              addl     $0x30, %eax
0x000fa87a:  67 88 44 24 06           movb     %al, 6(%esp)
0x000fa87f:  67 88 4c 24 01           movb     %cl, 1(%esp)
0x000fa884:  67 88 5c 24 02           movb     %bl, 2(%esp)
0x000fa889:  66 89 d8                 movl     %ebx, %eax
0x000fa88c:  66 89 f2                 movl     %esi, %edx
0x000fa88f:  66 0f ac d0 08           shrdl    $8, %edx, %eax
0x000fa894:  66 c1 ea 08              shrl     $8, %edx
0x000fa898:  67 88 44 24 03           movb     %al, 3(%esp)
0x000fa89d:  66 89 d8                 movl     %ebx, %eax
0x000fa8a0:  66 89 f2                 movl     %esi, %edx
0x000fa8a3:  66 0f ac d0 10           shrdl    $0x10, %edx, %eax
0x000fa8a8:  66 c1 ea 10              shrl     $0x10, %edx
0x000fa8ac:  67 88 44 24 04           movb     %al, 4(%esp)
0x000fa8b1:  66 89 d8                 movl     %ebx, %eax
0x000fa8b4:  66 89 f2                 movl     %esi, %edx
0x000fa8b7:  66 0f ac d0 18           shrdl    $0x18, %edx, %eax
0x000fa8bc:  66 c1 ea 18              shrl     $0x18, %edx
0x000fa8c0:  88 c3                    movb     %al, %bl
0x000fa8c2:  66 83 e3 0f              andl     $0xf, %ebx
0x000fa8c6:  66 83 cb 40              orl      $0x40, %ebx
0x000fa8ca:  67 88 5c 24 05           movb     %bl, 5(%esp)
0x000fa8cf:  67 66 8b 4f 04           movl     4(%edi), %ecx
0x000fa8d4:  2e 67 66 8b 81 24 00 f1  movl     %cs:-0xeffdc(%ecx), %eax
0x000fa8dc:  ff
0x000fa8dd:  2e 67 8b b0 00 00 f1 ff  movw     %cs:-0xf0000(%eax), %si
0x000fa8e5:  2e 67 8b 98 02 00 f1 ff  movw     %cs:-0xefffe(%eax), %bx
0x000fa8ed:  66 83 c3 02              addl     $2, %ebx
0x000fa8f1:  b0 0a                    movb     $0xa, %al
0x000fa8f3:  66 89 da                 movl     %ebx, %edx
0x000fa8f6:  ee                       outb     %al, %dx
0x000fa8f7:  66 89 e2                 movl     %esp, %edx
0x000fa8fa:  66 89 c8                 movl     %ecx, %eax
0x000fa8fd:  66 e8 e5 39 00 00        calll    0xfe2e8

----------------
IN: 
0x000fe2e8:  66 55                    pushl    %ebp
0x000fe2ea:  66 57                    pushl    %edi
0x000fe2ec:  66 56                    pushl    %esi
0x000fe2ee:  66 53                    pushl    %ebx
0x000fe2f0:  66 89 d7                 movl     %edx, %edi
0x000fe2f3:  2e 67 66 8b 90 24 00 f1  movl     %cs:-0xeffdc(%eax), %edx
0x000fe2fb:  ff
0x000fe2fc:  2e 67 8a 98 28 00 f1 ff  movb     %cs:-0xeffd8(%eax), %bl
0x000fe304:  2e 67 8b b2 00 00 f1 ff  movw     %cs:-0xf0000(%edx), %si
0x000fe30c:  66 0f b7 ee              movzwl   %si, %ebp
0x000fe310:  66 89 e8                 movl     %ebp, %eax
0x000fe313:  66 e8 66 c4 ff ff        calll    0xfa77f

----------------
IN: 
0x000fa77f:  66 0f b7 c8              movzwl   %ax, %ecx
0x000fa783:  66 31 d2                 xorl     %edx, %edx
0x000fa786:  66 b8 80 00 00 00        movl     $0x80, %eax
0x000fa78c:  e9 7d ff                 jmp      0xa70c

----------------
IN: 
0x000fa70c:  66 55                    pushl    %ebp
0x000fa70e:  66 57                    pushl    %edi
0x000fa710:  66 56                    pushl    %esi
0x000fa712:  66 53                    pushl    %ebx
0x000fa714:  66 89 c6                 movl     %eax, %esi
0x000fa717:  66 89 d7                 movl     %edx, %edi
0x000fa71a:  66 89 cd                 movl     %ecx, %ebp
0x000fa71d:  66 b8 00 7d 00 00        movl     $0x7d00, %eax
0x000fa723:  66 e8 96 cd ff ff        calll    0xf74bf

----------------
IN: 
0x000f74bf:  66 53                    pushl    %ebx
0x000f74c1:  66 89 c3                 movl     %eax, %ebx
0x000f74c4:  66 e8 46 ff ff ff        calll    0xf7410

----------------
IN: 
0x000f7410:  2e 8b 16 80 5f           movw     %cs:0x5f80, %dx
0x000f7415:  85 d2                    testw    %dx, %dx
0x000f7417:  75 1b                    jne      0x7434

----------------
IN: 
0x000f7434:  66 56                    pushl    %esi
0x000f7436:  66 53                    pushl    %ebx
0x000f7438:  83 fa 40                 cmpw     $0x40, %dx
0x000f743b:  74 36                    je       0x7473

----------------
IN: 
0x000f743d:  66 ed                    inl      %dx, %eax
0x000f743f:  66 ba 80 dc 00 00        movl     $0xdc80, %edx
0x000f7445:  66 0f b7 d2              movzwl   %dx, %edx
0x000f7449:  8e c2                    movw     %dx, %es
0x000f744b:  26 66 8b 0e b4 ef        movl     %es:0xefb4, %ecx
0x000f7451:  66 25 ff ff ff 00        andl     $0xffffff, %eax
0x000f7457:  66 89 cb                 movl     %ecx, %ebx
0x000f745a:  66 81 e3 00 00 00 ff     andl     $0xff000000, %ebx
0x000f7461:  66 09 d8                 orl      %ebx, %eax
0x000f7464:  66 39 c8                 cmpl     %ecx, %eax
0x000f7467:  73 06                    jae      0x746f

----------------
IN: 
0x000f746f:  8e c2                    movw     %dx, %es
0x000f7471:  eb 41                    jmp      0x74b4

----------------
IN: 
0x000f74b4:  26 66 a3 b4 ef           movl     %eax, %es:0xefb4
0x000f74b9:  66 5b                    popl     %ebx
0x000f74bb:  66 5e                    popl     %esi
0x000f74bd:  66 c3                    retl     

----------------
IN: 
0x000f74ca:  2e 66 8b 16 84 5f        movl     %cs:0x5f84, %edx
0x000f74d0:  66 0f af d3              imull    %ebx, %edx
0x000f74d4:  66 01 d0                 addl     %edx, %eax
0x000f74d7:  66 5b                    popl     %ebx
0x000f74d9:  66 c3                    retl     

----------------
IN: 
0x000fa729:  66 89 c3                 movl     %eax, %ebx
0x000fa72c:  66 83 c5 07              addl     $7, %ebp
0x000fa730:  66 89 ea                 movl     %ebp, %edx
0x000fa733:  ec                       inb      %dx, %al
0x000fa734:  66 89 f2                 movl     %esi, %edx
0x000fa737:  66 21 c2                 andl     %eax, %edx
0x000fa73a:  66 89 f9                 movl     %edi, %ecx
0x000fa73d:  38 ca                    cmpb     %cl, %dl
0x000fa73f:  75 06                    jne      0xa747

----------------
IN: 
0x000fa741:  66 0f b6 c0              movzbl   %al, %eax
0x000fa745:  eb 2e                    jmp      0xa775

----------------
IN: 
0x000fa775:  66 5b                    popl     %ebx
0x000fa777:  66 5e                    popl     %esi
0x000fa779:  66 5f                    popl     %edi
0x000fa77b:  66 5d                    popl     %ebp
0x000fa77d:  66 c3                    retl     

----------------
IN: 
0x000fe319:  66 85 c0                 testl    %eax, %eax
0x000fe31c:  0f 88 c5 00              js       0xe3e5

----------------
IN: 
0x000fe320:  67 8a 47 05              movb     5(%edi), %al
0x000fe324:  66 83 e0 4f              andl     $0x4f, %eax
0x000fe328:  80 fb 01                 cmpb     $1, %bl
0x000fe32b:  66 19 c9                 sbbl     %ecx, %ecx
0x000fe32e:  66 83 e1 f0              andl     $0xfffffff0, %ecx
0x000fe332:  66 83 e9 50              subl     $0x50, %ecx
0x000fe336:  66 09 c1                 orl      %eax, %ecx
0x000fe339:  67 66 8d 56 06           leal     6(%esi), %edx
0x000fe33e:  ec                       inb      %dx, %al
0x000fe33f:  88 c3                    movb     %al, %bl
0x000fe341:  88 c8                    movb     %cl, %al
0x000fe343:  ee                       outb     %al, %dx
0x000fe344:  66 31 cb                 xorl     %ecx, %ebx
0x000fe347:  80 e3 10                 andb     $0x10, %bl
0x000fe34a:  75 47                    jne      0xe393

----------------
IN: 
0x000fe393:  66 e8 15 1b 00 00        calll    0xffeae

----------------
IN: 
0x000ffeae:  66 53                    pushl    %ebx
0x000ffeb0:  66 e8 5a 75 ff ff        calll    0xf7410

----------------
IN: 
0x000ffeb6:  66 89 c3                 movl     %eax, %ebx
0x000ffeb9:  2e 66 8b 16 84 5f        movl     %cs:0x5f84, %edx
0x000ffebf:  66 69 d2 90 01 00 00     imull    $0x190, %edx, %edx
0x000ffec6:  67 66 8d 82 3f 42 0f 00  leal     0xf423f(%edx), %eax
0x000ffece:  66 b9 40 42 0f 00        movl     $0xf4240, %ecx
0x000ffed4:  66 31 d2                 xorl     %edx, %edx
0x000ffed7:  66 f7 f1                 divl     %ecx
0x000ffeda:  66 01 c3                 addl     %eax, %ebx
0x000ffedd:  66 89 d8                 movl     %ebx, %eax
0x000ffee0:  66 e8 53 76 ff ff        calll    0xf7539

----------------
IN: 
0x000f7539:  66 53                    pushl    %ebx
0x000f753b:  66 89 c3                 movl     %eax, %ebx
0x000f753e:  66 e8 cc fe ff ff        calll    0xf7410

----------------
IN: 
0x000f7544:  66 29 d8                 subl     %ebx, %eax
0x000f7547:  66 85 c0                 testl    %eax, %eax
0x000f754a:  0f 9f c0                 setg     %al
0x000f754d:  66 0f b6 c0              movzbl   %al, %eax
0x000f7551:  66 5b                    popl     %ebx
0x000f7553:  66 c3                    retl     

----------------
IN: 
0x000ffee6:  66 85 c0                 testl    %eax, %eax
0x000ffee9:  75 04                    jne      0xfeef

----------------
IN: 
0x000ffeef:  66 5b                    popl     %ebx
0x000ffef1:  66 c3                    retl     

----------------
IN: 
0x000fe399:  66 89 e8                 movl     %ebp, %eax
0x000fe39c:  66 e8 dd c3 ff ff        calll    0xfa77f

----------------
IN: 
0x000fe3a2:  66 85 c0                 testl    %eax, %eax
0x000fe3a5:  79 a5                    jns      0xe34c

----------------
IN: 
0x000fe34c:  67 8a 4f 06              movb     6(%edi), %cl
0x000fe350:  66 89 c8                 movl     %ecx, %eax
0x000fe353:  66 25 ee 00 00 00        andl     $0xee, %eax
0x000fe359:  66 83 f8 24              cmpl     $0x24, %eax
0x000fe35d:  75 4a                    jne      0xe3a9

----------------
IN: 
0x000fe3a9:  67 8a 07                 movb     (%edi), %al
0x000fe3ac:  67 66 8d 56 01           leal     1(%esi), %edx
0x000fe3b1:  ee                       outb     %al, %dx
0x000fe3b2:  67 8a 47 01              movb     1(%edi), %al
0x000fe3b6:  67 66 8d 56 02           leal     2(%esi), %edx
0x000fe3bb:  ee                       outb     %al, %dx
0x000fe3bc:  67 8a 47 02              movb     2(%edi), %al
0x000fe3c0:  67 66 8d 56 03           leal     3(%esi), %edx
0x000fe3c5:  ee                       outb     %al, %dx
0x000fe3c6:  67 8a 47 03              movb     3(%edi), %al
0x000fe3ca:  67 66 8d 56 04           leal     4(%esi), %edx
0x000fe3cf:  ee                       outb     %al, %dx
0x000fe3d0:  67 8a 47 04              movb     4(%edi), %al
0x000fe3d4:  67 66 8d 56 05           leal     5(%esi), %edx
0x000fe3d9:  ee                       outb     %al, %dx
0x000fe3da:  67 66 8d 56 07           leal     7(%esi), %edx
0x000fe3df:  88 c8                    movb     %cl, %al
0x000fe3e1:  ee                       outb     %al, %dx
0x000fe3e2:  66 31 c0                 xorl     %eax, %eax
0x000fe3e5:  66 5b                    popl     %ebx
0x000fe3e7:  66 5e                    popl     %esi
0x000fe3e9:  66 5f                    popl     %edi
0x000fe3eb:  66 5d                    popl     %ebp
0x000fe3ed:  66 c3                    retl     

----------------
IN: 
0x000fa903:  66 89 c1                 movl     %eax, %ecx
0x000fa906:  66 85 c0                 testl    %eax, %eax
0x000fa909:  75 24                    jne      0xa92f

----------------
IN: 
0x000fa90b:  66 0f b7 c6              movzwl   %si, %eax
0x000fa90f:  66 e8 7a fe ff ff        calll    0xfa78f

----------------
IN: 
0x000fa78f:  66 53                    pushl    %ebx
0x000fa791:  66 89 c3                 movl     %eax, %ebx
0x000fa794:  66 e8 14 57 00 00        calll    0xffeae

----------------
IN: 
0x000ffeeb:  f3 90                    nop      

----------------
IN: 
0x000ffeed:  eb ee                    jmp      0xfedd

----------------
IN: 
0x000ffedd:  66 89 d8                 movl     %ebx, %eax
0x000ffee0:  66 e8 53 76 ff ff        calll    0xf7539

----------------
IN: 
0x000fa79a:  66 0f b7 c3              movzwl   %bx, %eax
0x000fa79e:  66 e8 db ff ff ff        calll    0xfa77f

----------------
IN: 
0x000fa7a4:  66 85 c0                 testl    %eax, %eax
0x000fa7a7:  78 1b                    js       0xa7c4

----------------
IN: 
0x000fa7a9:  a8 01                    testb    $1, %al
0x000fa7ab:  75 11                    jne      0xa7be

----------------
IN: 
0x000fa7ad:  66 83 e0 08              andl     $8, %eax
0x000fa7b1:  66 83 f8 01              cmpl     $1, %eax
0x000fa7b5:  66 19 c0                 sbbl     %eax, %eax
0x000fa7b8:  66 83 e0 fb              andl     $0xfffffffb, %eax
0x000fa7bc:  eb 06                    jmp      0xa7c4

----------------
IN: 
0x000fa7c4:  66 5b                    popl     %ebx
0x000fa7c6:  66 c3                    retl     

----------------
IN: 
0x000fa915:  66 89 c1                 movl     %eax, %ecx
0x000fa918:  66 85 c0                 testl    %eax, %eax
0x000fa91b:  75 12                    jne      0xa92f

----------------
IN: 
0x000fa91d:  b9 00 02                 movw     $0x200, %cx
0x000fa920:  66 89 ea                 movl     %ebp, %edx
0x000fa923:  66 89 f8                 movl     %edi, %eax
0x000fa926:  66 e8 0b 3f 00 00        calll    0xfe837

----------------
IN: 
0x000fe837:  66 55                    pushl    %ebp
0x000fe839:  66 57                    pushl    %edi
0x000fe83b:  66 56                    pushl    %esi
0x000fe83d:  66 53                    pushl    %ebx
0x000fe83f:  66 83 ec 18              subl     $0x18, %esp
0x000fe843:  66 89 c3                 movl     %eax, %ebx
0x000fe846:  67 66 89 54 24 08        movl     %edx, 8(%esp)
0x000fe84c:  66 89 ca                 movl     %ecx, %edx
0x000fe84f:  67 66 89 4c 24 0c        movl     %ecx, 0xc(%esp)
0x000fe855:  67 66 8b 40 04           movl     4(%eax), %eax
0x000fe85a:  2e 67 66 8b 80 24 00 f1  movl     %cs:-0xeffdc(%eax), %eax
0x000fe862:  ff
0x000fe863:  2e 67 8b b8 00 00 f1 ff  movw     %cs:-0xf0000(%eax), %di
0x000fe86b:  67 89 7c 24 10           movw     %di, 0x10(%esp)
0x000fe870:  2e 67 8b b0 02 00 f1 ff  movw     %cs:-0xefffe(%eax), %si
0x000fe878:  67 66 0f b7 6b 0a        movzwl   0xa(%ebx), %ebp
0x000fe87e:  67 66 8b 03              movl     (%ebx), %eax
0x000fe882:  67 66 89 04 24           movl     %eax, (%esp)
0x000fe887:  66 b9 02 00 00 00        movl     $2, %ecx
0x000fe88d:  66 89 d0                 movl     %edx, %eax
0x000fe890:  66 99                    cltd     
0x000fe892:  66 f7 f9                 idivl    %ecx
0x000fe895:  66 0f b7 c0              movzwl   %ax, %eax
0x000fe899:  67 66 89 44 24 04        movl     %eax, 4(%esp)
0x000fe89f:  67 66 8d 46 02           leal     2(%esi), %eax
0x000fe8a4:  67 89 44 24 12           movw     %ax, 0x12(%esp)
0x000fe8a9:  66 0f b7 c7              movzwl   %di, %eax
0x000fe8ad:  67 66 89 44 24 14        movl     %eax, 0x14(%esp)
0x000fe8b3:  67 66 83 7c 24 08 00     cmpl     $0, 8(%esp)
0x000fe8ba:  74 24                    je       0xe8e0

----------------
IN: 
0x000fe8e0:  67 66 8b 3c 24           movl     (%esp), %edi
0x000fe8e5:  66 89 f8                 movl     %edi, %eax
0x000fe8e8:  66 c1 e8 04              shrl     $4, %eax
0x000fe8ec:  8e c0                    movw     %ax, %es
0x000fe8ee:  66 83 e7 0f              andl     $0xf, %edi
0x000fe8f2:  67 66 8b 4c 24 04        movl     4(%esp), %ecx
0x000fe8f8:  67 66 8b 54 24 10        movl     0x10(%esp), %edx
0x000fe8fe:  67 f3 6d                 rep insw %dx, %es:(%edi)

----------------
IN: 
0x000fe8fe:  67 f3 6d                 rep insw %dx, %es:(%edi)

----------------
IN: 
0x000fe901:  67 66 8b 44 24 0c        movl     0xc(%esp), %eax
0x000fe907:  67 66 01 04 24           addl     %eax, (%esp)
0x000fe90c:  67 8b 54 24 12           movw     0x12(%esp), %dx
0x000fe911:  ec                       inb      %dx, %al
0x000fe912:  67 66 8b 44 24 14        movl     0x14(%esp), %eax
0x000fe918:  66 e8 61 be ff ff        calll    0xfa77f

----------------
IN: 
0x000fe91e:  66 85 c0                 testl    %eax, %eax
0x000fe921:  79 06                    jns      0xe929

----------------
IN: 
0x000fe929:  66 4d                    decl     %ebp
0x000fe92b:  74 1a                    je       0xe947

----------------
IN: 
0x000fe947:  66 89 c2                 movl     %eax, %edx
0x000fe94a:  66 81 e2 89 00 00 00     andl     $0x89, %edx
0x000fe951:  67 66 83 7c 24 08 00     cmpl     $0, 8(%esp)
0x000fe958:  74 09                    je       0xe963

----------------
IN: 
0x000fe963:  66 83 fa 01              cmpl     $1, %edx
0x000fe967:  66 19 c0                 sbbl     %eax, %eax
0x000fe96a:  66 f7 d0                 notl     %eax
0x000fe96d:  66 83 e0 f9              andl     $0xfffffff9, %eax
0x000fe971:  66 83 c4 18              addl     $0x18, %esp
0x000fe975:  66 5b                    popl     %ebx
0x000fe977:  66 5e                    popl     %esi
0x000fe979:  66 5f                    popl     %edi
0x000fe97b:  66 5d                    popl     %ebp
0x000fe97d:  66 c3                    retl     

----------------
IN: 
0x000fa92c:  66 89 c1                 movl     %eax, %ecx
0x000fa92f:  b0 08                    movb     $8, %al
0x000fa931:  66 89 da                 movl     %ebx, %edx
0x000fa934:  ee                       outb     %al, %dx
0x000fa935:  66 83 f9 01              cmpl     $1, %ecx
0x000fa939:  66 19 c0                 sbbl     %eax, %eax
0x000fa93c:  66 f7 d0                 notl     %eax
0x000fa93f:  66 83 e0 0c              andl     $0xc, %eax
0x000fa943:  66 83 c4 0c              addl     $0xc, %esp
0x000fa947:  66 5b                    popl     %ebx
0x000fa949:  66 5e                    popl     %esi
0x000fa94b:  66 5f                    popl     %edi
0x000fa94d:  66 5d                    popl     %ebp
0x000fa94f:  66 c3                    retl     

----------------
IN: 
0x000fac2a:  e9 15 02                 jmp      0xae42

----------------
IN: 
0x000fae42:  66 85 c0                 testl    %eax, %eax
0x000fae45:  74 11                    je       0xae58

----------------
IN: 
0x000fae58:  66 5a                    popl     %edx
0x000fae5a:  66 5b                    popl     %ebx
0x000fae5c:  66 5e                    popl     %esi
0x000fae5e:  66 5f                    popl     %edi
0x000fae60:  66 5d                    popl     %ebp
0x000fae62:  66 c3                    retl     

----------------
IN: 
0x000fb1c6:  67 8b 54 24 0e           movw     0xe(%esp), %dx
0x000fb1cb:  67 88 53 1c              movb     %dl, 0x1c(%ebx)
0x000fb1cf:  80 cc 9e                 orb      $0x9e, %ah
0x000fb1d2:  66 89 c2                 movl     %eax, %edx
0x000fb1d5:  66 89 d8                 movl     %ebx, %eax
0x000fb1d8:  66 e8 7b be ff ff        calll    0xf7059

----------------
IN: 
0x000f7059:  66 b9 40 00 00 00        movl     $0x40, %ecx
0x000f705f:  67 80 78 14 00           cmpb     $0, 0x14(%eax)
0x000f7064:  78 09                    js       0x706f

----------------
IN: 
0x000f706f:  8e c1                    movw     %cx, %es
0x000f7071:  26 88 16 74 00           movb     %dl, %es:0x74
0x000f7076:  84 d2                    testb    %dl, %dl
0x000f7078:  74 0b                    je       0x7085

----------------
IN: 
0x000f7085:  e9 2c 72                 jmp      0xe2b4

----------------
IN: 
0x000fb1de:  66 83 c4 18              addl     $0x18, %esp
0x000fb1e2:  66 5b                    popl     %ebx
0x000fb1e4:  66 5e                    popl     %esi
0x000fb1e6:  66 5f                    popl     %edi
0x000fb1e8:  66 c3                    retl     

----------------
IN: 
0x000fd08e:  cb                       lretw    

----------------
IN: 
0x000f03c2:  f6 44 24 32 01           testb    $1, 0x32(%esp)
0x000f03c7:  74 09                    je       0xf03d2

----------------
IN: 
0x000f03d2:  85 f6                    testl    %esi, %esi
0x000f03d4:  74 1c                    je       0xf03f2

----------------
IN: 
0x000f03d6:  66 81 3d fe 7d 00 00 55  cmpw     $0xaa55, 0x7dfe
0x000f03de:  aa
0x000f03df:  74 11                    je       0xf03f2

----------------
IN: 
0x000f03f2:  80 3d 81 b7 0e 00 00     cmpb     $0, 0xeb781
0x000f03f9:  74 7d                    je       0xf0478

----------------
IN: 
0x000f0478:  0f b6 d3                 movzbl   %bl, %edx
0x000f047b:  b8 00 7c 00 00           movl     $0x7c00, %eax
0x000f0480:  e8 8a f4 ff ff           calll    0xef90f

----------------
IN: 
0x000ef90f:  56                       pushl    %esi
0x000ef910:  53                       pushl    %ebx
0x000ef911:  83 ec 34                 subl     $0x34, %esp
0x000ef914:  89 c3                    movl     %eax, %ebx
0x000ef916:  89 d6                    movl     %edx, %esi
0x000ef918:  0f b7 c0                 movzwl   %ax, %eax
0x000ef91b:  89 44 24 08              movl     %eax, 8(%esp)
0x000ef91f:  89 d8                    movl     %ebx, %eax
0x000ef921:  c1 e8 10                 shrl     $0x10, %eax
0x000ef924:  89 44 24 04              movl     %eax, 4(%esp)
0x000ef928:  c7 04 24 4f 25 0f 00     movl     $0xf254f, (%esp)
0x000ef92f:  e8 91 e9 ff ff           calll    0xee2c5

----------------
IN: 
0x000ef934:  b9 26 00 00 00           movl     $0x26, %ecx
0x000ef939:  31 d2                    xorl     %edx, %edx
0x000ef93b:  8d 44 24 0e              leal     0xe(%esp), %eax
0x000ef93f:  e8 7d c8 ff ff           calll    0xec1c1

----------------
IN: 
0x000ef944:  66 c7 44 24 32 00 02     movw     $0x200, 0x32(%esp)
0x000ef94b:  89 5c 24 2e              movl     %ebx, 0x2e(%esp)
0x000ef94f:  89 f0                    movl     %esi, %eax
0x000ef951:  88 44 24 22              movb     %al, 0x22(%esp)
0x000ef955:  66 c7 44 24 2a 55 aa     movw     $0xaa55, 0x2a(%esp)
0x000ef95c:  31 c0                    xorl     %eax, %eax
0x000ef95e:  e8 29 e7 ff ff           calll    0xee08c

----------------
IN: 
0x000ee0c1:  c6 05 1e c0 0e 00 01     movb     $1, 0xec01e
0x000ee0c8:  58                       popl     %eax
0x000ee0c9:  5b                       popl     %ebx
0x000ee0ca:  c3                       retl     

----------------
IN: 
0x000ef963:  b9 8b 7e 0f 00           movl     $0xf7e8b, %ecx
0x000ef968:  31 d2                    xorl     %edx, %edx
0x000ef96a:  8d 44 24 0e              leal     0xe(%esp), %eax
0x000ef96e:  e8 21 e4 ff ff           calll    0xedd94

----------------
IN: 
0x00007c00:  fa                       cli      

----------------
IN: 
0x00007c00:  fa                       cli      

----------------
IN: 
0x00007c01:  fc                       cld      

----------------
IN: 
0x00007c02:  31 c0                    xorw     %ax, %ax

----------------
IN: 
0x00007c04:  8e d8                    movw     %ax, %ds

----------------
IN: 
0x00007c06:  8e c0                    movw     %ax, %es

